	                ;*********************************************************************************************************
	                ; 
	                ; Autogenerated by DizAssembler:
	                ;   https://github.com/codenjoyme/8080-emulator/blob/master/src/main/java/spec/assembler/DizAssembler.java
	                ; From: src/main/resources/lik/roms/01_zagr.bin
	                ; In test: DizAssemblerTest.testDecompileTest_lik_romZagruzchik()
	                ; 
	                ;*********************************************************************************************************
	                
	                         CPU  8080
	                         .ORG 0C000h
	                ljyzh    EQU 00000h
	                ljypl    EQU 00008h
	                ljyzb    EQU 00300h
	                lnftz    EQU 00323h
	                lkahc    EQU 018A0h
	                lnpsu    EQU 018FEh
	                lnimf    EQU 0266Fh
	                lohyk    EQU 07FFFh
	                lcauo    EQU 08FE1h
	                lftte    EQU 08FE3h
	                lbxtu    EQU 08FE5h
	                lfqsk    EQU 08FE7h
	                lcaks    EQU 08FE9h
	                lftji    EQU 08FEBh
	                lbxjy    EQU 08FEDh
	                lfqio    EQU 08FEFh
	                lcmve    EQU 08FF0h
	                lcasc    EQU 08FF1h
	                lgftu    EQU 08FF2h
	                lftqs    EQU 08FF3h
	                lcjuk    EQU 08FF4h
	                lgcta    EQU 08FF6h
	                lcmli    EQU 08FF8h
	                lgfjy    EQU 08FFAh
	                lcjko    EQU 08FFCh
	                lbxhm    EQU 08FFDh
	                lgcje    EQU 08FFEh
	                lfqgc    EQU 08FFFh
	                ldldh    EQU 0C800h
	                ldstf    EQU 0FF00h
	                ldgqd    EQU 0FF01h
	                lhlrv    EQU 0FF02h
	                lgzot    EQU 0FF03h
	                lgwbe    EQU 0FFFFh
C000	C3 03 C0                 JMP lgsdt
C003	31 FF 7F        lgsdt:   LXI SP,lohyk
C006	3E 82                    MVI A,082h
C008	32 03 FF                 STA lgzot
C00B	C3 44 C4                 JMP ldiiv
C00E	00 00                    DB 000h, 000h
C010	E5              ldlft:   PUSH H
C011	C5                       PUSH B
C012	21 00 00                 LXI H,ljyzh
C015	39                       DAD SP
C016	22 F6 8F                 SHLD lgcta
C019	31 00 C0                 LXI SP,0C000h
C01C	2A FA 8F                 LHLD lgfjy
C01F	01 00 03                 LXI B,ljyzb
C022	E5              lhegf:   PUSH H
C023	E5                       PUSH H
C024	E5                       PUSH H
C025	E5                       PUSH H
C026	E5                       PUSH H
C027	E5                       PUSH H
C028	E5                       PUSH H
C029	E5                       PUSH H
C02A	0B                       DCX B
C02B	78                       MOV A,B
C02C	B1                       ORA C
C02D	C2 22 C0                 JNZ lhegf
C030	2A F6 8F                 LHLD lgcta
C033	F9                       SPHL
C034	C1                       POP B
C035	E1                       POP H
C036	C9                       RET
C037	E5              lgozx:   PUSH H
C038	D5                       PUSH D
C039	C5                       PUSH B
C03A	F5                       PUSH PSW
C03B	79                       MOV A,C
C03C	FE 21                    CPI 021h
C03E	DA D4 C0                 JC ldifc
C041	2A FC 8F        lczfh:   LHLD lcjko
C044	7C                       MOV A,H
C045	FE BE                    CPI 0BEh
C047	D2 B2 C0                 JNC lheds
C04A	C6 03           lhdxd:   ADI 003h
C04C	32 FD 8F                 STA lbxhm
C04F	EB                       XCHG
C050	79              ldlfx:   MOV A,C
C051	32 E9 8F                 STA lcaks
C054	D6 20                    SUI 020h
C056	2A E7 8F                 LHLD lfqsk
C059	85                       ADD L
C05A	6F                       MOV L,A
C05B	29                       DAD H
C05C	29                       DAD H
C05D	29                       DAD H
C05E	EB                       XCHG
C05F	00                       NOP
C060	7C                       MOV A,H
C061	E6 03                    ANI 003h
C063	4F                       MOV C,A
C064	3E 05                    MVI A,005h
C066	91                       SUB C
C067	4F                       MOV C,A
C068	7C                       MOV A,H
C069	E6 FC                    ANI 0FCh
C06B	0F                       RRC
C06C	0F                       RRC
C06D	C6 90                    ADI 090h
C06F	67                       MOV H,A
C070	22 F8 8F                 SHLD lcmli
C073	06 08                    MVI B,008h
C075	00                       NOP
C076	1A              lhbdd:   LDAX D
C077	6F                       MOV L,A
C078	26 00                    MVI H,000h
C07A	79                       MOV A,C
C07B	29              lgrqz:   DAD H
C07C	29                       DAD H
C07D	3D                       DCR A
C07E	C2 7B C0                 JNZ lgrqz
C081	E5                       PUSH H
C082	13                       INX D
C083	05                       DCR B
C084	C2 76 C0                 JNZ lhbdd
C087	06 08                    MVI B,008h
C089	2A F8 8F                 LHLD lcmli
C08C	D1              ldhxo:   POP D
C08D	7A                       MOV A,D
C08E	CD 63 C1                 CALL lgsdj
C091	77                       MOV M,A
C092	24                       INR H
C093	7B                       MOV A,E
C094	CD 63 C1                 CALL lgsdj
C097	77                       MOV M,A
C098	25                       DCR H
C099	2D                       DCR L
C09A	05                       DCR B
C09B	C2 8C C0                 JNZ ldhxo
C09E	F1              lhats:   POP PSW
C09F	C1                       POP B
C0A0	D1                       POP D
C0A1	E1                       POP H
C0A2	C9                       RET
C0A3	4F              lgsdc:   MOV C,A
C0A4	3A FA 8F                 LDA lgfjy
C0A7	B7                       ORA A
C0A8	C2 AF C0                 JNZ lgosm
C0AB	79                       MOV A,C
C0AC	2F                       CMA
C0AD	A6                       ANA M
C0AE	C9                       RET
C0AF	7E              lgosm:   MOV A,M
C0B0	B1                       ORA C
C0B1	C9                       RET
C0B2	7D              lheds:   MOV A,L
C0B3	FE F5                    CPI 0F5h
C0B5	D2 C4 C0                 JNC ldiho
C0B8	C6 0A                    ADI 00Ah
C0BA	6F                       MOV L,A
C0BB	32 FC 8F                 STA lcjko
C0BE	26 00                    MVI H,000h
C0C0	7C                       MOV A,H
C0C1	C3 4A C0                 JMP lhdxd
C0C4	CD 2D C2        ldiho:   CALL lcvtp
C0C7	00                       NOP
C0C8	CD 10 C0                 CALL ldlft
C0CB	21 08 00                 LXI H,ljypl
C0CE	22 FC 8F                 SHLD lcjko
C0D1	C3 41 C0                 JMP lczfh
C0D4	2A FC 8F        ldifc:   LHLD lcjko
C0D7	FE 20                    CPI 020h
C0D9	CA 07 C1                 JZ lgpdb
C0DC	FE 0A                    CPI 00Ah
C0DE	CA 13 C1                 JZ lgsbj
C0E1	FE 0D                    CPI 00Dh
C0E3	CA 28 C1                 JZ ldkxv
C0E6	FE 18                    CPI 018h
C0E8	CA 07 C1                 JZ lgpdb
C0EB	FE 08                    CPI 008h
C0ED	CA 2D C1                 JZ lcvtz
C0F0	FE 19                    CPI 019h
C0F2	CA 39 C1                 JZ lcysh
C0F5	FE 1A                    CPI 01Ah
C0F7	CA 45 C1                 JZ lcwep
C0FA	FE 0C                    CPI 00Ch
C0FC	CA 51 C1                 JZ lczcx
C0FF	FE 1F                    CPI 01Fh
C101	CA 57 C1                 JZ lgpat
C104	C3 5D C1                 JMP lcvsh
C107	7C              lgpdb:   MOV A,H
C108	FE BE                    CPI 0BEh
C10A	D2 13 C1                 JNC lgsbj
C10D	C6 03                    ADI 003h
C10F	67                       MOV H,A
C110	C3 5D C1                 JMP lcvsh
C113	26 00           lgsbj:   MVI H,000h
C115	7D                       MOV A,L
C116	FE F5                    CPI 0F5h
C118	D2 21 C1                 JNC lczep
C11B	C6 0A                    ADI 00Ah
C11D	6F                       MOV L,A
C11E	C3 5D C1                 JMP lcvsh
C121	CD 2D C2        lczep:   CALL lcvtp
C124	00                       NOP
C125	C3 57 C1                 JMP lgpat
C128	26 00           ldkxv:   MVI H,000h
C12A	C3 5D C1                 JMP lcvsh
C12D	7C              lcvtz:   MOV A,H
C12E	FE 02                    CPI 002h
C130	DA 5D C1                 JC lcvsh
C133	D6 03                    SUI 003h
C135	67                       MOV H,A
C136	C3 5D C1                 JMP lcvsh
C139	7D              lcysh:   MOV A,L
C13A	FE 11                    CPI 011h
C13C	DA 5D C1                 JC lcvsh
C13F	D6 0A                    SUI 00Ah
C141	6F                       MOV L,A
C142	C3 5D C1                 JMP lcvsh
C145	7D              lcwep:   MOV A,L
C146	FE F5                    CPI 0F5h
C148	D2 5D C1                 JNC lcvsh
C14B	C6 0A                    ADI 00Ah
C14D	6F                       MOV L,A
C14E	C3 5D C1                 JMP lcvsh
C151	21 08 00        lczcx:   LXI H,ljypl
C154	C3 5D C1                 JMP lcvsh
C157	CD 10 C0        lgpat:   CALL ldlft
C15A	C3 51 C1                 JMP lczcx
C15D	22 FC 8F        lcvsh:   SHLD lcjko
C160	C3 9E C0                 JMP lhats
C163	4F              lgsdj:   MOV C,A
C164	3A E9 8F                 LDA lcaks
C167	FE 7F                    CPI 07Fh
C169	79                       MOV A,C
C16A	CA A3 C0                 JZ lgsdc
C16D	AE                       XRA M
C16E	C9                       RET
C16F	00                       DB 000h
C170	E5              ldlfj:   PUSH H
C171	C5                       PUSH B
C172	2A F1 8F                 LHLD lcasc
C175	3E 0B           lcwbn:   MVI A,00Bh
C177	32 03 FF                 STA lgzot
C17A	CD 8F C1                 CALL lgote
C17D	3E 0A                    MVI A,00Ah
C17F	32 03 FF                 STA lgzot
C182	CD 8F C1                 CALL lgote
C185	25                       DCR H
C186	C2 75 C1                 JNZ lcwbn
C189	00                       NOP
C18A	00                       NOP
C18B	00                       NOP
C18C	C1                       POP B
C18D	E1                       POP H
C18E	C9                       RET
C18F	45              lgote:   MOV B,L
C190	05              ldlfu:   DCR B
C191	C2 90 C1                 JNZ ldlfu
C194	C9                       RET
C195	F5              lcwby:   PUSH PSW
C196	3E 40                    MVI A,040h
C198	32 F2 8F                 STA lgftu
C19B	CD 70 C1                 CALL ldlfj
C19E	F1                       POP PSW
C19F	C9                       RET
C1A0	E5              ldlhq:   PUSH H
C1A1	3E 40                    MVI A,040h
C1A3	32 F1 8F        lgsde:   STA lcasc
C1A6	CD 70 C1                 CALL ldlfj
C1A9	E1                       POP H
C1AA	C9                       RET
C1AB	E5              lgrti:   PUSH H
C1AC	3E 50                    MVI A,050h
C1AE	C3 A3 C1                 JMP lgsde
C1B1	E5              lczcc:   PUSH H
C1B2	C5                       PUSH B
C1B3	06 FF                    MVI B,0FFh
C1B5	00              lcwbi:   NOP
C1B6	00                       NOP
C1B7	00                       NOP
C1B8	3A F4 8F                 LDA lcjuk
C1BB	B7                       ORA A
C1BC	CA E2 C1                 JZ lhegk
C1BF	CD 54 C2                 CALL ldiev
C1C2	3A 01 FF                 LDA ldgqd
C1C5	E6 02                    ANI 002h
C1C7	CA 4B C2                 JZ lgrtt
C1CA	CD 5A C2        lhdxe:   CALL lhduj
C1CD	3A 00 FF                 LDA ldstf
C1D0	FE FF                    CPI 0FFh
C1D2	C2 FF C1                 JNZ lgoqg
C1D5	3A 02 FF                 LDA lhlrv
C1D8	F6 F0                    ORI 0F0h
C1DA	FE FF                    CPI 0FFh
C1DC	C2 05 C2                 JNZ lcweb
C1DF	C3 B5 C1                 JMP lcwbi
C1E2	CD 54 C2        lhegk:   CALL ldiev
C1E5	3A 01 FF                 LDA ldgqd
C1E8	E6 02                    ANI 002h
C1EA	C2 F2 C1                 JNZ lhedy
C1ED	06 FF                    MVI B,0FFh
C1EF	C3 CA C1                 JMP lhdxe
C1F2	05              lhedy:   DCR B
C1F3	C2 CA C1                 JNZ lhdxe
C1F6	32 F4 8F                 STA lcjuk
C1F9	00                       NOP
C1FA	00                       NOP
C1FB	00                       NOP
C1FC	C3 B5 C1                 JMP lcwbi
C1FF	6F              lgoqg:   MOV L,A
C200	26 FF                    MVI H,0FFh
C202	C3 08 C2                 JMP ldkyb
C205	67              lcweb:   MOV H,A
C206	2E FF                    MVI L,0FFh
C208	0E FB           ldkyb:   MVI C,0FBh
C20A	0C              lhdwr:   INR C
C20B	29                       DAD H
C20C	DA 0A C2                 JC lhdwr
C20F	69                       MOV L,C
C210	06 FF                    MVI B,0FFh
C212	CD 54 C2        lheeb:   CALL ldiev
C215	3A 01 FF                 LDA ldgqd
C218	F6 03                    ORI 003h
C21A	FE FF                    CPI 0FFh
C21C	C2 35 C2                 JNZ lcwaz
C21F	05                       DCR B
C220	C2 12 C2                 JNZ lheeb
C223	C3 B5 C1                 JMP lcwbi
C226	3A 01 FF        lhbfd:   LDA ldgqd
C229	2F                       CMA
C22A	E6 F7                    ANI 0F7h
C22C	C9                       RET
C22D	CD 26 C2        lcvtp:   CALL lhbfd
C230	C4 60 C2                 CNZ ldlhl
C233	C9                       RET
C234	00                       DB 000h
C235	0E FD           lcwaz:   MVI C,0FDh
C237	0C              lgozp:   INR C
C238	0F                       RRC
C239	DA 37 C2                 JC lgozp
C23C	79                       MOV A,C
C23D	07                       RLC
C23E	07                       RLC
C23F	07                       RLC
C240	07                       RLC
C241	C6 A0                    ADI 0A0h
C243	B5                       ORA L
C244	6F                       MOV L,A
C245	26 C4                    MVI H,0C4h
C247	7E                       MOV A,M
C248	C1                       POP B
C249	E1                       POP H
C24A	C9                       RET
C24B	32 F4 8F        lgrtt:   STA lcjuk
C24E	00                       NOP
C24F	00                       NOP
C250	00                       NOP
C251	C3 B5 C1                 JMP lcwbi
C254	3E 82           ldiev:   MVI A,082h
C256	32 03 FF                 STA lgzot
C259	C9                       RET
C25A	3E 91           lhduj:   MVI A,091h
C25C	32 03 FF                 STA lgzot
C25F	C9                       RET
C260	C5              ldlhl:   PUSH B
C261	3A EF 8F                 LDA lfqio
C264	FE 80                    CPI 080h
C266	CA 46 C3                 JZ lhbfz
C269	0E FF           lcyun:   MVI C,0FFh
C26B	CD 54 C2        lgrtd:   CALL ldiev
C26E	3A 01 FF                 LDA ldgqd
C271	F6 03                    ORI 003h
C273	FE FF                    CPI 0FFh
C275	C2 69 C2                 JNZ lcyun
C278	06 15                    MVI B,015h
C27A	CD 90 C1                 CALL ldlfu
C27D	0D                       DCR C
C27E	C2 6B C2                 JNZ lgrtd
C281	C1              lczeu:   POP B
C282	C9                       RET
C283	2A ED 8F        lgsdk:   LHLD lbxjy
C286	E9                       PCHL
C287	21 FE 18                 LXI H,lnpsu
C28A	22 E7 8F                 SHLD lfqsk
C28D	0E 21                    MVI C,021h
C28F	CD BC C2                 CALL ldhue
C292	21 A0 18                 LXI H,lkahc
C295	22 E7 8F                 SHLD lfqsk
C298	C9                       RET
C299	00                       DB 000h
C29A	3A F4 8F        lhdue:   LDA lcjuk
C29D	C3 F7 C2                 JMP lgozs
C2A0	FF FF FF FF              DB 0FFh, 0FFh, 0FFh, 0FFh, 0FFh, 0FFh, 0FFh, 0FFh, 0FFh, 0FFh
	. . .
C2A8	FF FF 

C2AA	FF FF FF FF              DB 0FFh, 0FFh, 0FFh, 0FFh, 0FFh, 0FFh
	. . .
C2AE	FF FF 

C2B0	CD C8 C2        ldleu:   CALL ldkye
C2B3	C3 83 C2                 JMP lgsdk
C2B6	FF FF FF FF              DB 0FFh, 0FFh, 0FFh, 0FFh, 0FFh, 0FFh
	. . .
C2BA	FF FF 

C2BC	E5              ldhue:   PUSH H
C2BD	D5                       PUSH D
C2BE	C5                       PUSH B
C2BF	F5                       PUSH PSW
C2C0	79                       MOV A,C
C2C1	2A FC 8F                 LHLD lcjko
C2C4	EB                       XCHG
C2C5	C3 50 C0                 JMP ldlfx
C2C8	C3 5E C3        ldkye:   JMP lhatr
C2CB	CD 95 C1        lgrts:   CALL lcwby
C2CE	FE 81                    CPI 081h
C2D0	D2 08 C3                 JNC ldkyd
C2D3	FE 21                    CPI 021h
C2D5	DA E8 C2                 JC ldkxo
C2D8	4F                       MOV C,A
C2D9	FE 40                    CPI 040h
C2DB	D2 EF C2                 JNC lgosi
C2DE	3A F4 8F                 LDA lcjuk
C2E1	B7                       ORA A
C2E2	79                       MOV A,C
C2E3	C2 E8 C2                 JNZ ldkxo
C2E6	EE 10                    XRI 010h
C2E8	32 F0 8F        ldkxo:   STA lcmve
C2EB	32 EF 8F                 STA lfqio
C2EE	C9                       RET
C2EF	FE 7F           lgosi:   CPI 07Fh
C2F1	CA 9A C2                 JZ lhdue
C2F4	3A EB 8F                 LDA lftji
C2F7	B7              lgozs:   ORA A
C2F8	79                       MOV A,C
C2F9	C2 E8 C2                 JNZ ldkxo
C2FC	D6 20                    SUI 020h
C2FE	C3 E8 C2                 JMP ldkxo
C301	32 EF 8F        lczex:   STA lfqio
C304	3A F0 8F                 LDA lcmve
C307	C9                       RET
C308	FE 81           ldkyd:   CPI 081h
C30A	C2 25 C3                 JNZ lcwdn
C30D	3A EB 8F                 LDA lftji
C310	B7                       ORA A
C311	3E 01                    MVI A,001h
C313	CA 17 C3                 JZ lgpah
C316	AF                       XRA A
C317	32 EB 8F        lgpah:   STA lftji
C31A	B7                       ORA A
C31B	21 C8 C2                 LXI H,0C2C8h
C31E	E5                       PUSH H
C31F	CA AB C1                 JZ lgrti
C322	C3 A0 C1                 JMP ldlhq
C325	FE 8C           lcwdn:   CPI 08Ch
C327	C2 6C C3                 JNZ ldhwx
C32A	21 FF FF                 LXI H,lgwbe
C32D	22 FA 8F        lcvtr:   SHLD lgfjy
C330	C3 C8 C2                 JMP ldkye
C333	2A E5 8F        lgsal:   LHLD lbxtu
C336	E9                       PCHL
C337	C5              lgozr:   PUSH B
C338	D5                       PUSH D
C339	E5                       PUSH H
C33A	CD 83 C2                 CALL lgsdk
C33D	CD B0 C2                 CALL ldleu
C340	00                       NOP
C341	00                       NOP
C342	E1                       POP H
C343	D1                       POP D
C344	C1                       POP B
C345	C9                       RET
C346	0E 10           lhbfz:   MVI C,010h
C348	06 FF           ldkyh:   MVI B,0FFh
C34A	CD 90 C1                 CALL ldlfu
C34D	0D                       DCR C
C34E	C2 48 C3                 JNZ ldkyh
C351	C3 81 C2                 JMP lczeu
C354	C5 06 15 CD              DB 0C5h, 006h, 015h, 0CDh, 090h, 0C1h, 0C1h, 0C3h, 087h, 0C2h
	. . .
C35C	87 C2 

C35E	CD 60 C2        lhatr:   CALL ldlhl
C361	CD B1 C1                 CALL lczcc
C364	FE 80                    CPI 080h
C366	CA 01 C3                 JZ lczex
C369	C3 CB C2                 JMP lgrts
C36C	FE 8B           ldhwx:   CPI 08Bh
C36E	C2 33 C3                 JNZ lgsal
C371	21 00 00                 LXI H,ljyzh
C374	C3 2D C3                 JMP lcvtr
C377	C5              lgozv:   PUSH B
C378	D5                       PUSH D
C379	0E 00           lcysd:   MVI C,000h
C37B	57                       MOV D,A
C37C	3A 01 FF                 LDA ldgqd
C37F	E6 01                    ANI 001h
C381	5F                       MOV E,A
C382	79              lhego:   MOV A,C
C383	E6 7F                    ANI 07Fh
C385	07                       RLC
C386	4F                       MOV C,A
C387	3A 01 FF        lgpcs:   LDA ldgqd
C38A	FE 80                    CPI 080h
C38C	DA 5A C4                 JC lhdvx
C38F	E6 01                    ANI 001h
C391	BB                       CMP E
C392	CA 87 C3                 JZ lgpcs
C395	B1                       ORA C
C396	4F                       MOV C,A
C397	CD C9 C3                 CALL lcyve
C39A	3A 01 FF                 LDA ldgqd
C39D	E6 01                    ANI 001h
C39F	5F                       MOV E,A
C3A0	7A                       MOV A,D
C3A1	B7                       ORA A
C3A2	F2 BE C3                 JP lhasw
C3A5	79                       MOV A,C
C3A6	FE E6                    CPI 0E6h
C3A8	C2 B2 C3                 JNZ lhedm
C3AB	AF                       XRA A
C3AC	32 F8 8F                 STA lcmli
C3AF	C3 BC C3                 JMP ldhug
C3B2	FE 19           lhedm:   CPI 019h
C3B4	C2 82 C3                 JNZ lhego
C3B7	3E FF                    MVI A,0FFh
C3B9	32 F3 8F                 STA lftqs
C3BC	16 09           ldhug:   MVI D,009h
C3BE	15              lhasw:   DCR D
C3BF	C2 82 C3                 JNZ lhego
C3C2	3A F3 8F                 LDA lftqs
C3C5	A9                       XRA C
C3C6	D1                       POP D
C3C7	C1                       POP B
C3C8	C9                       RET
C3C9	3A FF 8F        lcyve:   LDA lfqgc
C3CC	47              ldhxm:   MOV B,A
C3CD	C3 90 C1                 JMP ldlfu
C3D0	C5                       PUSH B
C3D1	D5                       PUSH D
C3D2	F5                       PUSH PSW
C3D3	57                       MOV D,A
C3D4	0E 08                    MVI C,008h
C3D6	7A              lhbdm:   MOV A,D
C3D7	07                       RLC
C3D8	57                       MOV D,A
C3D9	E6 01                    ANI 001h
C3DB	F6 0E                    ORI 00Eh
C3DD	32 03 FF                 STA lgzot
C3E0	5F                       MOV E,A
C3E1	CD 84 C4                 CALL ldiiq
C3E4	7B                       MOV A,E
C3E5	EE 01                    XRI 001h
C3E7	32 03 FF                 STA lgzot
C3EA	CD 84 C4                 CALL ldiiq
C3ED	0D                       DCR C
C3EE	C2 D6 C3                 JNZ lhbdm
C3F1	F1                       POP PSW
C3F2	D1                       POP D
C3F3	C1                       POP B
C3F4	C9                       RET
C3F5	00 00 00 00              DB 000h, 000h, 000h, 000h
C3F9	3E FF           lcysc:   MVI A,0FFh
C3FB	CD 77 C3                 CALL lgozv
C3FE	6F                       MOV L,A
C3FF	3E 08                    MVI A,008h
C401	CD 77 C3                 CALL lgozv
C404	67                       MOV H,A
C405	22 E3 8F                 SHLD lftte
C408	3E 08                    MVI A,008h
C40A	CD 77 C3                 CALL lgozv
C40D	5F                       MOV E,A
C40E	3E 08                    MVI A,008h
C410	CD 77 C3                 CALL lgozv
C413	57                       MOV D,A
C414	3E 08           ldigf:   MVI A,008h
C416	CD 77 C3                 CALL lgozv
C419	77                       MOV M,A
C41A	CD 27 C4                 CALL lgpdp
C41D	23                       INX H
C41E	C2 14 C4                 JNZ ldigf
C421	C9                       RET
C422	3E FF C3 16              DB 03Eh, 0FFh, 0C3h, 016h, 0C4h
	. . .
C426	C4 

C427	7C              lgpdp:   MOV A,H
C428	BA                       CMP D
C429	C0                       RNZ
C42A	7D                       MOV A,L
C42B	BB                       CMP E
C42C	C9                       RET
C42D	7E              lcvvd:   MOV A,M
C42E	02                       STAX B
C42F	23                       INX H
C430	03                       INX B
C431	CD 27 C4                 CALL lgpdp
C434	C2 2D C4                 JNZ lcvvd
C437	C9                       RET
C438	7E              ldkwn:   MOV A,M
C439	4F                       MOV C,A
C43A	FE 00                    CPI 000h
C43C	C8                       RZ
C43D	CD 37 C0                 CALL lgozx
C440	23                       INX H
C441	C3 38 C4                 JMP ldkwn
C444	21 73 C4        ldiiv:   LXI H,lgscb
C447	11 90 C4                 LXI D,ldlgy
C44A	01 E3 8F                 LXI B,lftte
C44D	CD 2D C4                 CALL lcvvd
C450	CD 38 C4                 CALL ldkwn
C453	CD F9 C3                 CALL lcysc
C456	2A E3 8F                 LHLD lftte
C459	E9                       PCHL
C45A	CD 37 C3        lhdvx:   CALL lgozr
C45D	FE 0D                    CPI 00Dh
C45F	CA 00 C8                 JZ ldldh
C462	FE 0A                    CPI 00Ah
C464	CA 6F C4                 JZ lgotx
C467	32 FF 8F                 STA lfqgc
C46A	3E FF                    MVI A,0FFh
C46C	C3 79 C3                 JMP lcysd
C46F	2A E1 8F        lgotx:   LHLD lcauo
C472	E9                       PCHL
	                
C473	00 C0 C8 C2     lgscb:   DB 000h, 0C0h, 0C8h, 0C2h, 0A0h, 018h, 000h, 000h, 000h, 000h
	. . .
C47B	00 00 

C47D	54 C3 20 20              DB 054h, 0C3h, 020h, 020h, 050h, 040h, 000h
	. . .
C481	50 40 00 

C484	3A FE 8F        ldiiq:   LDA lgcje
C487	C3 CC C3                 JMP ldhxm
C48A	00 00 00 00              DB 000h, 000h, 000h, 000h, 028h, 03Ch
	. . .
C48E	28 3C 

C490	1F 2A 20 52     ldlgy:   DB 01Fh, 02Ah, 020h, 052h, 055h, 04Eh, 022h, 043h, 04Fh, 04Dh
	. . .
C498	4F 4D 

C49A	3A 22 00 FF              DB 03Ah, 022h, 000h, 0FFh, 0FFh, 0FFh, 081h, 00Ch, 019h, 01Ah
	. . .
C4A2	19 1A 

C4A4	20 20 20 08              DB 020h, 020h, 020h, 008h, 080h, 018h, 00Ah, 00Dh, 000h, 000h
	. . .
C4AC	00 00 

C4AE	00 00 71 7E              DB 000h, 000h, 071h, 07Eh, 073h, 06Dh, 069h, 074h, 078h, 062h
	. . .
C4B6	78 62 

C4B8	60 2C 2F 7F              DB 060h, 02Ch, 02Fh, 07Fh, 000h, 000h, 000h, 000h, 066h, 079h
	. . .
C4C0	66 79 

C4C2	77 61 70 72              DB 077h, 061h, 070h, 072h, 06Fh, 06Ch, 064h, 076h, 07Ch, 02Eh
	. . .
C4CA	7C 2E 

C4CC	00 00 00 00              DB 000h, 000h, 000h, 000h, 06Ah, 063h, 075h, 06Bh, 065h, 06Eh
	. . .
C4D4	65 6E 

C4D6	67 7B 7D 7A              DB 067h, 07Bh, 07Dh, 07Ah, 068h, 03Ah, 000h, 000h, 000h, 000h
	. . .
C4DE	00 00 

C4E0	3B 31 32 33              DB 03Bh, 031h, 032h, 033h, 034h, 035h, 036h, 037h, 038h, 039h
	. . .
C4E8	38 39 

C4EA	30 2D 00 00              DB 030h, 02Dh, 000h, 000h, 000h, 000h, 082h, 083h, 084h, 085h
	. . .
C4F2	84 85 

C4F4	86 87 88 89              DB 086h, 087h, 088h, 089h, 08Ah, 08Bh, 08Ch, 01Fh, 000h, 000h
	. . .
C4FC	00 00 

C4FE	00 00 00 00              DB 000h, 000h, 000h, 000h, 000h, 000h, 000h, 000h, 000h, 000h
	. . .
C506	00 00 

C508	04 04 04 04              DB 004h, 004h, 004h, 004h, 004h, 000h, 004h, 000h, 00Ah, 00Ah
	. . .
C510	0A 0A 

C512	0A 00 00 00              DB 00Ah, 000h, 000h, 000h, 000h, 000h, 00Ah, 00Ah, 01Fh, 00Ah
	. . .
C51A	1F 0A 

C51C	1F 0A 0A 00              DB 01Fh, 00Ah, 00Ah, 000h, 004h, 00Fh, 014h, 00Eh, 005h, 01Eh
	. . .
C524	05 1E 

C526	04 00 18 19              DB 004h, 000h, 018h, 019h, 002h, 004h, 008h, 013h, 003h, 000h
	. . .
C52E	03 00 

C530	04 0A 0A 0C              DB 004h, 00Ah, 00Ah, 00Ch, 015h, 012h, 00Dh, 000h, 006h, 006h
	. . .
C538	06 06 

C53A	02 04 00 00              DB 002h, 004h, 000h, 000h, 000h, 000h, 002h, 004h, 008h, 008h
	. . .
C542	08 08 

C544	08 04 02 00              DB 008h, 004h, 002h, 000h, 008h, 004h, 002h, 002h, 002h, 004h
	. . .
C54C	02 04 

C54E	08 00 00 04              DB 008h, 000h, 000h, 004h, 015h, 00Eh, 015h, 004h, 000h, 000h
	. . .
C556	00 00 

C558	00 04 04 1F              DB 000h, 004h, 004h, 01Fh, 004h, 004h, 000h, 000h, 000h, 000h
	. . .
C560	00 00 

C562	00 0C 0C 04              DB 000h, 00Ch, 00Ch, 004h, 008h, 000h, 000h, 000h, 000h, 01Fh
	. . .
C56A	00 1F 

C56C	00 00 00 00              DB 000h, 000h, 000h, 000h, 000h, 000h, 000h, 000h, 000h, 00Ch
	. . .
C574	00 0C 

C576	0C 00 00 01              DB 00Ch, 000h, 000h, 001h, 002h, 004h, 008h, 010h, 000h, 000h
	. . .
C57E	00 00 

C580	0E 11 13 15              DB 00Eh, 011h, 013h, 015h, 019h, 011h, 00Eh, 000h, 004h, 00Ch
	. . .
C588	04 0C 

C58A	04 04 04 04              DB 004h, 004h, 004h, 004h, 00Eh, 000h, 00Eh, 011h, 001h, 006h
	. . .
C592	01 06 

C594	08 10 1F 00              DB 008h, 010h, 01Fh, 000h, 01Fh, 001h, 002h, 006h, 001h, 011h
	. . .
C59C	01 11 

C59E	0E 00 02 06              DB 00Eh, 000h, 002h, 006h, 00Ah, 012h, 01Fh, 002h, 002h, 000h
	. . .
C5A6	02 00 

C5A8	1F 10 1E 01              DB 01Fh, 010h, 01Eh, 001h, 001h, 011h, 00Eh, 000h, 007h, 008h
	. . .
C5B0	07 08 

C5B2	10 1E 11 11              DB 010h, 01Eh, 011h, 011h, 00Eh, 000h, 01Fh, 001h, 002h, 004h
	. . .
C5BA	02 04 

C5BC	08 08 08 00              DB 008h, 008h, 008h, 000h, 00Eh, 011h, 011h, 00Eh, 011h, 011h
	. . .
C5C4	11 11 

C5C6	0E 00 0E 11              DB 00Eh, 000h, 00Eh, 011h, 011h, 00Fh, 001h, 002h, 01Ch, 000h
	. . .
C5CE	1C 00 

C5D0	00 0C 0C 00              DB 000h, 00Ch, 00Ch, 000h, 000h, 00Ch, 00Ch, 000h, 00Ch, 00Ch
	. . .
C5D8	0C 0C 

C5DA	00 0C 0C 04              DB 000h, 00Ch, 00Ch, 004h, 008h, 000h, 002h, 004h, 008h, 010h
	. . .
C5E2	08 10 

C5E4	08 04 02 00              DB 008h, 004h, 002h, 000h, 000h, 000h, 01Fh, 000h, 01Fh, 000h
	. . .
C5EC	1F 00 

C5EE	00 00 08 04              DB 000h, 000h, 008h, 004h, 002h, 001h, 002h, 004h, 008h, 000h
	. . .
C5F6	08 00 

C5F8	0E 11 01 02              DB 00Eh, 011h, 001h, 002h, 004h, 000h, 004h, 000h, 00Eh, 011h
	. . .
C600	0E 11 

C602	13 15 17 10              DB 013h, 015h, 017h, 010h, 00Eh, 000h, 004h, 00Ah, 011h, 011h
	. . .
C60A	11 11 

C60C	1F 11 11 00              DB 01Fh, 011h, 011h, 000h, 01Eh, 011h, 011h, 01Eh, 011h, 011h
	. . .
C614	11 11 

C616	1E 00 0E 11              DB 01Eh, 000h, 00Eh, 011h, 010h, 010h, 010h, 011h, 00Eh, 000h
	. . .
C61E	0E 00 

C620	1E 09 09 09              DB 01Eh, 009h, 009h, 009h, 009h, 009h, 01Eh, 000h, 01Fh, 010h
	. . .
C628	1F 10 

C62A	10 1E 10 10              DB 010h, 01Eh, 010h, 010h, 01Fh, 000h, 01Fh, 010h, 010h, 01Eh
	. . .
C632	10 1E 

C634	10 10 10 00              DB 010h, 010h, 010h, 000h, 00Eh, 011h, 010h, 010h, 013h, 011h
	. . .
C63C	13 11 

C63E	0F 00 11 11              DB 00Fh, 000h, 011h, 011h, 011h, 01Fh, 011h, 011h, 011h, 000h
	. . .
C646	11 00 

C648	0E 04 04 04              DB 00Eh, 004h, 004h, 004h, 004h, 004h, 00Eh, 000h, 001h, 001h
	. . .
C650	01 01 

C652	01 01 11 11              DB 001h, 001h, 011h, 011h, 00Eh, 000h, 011h, 012h, 014h, 018h
	. . .
C65A	14 18 

C65C	14 12 11 00              DB 014h, 012h, 011h, 000h, 010h, 010h, 010h, 010h, 010h, 011h
	. . .
C664	10 11 

C666	1F 00 11 1B              DB 01Fh, 000h, 011h, 01Bh, 015h, 015h, 011h, 011h, 011h, 000h
	. . .
C66E	11 00 

C670	11 11 19 15              DB 011h, 011h, 019h, 015h, 013h, 011h, 011h, 000h, 00Eh, 011h
	. . .
C678	0E 11 

C67A	11 11 11 11              DB 011h, 011h, 011h, 011h, 00Eh, 000h, 01Eh, 011h, 011h, 01Eh
	. . .
C682	11 1E 

C684	10 10 10 00              DB 010h, 010h, 010h, 000h, 00Eh, 011h, 011h, 011h, 015h, 012h
	. . .
C68C	15 12 

C68E	0D 00 1E 11              DB 00Dh, 000h, 01Eh, 011h, 011h, 01Eh, 014h, 012h, 011h, 000h
	. . .
C696	11 00 

C698	0E 11 10 0E              DB 00Eh, 011h, 010h, 00Eh, 001h, 011h, 00Eh, 000h, 01Fh, 004h
	. . .
C6A0	1F 04 

C6A2	04 04 04 04              DB 004h, 004h, 004h, 004h, 004h, 000h, 011h, 011h, 011h, 011h
	. . .
C6AA	11 11 

C6AC	11 11 0E 00              DB 011h, 011h, 00Eh, 000h, 011h, 011h, 011h, 00Ah, 00Ah, 004h
	. . .
C6B4	0A 04 

C6B6	04 00 11 11              DB 004h, 000h, 011h, 011h, 011h, 015h, 015h, 015h, 00Ah, 000h
	. . .
C6BE	0A 00 

C6C0	11 11 0A 04              DB 011h, 011h, 00Ah, 004h, 00Ah, 011h, 011h, 000h, 011h, 011h
	. . .
C6C8	11 11 

C6CA	0A 04 04 04              DB 00Ah, 004h, 004h, 004h, 004h, 000h, 01Fh, 001h, 002h, 00Eh
	. . .
C6D2	02 0E 

C6D4	08 10 1F 00              DB 008h, 010h, 01Fh, 000h, 00Eh, 008h, 008h, 008h, 008h, 008h
	. . .
C6DC	08 08 

C6DE	0E 00 00 10              DB 00Eh, 000h, 000h, 010h, 008h, 004h, 002h, 001h, 000h, 000h
	. . .
C6E6	00 00 

C6E8	0E 02 02 02              DB 00Eh, 002h, 002h, 002h, 002h, 002h, 00Eh, 000h, 00Eh, 011h
	. . .
C6F0	0E 11 

C6F2	00 00 00 00              DB 000h, 000h, 000h, 000h, 000h, 000h, 000h, 000h, 000h, 000h
	. . .
C6FA	00 00 

C6FC	00 00 00 1F              DB 000h, 000h, 000h, 01Fh, 012h, 015h, 015h, 01Dh, 015h, 015h
	. . .
C704	15 15 

C706	12 00 04 0A              DB 012h, 000h, 004h, 00Ah, 011h, 011h, 01Fh, 011h, 011h, 000h
	. . .
C70E	11 00 

C710	1F 10 10 1E              DB 01Fh, 010h, 010h, 01Eh, 011h, 011h, 01Eh, 000h, 012h, 012h
	. . .
C718	12 12 

C71A	12 12 12 1F              DB 012h, 012h, 012h, 01Fh, 001h, 000h, 006h, 00Ah, 00Ah, 00Ah
	. . .
C722	0A 0A 

C724	0A 1F 11 00              DB 00Ah, 01Fh, 011h, 000h, 01Fh, 010h, 010h, 01Eh, 010h, 010h
	. . .
C72C	10 10 

C72E	1F 00 04 1F              DB 01Fh, 000h, 004h, 01Fh, 015h, 015h, 01Fh, 004h, 004h, 000h
	. . .
C736	04 00 

C738	1F 11 10 10              DB 01Fh, 011h, 010h, 010h, 010h, 010h, 010h, 000h, 011h, 011h
	. . .
C740	11 11 

C742	0A 04 0A 11              DB 00Ah, 004h, 00Ah, 011h, 011h, 000h, 011h, 011h, 013h, 015h
	. . .
C74A	13 15 

C74C	19 11 11 00              DB 019h, 011h, 011h, 000h, 015h, 011h, 013h, 015h, 019h, 011h
	. . .
C754	19 11 

C756	11 00 11 12              DB 011h, 000h, 011h, 012h, 014h, 018h, 014h, 012h, 011h, 000h
	. . .
C75E	11 00 

C760	07 09 09 09              DB 007h, 009h, 009h, 009h, 009h, 009h, 019h, 000h, 011h, 01Bh
	. . .
C768	11 1B 

C76A	15 15 11 11              DB 015h, 015h, 011h, 011h, 011h, 000h, 011h, 011h, 011h, 01Fh
	. . .
C772	11 1F 

C774	11 11 11 00              DB 011h, 011h, 011h, 000h, 00Eh, 011h, 011h, 011h, 011h, 011h
	. . .
C77C	11 11 

C77E	0E 00 1F 11              DB 00Eh, 000h, 01Fh, 011h, 011h, 011h, 011h, 011h, 011h, 000h
	. . .
C786	11 00 

C788	0F 11 11 0F              DB 00Fh, 011h, 011h, 00Fh, 005h, 009h, 011h, 000h, 01Eh, 011h
	. . .
C790	1E 11 

C792	11 1E 10 10              DB 011h, 01Eh, 010h, 010h, 010h, 000h, 00Eh, 011h, 010h, 010h
	. . .
C79A	10 10 

C79C	10 11 0E 00              DB 010h, 011h, 00Eh, 000h, 01Fh, 004h, 004h, 004h, 004h, 004h
	. . .
C7A4	04 04 

C7A6	04 00 11 11              DB 004h, 000h, 011h, 011h, 011h, 00Ah, 004h, 008h, 010h, 000h
	. . .
C7AE	10 00 

C7B0	11 15 15 0E              DB 011h, 015h, 015h, 00Eh, 015h, 015h, 011h, 000h, 01Eh, 011h
	. . .
C7B8	1E 11 

C7BA	11 1E 11 11              DB 011h, 01Eh, 011h, 011h, 01Eh, 000h, 010h, 010h, 010h, 01Eh
	. . .
C7C2	10 1E 

C7C4	11 11 1E 00              DB 011h, 011h, 01Eh, 000h, 011h, 011h, 011h, 019h, 015h, 015h
	. . .
C7CC	15 15 

C7CE	19 00 0E 11              DB 019h, 000h, 00Eh, 011h, 001h, 006h, 001h, 011h, 00Eh, 000h
	. . .
C7D6	0E 00 

C7D8	11 15 15 15              DB 011h, 015h, 015h, 015h, 015h, 015h, 01Fh, 000h, 00Eh, 011h
	. . .
C7E0	0E 11 

C7E2	01 07 01 11              DB 001h, 007h, 001h, 011h, 00Eh, 000h, 015h, 015h, 015h, 015h
	. . .
C7EA	15 15 

C7EC	15 1F 01 00              DB 015h, 01Fh, 001h, 000h, 011h, 011h, 011h, 01Fh, 001h, 001h
	. . .
C7F4	01 01 

C7F6	01 00 3F 3F              DB 001h, 000h, 03Fh, 03Fh, 03Fh, 03Fh, 03Fh, 03Fh, 03Fh, 03Fh
	. . .
C7FE	3F 3F 

	                END
Labels:
end                     C800
lbxhm                   8FFD	lbxjy                   8FED
lbxtu                   8FE5	lcaks                   8FE9
lcasc                   8FF1	lcauo                   8FE1
lcjko                   8FFC	lcjuk                   8FF4
lcmli                   8FF8	lcmve                   8FF0
lcvsh                   C15D	lcvtp                   C22D
lcvtr                   C32D	lcvtz                   C12D
lcvvd                   C42D	lcwaz                   C235
lcwbi                   C1B5	lcwbn                   C175
lcwby                   C195	lcwdn                   C325
lcweb                   C205	lcwep                   C145
lcysc                   C3F9	lcysd                   C379
lcysh                   C139	lcyun                   C269
lcyve                   C3C9	lczcc                   C1B1
lczcx                   C151	lczep                   C121
lczeu                   C281	lczex                   C301
lczfh                   C041	ldgqd                   FF01
ldhue                   C2BC	ldhug                   C3BC
ldhwx                   C36C	ldhxm                   C3CC
ldhxo                   C08C	ldiev                   C254
ldifc                   C0D4	ldigf                   C414
ldiho                   C0C4	ldiiq                   C484
ldiiv                   C444	ldkwn                   C438
ldkxo                   C2E8	ldkxv                   C128
ldkyb                   C208	ldkyd                   C308
ldkye                   C2C8	ldkyh                   C348
ldldh                   C800	ldleu                   C2B0
ldlfj                   C170	ldlft                   C010
ldlfu                   C190	ldlfx                   C050
ldlgy                   C490	ldlhl                   C260
ldlhq                   C1A0	ldstf                   FF00
lfqgc                   8FFF	lfqio                   8FEF
lfqsk                   8FE7	lftji                   8FEB
lftqs                   8FF3	lftte                   8FE3
lgcje                   8FFE	lgcta                   8FF6
lgfjy                   8FFA	lgftu                   8FF2
lgoqg                   C1FF	lgosi                   C2EF
lgosm                   C0AF	lgote                   C18F
lgotx                   C46F	lgozp                   C237
lgozr                   C337	lgozs                   C2F7
lgozv                   C377	lgozx                   C037
lgpah                   C317	lgpat                   C157
lgpcs                   C387	lgpdb                   C107
lgpdp                   C427	lgrqz                   C07B
lgrtd                   C26B	lgrti                   C1AB
lgrts                   C2CB	lgrtt                   C24B
lgsal                   C333	lgsbj                   C113
lgscb                   C473	lgsdc                   C0A3
lgsde                   C1A3	lgsdj                   C163
lgsdk                   C283	lgsdt                   C003
lgwbe                   FFFF	lgzot                   FF03
lhasw                   C3BE	lhatr                   C35E
lhats                   C09E	lhbdd                   C076
lhbdm                   C3D6	lhbfd                   C226
lhbfz                   C346	lhdue                   C29A
lhduj                   C25A	lhdvx                   C45A
lhdwr                   C20A	lhdxd                   C04A
lhdxe                   C1CA	lhedm                   C3B2
lheds                   C0B2	lhedy                   C1F2
lheeb                   C212	lhegf                   C022
lhegk                   C1E2	lhego                   C382
lhlrv                   FF02	ljypl                   0008
ljyzb                   0300	ljyzh                   0000
lkahc                   18A0	lnftz                   0323
lnimf                   266F	lnpsu                   18FE
lohyk                   7FFF	
