	                ;*********************************************************************************************************
	                ; 
	                ; Autogenerated by DizAssembler:
	                ;   https://github.com/codenjoyme/8080-emulator/blob/master/src/main/java/spec/assembler/DizAssembler.java
	                ; From: 'src/main/resources/lik/roms/02_mon-1m.bin' in range [C800:CFFF]
	                ;       and partially 'src/main/resources/lik/roms/03_mon-1m_basicLik.bin' in range: [D000:D23F]
	                ; In test: DizAssemblerTest.testDecompileTest_lik_romMonitor()
	                ; 
	                ;*********************************************************************************************************
	                
	                         CPU  8080
	                         .ORG 0C800h
	                ljyzh    EQU 00000h
	                ljyzj    EQU 00100h
	                lnoto    EQU 00CC6h
	                lnhhj    EQU 01323h
	                lnqez    EQU 01826h
	                lnitx    EQU 02477h
	                ljpog    EQU 027CDh
	                lounp    EQU 07E26h
	                lohyk    EQU 07FFFh
	                lcmxb    EQU 08B40h
	                lgcux    EQU 08B46h
	                lcakd    EQU 08B49h
	                lcjml    EQU 08B4Ch
	                lcmyh    EQU 08F40h
	                lgfwx    EQU 08F42h
	                lfttv    EQU 08F43h
	                lcjxn    EQU 08F44h
	                lbxul    EQU 08F45h
	                lfqtb    EQU 08F47h
	                lcalj    EQU 08F49h
	                lftjz    EQU 08F4Bh
	                lcjnr    EQU 08F4Ch
	                lbxkp    EQU 08F4Dh
	                lgcmh    EQU 08F4Eh
	                lcmvv    EQU 08F50h
	                lcast    EQU 08F51h
	                lcmvf    EQU 08F70h
	                lfqgd    EQU 08F7Fh
	                lcava    EQU 08F81h
	                lgfws    EQU 08F82h
	                lfttq    EQU 08F83h
	                lfqsw    EQU 08F87h
	                lgctm    EQU 08F96h
	                lcmlu    EQU 08F98h
	                lcais    EQU 08F99h
	                lcauo    EQU 08FE1h
	                lftte    EQU 08FE3h
	                lgftu    EQU 08FF2h
	                lcjko    EQU 08FFCh
	                lbxhm    EQU 08FFDh
	                lgcje    EQU 08FFEh
	                lfqgc    EQU 08FFFh
	                lgeaj    EQU 0903Eh
	                lcunh    EQU 0BC00h
	                lgozx    EQU 0C037h
	                ldlfj    EQU 0C170h
	                lgozr    EQU 0C337h
	                lgozv    EQU 0C377h
	                ldlfq    EQU 0C3D0h
	                lcysc    EQU 0C3F9h
	                lhehl    EQU 0C422h
	                lgpdp    EQU 0C427h
	                lhaui    EQU 0C4BEh
	                ldmvl    EQU 0D240h
	                lgunu    EQU 0EFFFh
	                ldsxd    EQU 0F000h
	                ldgub    EQU 0F001h
	                lhlvt    EQU 0F002h
	                lgzsr    EQU 0F003h
	                ldgqd    EQU 0FF01h
C800	31 FF 7F        ldldh:   LXI SP,lohyk
C803	21 00 C8                 LXI H,0C800h
C806	22 E1 8F                 SHLD lcauo
C809	21 20 D1                 LXI H,ldmvb
C80C	CD 6F C8                 CALL lgont
C80F	21 50 8F                 LXI H,lcmvv
C812	CD 37 C3                 CALL lgozr
C815	FE 0D                    CPI 00Dh
C817	CA 66 C8                 JZ lhbar
C81A	06 20                    MVI B,020h
C81C	36 00           ldhqf:   MVI M,000h
C81E	23                       INX H
C81F	05                       DCR B
C820	C2 1C C8                 JNZ ldhqf
C823	21 50 8F                 LXI H,lcmvv
C826	06 00                    MVI B,000h
C828	FE 08           ldksv:   CPI 008h
C82A	CA 8D C8                 JZ lcvpo
C82D	FE 18                    CPI 018h
C82F	CA 9B C8                 JZ lgrmm
C832	FE 5F                    CPI 05Fh
C834	CA A9 C8                 JZ lcyps
C837	FE 7F                    CPI 07Fh
C839	CA A9 C8                 JZ lcyps
C83C	FE 0D                    CPI 00Dh
C83E	CA C8 C8                 JZ ldkto
C841	FE 20                    CPI 020h
C843	DA 60 C8                 JC ldlcv
C846	FE 2A                    CPI 02Ah
C848	D2 4D C8                 JNC lcvpt
C84B	C6 10                    ADI 010h
C84D	FE 3C           lcvpt:   CPI 03Ch
C84F	C2 54 C8                 JNZ ldiaf
C852	D6 10                    SUI 010h
C854	77              ldiaf:   MOV M,A
C855	CD 7D C8                 CALL lcvmr
C858	23                       INX H
C859	04                       INR B
C85A	78                       MOV A,B
C85B	FE 20                    CPI 020h
C85D	CA AD C9                 JZ lcvpa
C860	CD 37 C3        ldlcv:   CALL lgozr
C863	C3 28 C8                 JMP ldksv
C866	21 50 8F        lhbar:   LXI H,lcmvv
C869	CD 6F C8                 CALL lgont
C86C	C3 60 C8                 JMP ldlcv
C86F	06 00           lgont:   MVI B,000h
C871	7E              lcyxh:   MOV A,M
C872	B7                       ORA A
C873	C8                       RZ
C874	4F                       MOV C,A
C875	CD 9D CE                 CALL lcvoa
C878	23                       INX H
C879	04                       INR B
C87A	C3 71 C8                 JMP lcyxh
C87D	F5              lcvmr:   PUSH PSW
C87E	0E 7F                    MVI C,07Fh
C880	CD 9D CE                 CALL lcvoa
C883	0E 08                    MVI C,008h
C885	CD 9D CE                 CALL lcvoa
C888	F1                       POP PSW
C889	4F                       MOV C,A
C88A	C3 9D CE                 JMP lcvoa
C88D	4F              lcvpo:   MOV C,A
C88E	78                       MOV A,B
C88F	B7                       ORA A
C890	CA 60 C8                 JZ ldlcv
C893	05                       DCR B
C894	2B                       DCX H
C895	CD 9D CE                 CALL lcvoa
C898	C3 60 C8                 JMP ldlcv
C89B	4F              lgrmm:   MOV C,A
C89C	7E                       MOV A,M
C89D	B7                       ORA A
C89E	CA 60 C8                 JZ ldlcv
C8A1	23                       INX H
C8A2	04                       INR B
C8A3	CD 9D CE                 CALL lcvoa
C8A6	C3 60 C8                 JMP ldlcv
C8A9	78              lcyps:   MOV A,B
C8AA	B7                       ORA A
C8AB	CA 60 C8                 JZ ldlcv
C8AE	7E                       MOV A,M
C8AF	B7                       ORA A
C8B0	C2 60 C8                 JNZ ldlcv
C8B3	05                       DCR B
C8B4	2B                       DCX H
C8B5	77                       MOV M,A
C8B6	0E 08                    MVI C,008h
C8B8	CD 9D CE                 CALL lcvoa
C8BB	0E 7F                    MVI C,07Fh
C8BD	CD 9D CE                 CALL lcvoa
C8C0	0E 08                    MVI C,008h
C8C2	CD 9D CE                 CALL lcvoa
C8C5	C3 60 C8                 JMP ldlcv
C8C8	21 E3 D0        ldkto:   LXI H,lgtqq
C8CB	3A 50 8F                 LDA lcmvv
C8CE	4F                       MOV C,A
C8CF	7E              lgooi:   MOV A,M
C8D0	23                       INX H
C8D1	B7                       ORA A
C8D2	CA AD C9                 JZ lcvpa
C8D5	B9                       CMP C
C8D6	CA DE C8                 JZ lhaoy
C8D9	23                       INX H
C8DA	23                       INX H
C8DB	C3 CF C8                 JMP lgooi
C8DE	5E              lhaoy:   MOV E,M
C8DF	23                       INX H
C8E0	56                       MOV D,M
C8E1	D5                       PUSH D
C8E2	21 50 8F                 LXI H,lcmvv
C8E5	7E                       MOV A,M
C8E6	FE 4F                    CPI 04Fh
C8E8	F5                       PUSH PSW
C8E9	CC 78 C9                 CZ ldkqp
C8EC	F1                       POP PSW
C8ED	FE 49                    CPI 049h
C8EF	F5                       PUSH PSW
C8F0	CC 78 C9                 CZ ldkqp
C8F3	F1                       POP PSW
C8F4	FE 47                    CPI 047h
C8F6	CC 78 C9                 CZ ldkqp
C8F9	01 00 00                 LXI B,ljyzh
C8FC	CD 1D C9                 CALL lcvnf
C8FF	D5                       PUSH D
C900	B7                       ORA A
C901	CA 17 C9                 JZ lgovr
C904	CD 1D C9                 CALL lcvnf
C907	D5                       PUSH D
C908	B7                       ORA A
C909	CA 18 C9                 JZ ldkrb
C90C	CD 1D C9                 CALL lcvnf
C90F	D5                       PUSH D
C910	B7                       ORA A
C911	C2 AD C9                 JNZ lcvpa
C914	C3 19 C9                 JMP lcynz
C917	C5              lgovr:   PUSH B
C918	C5              ldkrb:   PUSH B
C919	C1              lcynz:   POP B
C91A	D1                       POP D
C91B	E1                       POP H
C91C	C9                       RET
C91D	11 00 00        lcvnf:   LXI D,ljyzh
C920	23              ldlct:   INX H
C921	7E                       MOV A,M
C922	FE 2C                    CPI 02Ch
C924	CA 2B C9                 JZ lgrol
C927	B7                       ORA A
C928	C2 20 C9                 JNZ ldlct
C92B	E5              lgrol:   PUSH H
C92C	CD 4C C9                 CALL ldhsx
C92F	5F                       MOV E,A
C930	CD 4C C9                 CALL ldhsx
C933	CD 47 C9                 CALL lgoyh
C936	B3                       ORA E
C937	5F                       MOV E,A
C938	CD 4C C9                 CALL ldhsx
C93B	57                       MOV D,A
C93C	CD 4C C9                 CALL ldhsx
C93F	CD 47 C9                 CALL lgoyh
C942	B2                       ORA D
C943	57                       MOV D,A
C944	E1              ldict:   POP H
C945	7E                       MOV A,M
C946	C9                       RET
C947	07              lgoyh:   RLC
C948	07                       RLC
C949	07                       RLC
C94A	07                       RLC
C94B	C9                       RET
C94C	2B              ldhsx:   DCX H
C94D	D5                       PUSH D
C94E	11 50 8F                 LXI D,lcmvv
C951	CD 27 C4                 CALL lgpdp
C954	D1                       POP D
C955	CA 74 C9                 JZ ldhzr
C958	7E                       MOV A,M
C959	FE 2C                    CPI 02Ch
C95B	CA 74 C9                 JZ ldhzr
C95E	B7                       ORA A
C95F	CA 74 C9                 JZ ldhzr
C962	D6 30                    SUI 030h
C964	FE 0A                    CPI 00Ah
C966	D8                       RC
C967	D6 07                    SUI 007h
C969	FE 0A                    CPI 00Ah
C96B	DA AD C9                 JC lcvpa
C96E	FE 10                    CPI 010h
C970	D8                       RC
C971	C3 AD C9                 JMP lcvpa
C974	E1              ldhzr:   POP H
C975	C3 44 C9                 JMP ldict
C978	21 70 8F        ldkqp:   LXI H,lcmvf
C97B	0E 10                    MVI C,010h
C97D	36 00           lcvmt:   MVI M,000h
C97F	23                       INX H
C980	0D                       DCR C
C981	C2 7D C9                 JNZ lcvmt
C984	21 51 8F                 LXI H,lcast
C987	11 70 8F                 LXI D,lcmvf
C98A	0E 10                    MVI C,010h
C98C	7E                       MOV A,M
C98D	FE 3D                    CPI 03Dh
C98F	C2 AD C9                 JNZ lcvpa
C992	23                       INX H
C993	7E              lgrwk:   MOV A,M
C994	B7                       ORA A
C995	C8                       RZ
C996	FE 20                    CPI 020h
C998	DA AD C9                 JC lcvpa
C99B	FE 2C                    CPI 02Ch
C99D	C8                       RZ
C99E	FE 7F                    CPI 07Fh
C9A0	D2 AD C9                 JNC lcvpa
C9A3	12                       STAX D
C9A4	23                       INX H
C9A5	13                       INX D
C9A6	0D                       DCR C
C9A7	C2 93 C9                 JNZ lgrwk
C9AA	C3 AD C9                 JMP lcvpa
C9AD	21 3F D1        lcvpa:   LXI H,lgqdn
C9B0	CD 6F C8                 CALL lgont
C9B3	C3 00 C8                 JMP ldldh
C9B6	E5                       PUSH H
C9B7	21 00 C8                 LXI H,0C800h
C9BA	E3                       XTHL
C9BB	E9                       PCHL
C9BC	71              ldhpq:   MOV M,C
C9BD	CD 27 C4                 CALL lgpdp
C9C0	CA 00 C8                 JZ ldldh
C9C3	23                       INX H
C9C4	C3 BC C9                 JMP ldhpq
C9C7	CD CD C9                 CALL lcvpu
C9CA	C3 00 C8                 JMP ldldh
C9CD	7C              lcvpu:   MOV A,H
C9CE	B8                       CMP B
C9CF	DA E5 C9                 JC lcvza
C9D2	C2 DA C9                 JNZ lhdpu
C9D5	7D                       MOV A,L
C9D6	B9                       CMP C
C9D7	DA E5 C9                 JC lcvza
C9DA	7E              lhdpu:   MOV A,M
C9DB	02                       STAX B
C9DC	CD 27 C4                 CALL lgpdp
C9DF	C8                       RZ
C9E0	23                       INX H
C9E1	03                       INX B
C9E2	C3 DA C9                 JMP lhdpu
C9E5	CD F3 C9        lcvza:   CALL lgrvy
C9E8	1A              ldkta:   LDAX D
C9E9	02                       STAX B
C9EA	CD 27 C4                 CALL lgpdp
C9ED	C8                       RZ
C9EE	1B                       DCX D
C9EF	0B                       DCX B
C9F0	C3 E8 C9                 JMP ldkta
C9F3	E5              lgrvy:   PUSH H
C9F4	C5                       PUSH B
C9F5	B7                       ORA A
C9F6	7B                       MOV A,E
C9F7	95                       SUB L
C9F8	4F                       MOV C,A
C9F9	7A                       MOV A,D
C9FA	9C                       SBB H
C9FB	DA 05 CA                 JC lcvzd
C9FE	47                       MOV B,A
C9FF	E1                       POP H
CA00	09                       DAD B
CA01	E5                       PUSH H
CA02	C1                       POP B
CA03	E1                       POP H
CA04	C9                       RET
CA05	C1              lcvzd:   POP B
CA06	E1                       POP H
CA07	C9                       RET
CA08	73                       MOV M,E
CA09	C3 00 C8                 JMP ldldh
CA0C	7E              ldhsj:   MOV A,M
CA0D	B9                       CMP C
CA0E	CC 1B CA                 CZ lgrmf
CA11	CD 27 C4                 CALL lgpdp
CA14	CA 00 C8                 JZ ldldh
CA17	23                       INX H
CA18	C3 0C CA                 JMP ldhsj
CA1B	C5              lgrmf:   PUSH B
CA1C	E5                       PUSH H
CA1D	CD B5 CD                 CALL lcvxq
CA20	06 03                    MVI B,003h
CA22	CD BF CC        lheaz:   CALL lgomi
CA25	7E                       MOV A,M
CA26	CD 86 CC                 CALL lhbci
CA29	05                       DCR B
CA2A	23                       INX H
CA2B	C2 22 CA                 JNZ lheaz
CA2E	E1                       POP H
CA2F	C1                       POP B
CA30	C9                       RET
CA31	0A              lcywv:   LDAX B
CA32	BE                       CMP M
CA33	C4 41 CA                 CNZ lczab
CA36	CD 27 C4                 CALL lgpdp
CA39	CA 00 C8                 JZ ldldh
CA3C	23                       INX H
CA3D	03                       INX B
CA3E	C3 31 CA                 JMP lcywv
CA41	C5              lczab:   PUSH B
CA42	CD C7 CC                 CALL lgozk
CA45	CD 4F CA                 CALL lgoob
CA48	E3                       XTHL
CA49	CD 4F CA                 CALL lgoob
CA4C	E3                       XTHL
CA4D	C1                       POP B
CA4E	C9                       RET
CA4F	CD BF CC        lgoob:   CALL lgomi
CA52	CD CC CC                 CALL ldhua
CA55	CD BF CC                 CALL lgomi
CA58	7E                       MOV A,M
CA59	CD 86 CC                 CALL lhbci
CA5C	C3 BF CC                 JMP lgomi
CA5F	0E 1F           lgolp:   MVI C,01Fh
CA61	CD 9D CE                 CALL lcvoa
CA64	45                       MOV B,L
CA65	CD 50 CC                 CALL ldlcf
CA68	CD 50 CC                 CALL ldlcf
CA6B	CD C7 CC                 CALL lgozk
CA6E	22 4E 8F                 SHLD lgcmh
CA71	16 10                    MVI D,010h
CA73	CD F0 CB        lgrvp:   CALL ldlac
CA76	15                       DCR D
CA77	C2 73 CA                 JNZ lgrvp
CA7A	E5                       PUSH H
CA7B	21 35 D1                 LXI H,lcxot
CA7E	CD 6F C8                 CALL lgont
CA81	E1                       POP H
CA82	CD 37 C3        lhebo:   CALL lgozr
CA85	FE 0D                    CPI 00Dh
CA87	CA 5F CA                 JZ lgolp
CA8A	11 00 00                 LXI D,ljyzh
CA8D	FE 08                    CPI 008h
CA8F	CA A0 CA                 JZ ldlci
CA92	FE 18                    CPI 018h
CA94	C2 00 C8                 JNZ ldldh
CA97	E5                       PUSH H
CA98	21 26 7E                 LXI H,lounp
CA9B	3E FF                    MVI A,0FFh
CA9D	C3 A5 CA                 JMP lcvym
CAA0	AF              ldlci:   XRA A
CAA1	E5                       PUSH H
CAA2	21 26 18                 LXI H,lnqez
CAA5	22 49 8F        lcvym:   SHLD lcalj
CAA8	21 26 18                 LXI H,lnqez
CAAB	22 45 8F                 SHLD lbxul
CAAE	21 26 7E                 LXI H,lounp
CAB1	22 47 8F                 SHLD lfqtb
CAB4	32 4B 8F                 STA lftjz
CAB7	2A 49 8F        lgouq:   LHLD lcalj
CABA	22 FC 8F                 SHLD lcjko
CABD	3A 4B 8F                 LDA lftjz
CAC0	67                       MOV H,A
CAC1	CD 37 C3                 CALL lgozr
CAC4	FE 0D                    CPI 00Dh
CAC6	CA E6 CB                 JZ lhbak
CAC9	FE 08                    CPI 008h
CACB	CA 68 CB                 JZ ldkst
CACE	FE 18                    CPI 018h
CAD0	CA 80 CB                 JZ ldlda
CAD3	FE 19                    CPI 019h
CAD5	CA 5E CB                 JZ lhaot
CAD8	FE 1A                    CPI 01Ah
CADA	CA 63 CB                 JZ lgryd
CADD	4F                       MOV C,A
CADE	3A 4B 8F                 LDA lftjz
CAE1	FE FF                    CPI 0FFh
CAE3	CA 44 CB                 JZ ldicl
CAE6	79                       MOV A,C
CAE7	FE 20                    CPI 020h
CAE9	DA 4E CB                 JC lharf
CAEC	FE 2A                    CPI 02Ah
CAEE	D2 F6 CA                 JNC lhaxw
CAF1	C6 10                    ADI 010h
CAF3	C3 0C CB                 JMP ldhsl
CAF6	FE 30           lhaxw:   CPI 030h
CAF8	DA 4E CB                 JC lharf
CAFB	FE 3A                    CPI 03Ah
CAFD	DA 0C CB                 JC ldhsl
CB00	FE 41                    CPI 041h
CB02	DA 4E CB                 JC lharf
CB05	FE 47                    CPI 047h
CB07	D2 4E CB                 JNC lharf
CB0A	D6 07                    SUI 007h
CB0C	D6 30           ldhsl:   SUI 030h
CB0E	4F                       MOV C,A
CB0F	3A 4B 8F                 LDA lftjz
CB12	B7                       ORA A
CB13	79                       MOV A,C
CB14	06 F0                    MVI B,0F0h
CB16	C2 20 CB                 JNZ ldlcl
CB19	06 0F                    MVI B,00Fh
CB1B	07                       RLC
CB1C	07                       RLC
CB1D	07                       RLC
CB1E	07                       RLC
CB1F	4F                       MOV C,A
CB20	2A 4E 8F        ldlcl:   LHLD lgcmh
CB23	19                       DAD D
CB24	7E                       MOV A,M
CB25	A0                       ANA B
CB26	B1                       ORA C
CB27	77                       MOV M,A
CB28	7E                       MOV A,M
CB29	2A 45 8F                 LHLD lbxul
CB2C	22 FC 8F                 SHLD lcjko
CB2F	F5                       PUSH PSW
CB30	CD B1 CC                 CALL lcyyi
CB33	F1                       POP PSW
CB34	2A 47 8F                 LHLD lfqtb
CB37	22 FC 8F                 SHLD lcjko
CB3A	CD 3E CC                 CALL lhapl
CB3D	3A 4B 8F                 LDA lftjz
CB40	67                       MOV H,A
CB41	C3 80 CB                 JMP ldlda
CB44	FE 20           ldicl:   CPI 020h
CB46	DA 4E CB                 JC lharf
CB49	06 00                    MVI B,000h
CB4B	C3 20 CB                 JMP ldlcl
CB4E	3E FF           lharf:   MVI A,0FFh
CB50	32 F2 8F                 STA lgftu
CB53	CD 70 C1                 CALL ldlfj
CB56	3E 40                    MVI A,040h
CB58	32 F2 8F                 STA lgftu
CB5B	C3 B7 CA                 JMP lgouq
CB5E	06 F8           lhaot:   MVI B,0F8h
CB60	C3 95 CB                 JMP lcvws
CB63	06 08           lgryd:   MVI B,008h
CB65	C3 95 CB                 JMP lcvws
CB68	06 FF           ldkst:   MVI B,0FFh
CB6A	3A 4B 8F                 LDA lftjz
CB6D	FE FF                    CPI 0FFh
CB6F	CA 95 CB                 JZ lcvws
CB72	B7                       ORA A
CB73	3E 01                    MVI A,001h
CB75	CA 7A CB                 JZ lhdox
CB78	AF                       XRA A
CB79	47                       MOV B,A
CB7A	32 4B 8F        lhdox:   STA lftjz
CB7D	C3 95 CB                 JMP lcvws
CB80	06 01           ldlda:   MVI B,001h
CB82	3A 4B 8F                 LDA lftjz
CB85	FE FF                    CPI 0FFh
CB87	CA 95 CB                 JZ lcvws
CB8A	B7                       ORA A
CB8B	3E 00                    MVI A,000h
CB8D	C2 7A CB                 JNZ lhdox
CB90	47                       MOV B,A
CB91	3C                       INR A
CB92	C3 7A CB                 JMP lhdox
CB95	7B              lcvws:   MOV A,E
CB96	80                       ADD B
CB97	FE 80                    CPI 080h
CB99	DA A3 CB                 JC lgrxy
CB9C	7C                       MOV A,H
CB9D	32 4B 8F                 STA lftjz
CBA0	C3 4E CB                 JMP lharf
CBA3	5F              lgrxy:   MOV E,A
CBA4	D5                       PUSH D
CBA5	E6 07                    ANI 007h
CBA7	47                       MOV B,A
CBA8	80                       ADD B
CBA9	80                       ADD B
CBAA	47                       MOV B,A
CBAB	C6 7E                    ADI 07Eh
CBAD	57                       MOV D,A
CBAE	78                       MOV A,B
CBAF	07                       RLC
CBB0	07                       RLC
CBB1	C6 18                    ADI 018h
CBB3	67                       MOV H,A
CBB4	7B                       MOV A,E
CBB5	E6 78                    ANI 078h
CBB7	0F                       RRC
CBB8	0F                       RRC
CBB9	0F                       RRC
CBBA	47                       MOV B,A
CBBB	80                       ADD B
CBBC	80                       ADD B
CBBD	80                       ADD B
CBBE	80                       ADD B
CBBF	80                       ADD B
CBC0	80                       ADD B
CBC1	80                       ADD B
CBC2	80                       ADD B
CBC3	80                       ADD B
CBC4	C6 26                    ADI 026h
CBC6	5F                       MOV E,A
CBC7	6F                       MOV L,A
CBC8	22 45 8F                 SHLD lbxul
CBCB	EB                       XCHG
CBCC	22 47 8F                 SHLD lfqtb
CBCF	D1                       POP D
CBD0	3A 4B 8F                 LDA lftjz
CBD3	FE FF                    CPI 0FFh
CBD5	CA E0 CB                 JZ ldlco
CBD8	2A 45 8F                 LHLD lbxul
CBDB	47                       MOV B,A
CBDC	80                       ADD B
CBDD	80                       ADD B
CBDE	84                       ADD H
CBDF	67                       MOV H,A
CBE0	22 49 8F        ldlco:   SHLD lcalj
CBE3	C3 B7 CA                 JMP lgouq
CBE6	21 C6 0C        lhbak:   LXI H,lnoto
CBE9	22 FC 8F                 SHLD lcjko
CBEC	E1                       POP H
CBED	C3 82 CA                 JMP lhebo
CBF0	CD CC CC        ldlac:   CALL ldhua
CBF3	0E 3A                    MVI C,03Ah
CBF5	CD 9D CE                 CALL lcvoa
CBF8	06 08                    MVI B,008h
CBFA	3E 7E                    MVI A,07Eh
CBFC	32 4D 8F                 STA lbxkp
CBFF	3E 18                    MVI A,018h
CC01	32 4C 8F                 STA lcjnr
CC04	3A 4C 8F        ldidt:   LDA lcjnr
CC07	32 FD 8F                 STA lbxhm
CC0A	C6 0C                    ADI 00Ch
CC0C	32 4C 8F                 STA lcjnr
CC0F	7E                       MOV A,M
CC10	CD 86 CC                 CALL lhbci
CC13	3A 4D 8F                 LDA lbxkp
CC16	32 FD 8F                 STA lbxhm
CC19	C6 03                    ADI 003h
CC1B	32 4D 8F                 STA lbxkp
CC1E	7E                       MOV A,M
CC1F	CD 2B CC                 CALL lgrpp
CC22	23                       INX H
CC23	05                       DCR B
CC24	C2 04 CC                 JNZ ldidt
CC27	CD C7 CC                 CALL lgozk
CC2A	C9                       RET
CC2B	FE 20           lgrpp:   CPI 020h
CC2D	DA 39 CC                 JC lcyon
CC30	FE 7F                    CPI 07Fh
CC32	D2 39 CC                 JNC lcyon
CC35	4F                       MOV C,A
CC36	C3 9D CE                 JMP lcvoa
CC39	0E 2E           lcyon:   MVI C,02Eh
CC3B	C3 9D CE                 JMP lcvoa
CC3E	FE 20           lhapl:   CPI 020h
CC40	DA 4B CC                 JC lgrqj
CC43	FE 7F                    CPI 07Fh
CC45	D2 4B CC                 JNC lgrqj
CC48	C3 7D C8                 JMP lcvmr
CC4B	3E 2E           lgrqj:   MVI A,02Eh
CC4D	C3 7D C8                 JMP lcvmr
CC50	16 08           ldlcf:   MVI D,008h
CC52	3E 7E                    MVI A,07Eh
CC54	32 4D 8F                 STA lbxkp
CC57	3E 18                    MVI A,018h
CC59	32 4C 8F                 STA lcjnr
CC5C	78              ldhrp:   MOV A,B
CC5D	04                       INR B
CC5E	CD A5 CC                 CALL lcwaa
CC61	4F                       MOV C,A
CC62	3A 4C 8F                 LDA lcjnr
CC65	32 FD 8F                 STA lbxhm
CC68	C6 0C                    ADI 00Ch
CC6A	32 4C 8F                 STA lcjnr
CC6D	CD 9D CE                 CALL lcvoa
CC70	3A 4D 8F                 LDA lbxkp
CC73	32 FD 8F                 STA lbxhm
CC76	C6 03                    ADI 003h
CC78	32 4D 8F                 STA lbxkp
CC7B	CD 9D CE                 CALL lcvoa
CC7E	15                       DCR D
CC7F	C2 5C CC                 JNZ ldhrp
CC82	CD C7 CC                 CALL lgozk
CC85	C9                       RET
CC86	D5              lhbci:   PUSH D
CC87	C5                       PUSH B
CC88	CD 96 CC                 CALL lhazw
CC8B	4A                       MOV C,D
CC8C	CD 90 CE                 CALL ldlbs
CC8F	4B                       MOV C,E
CC90	CD 90 CE                 CALL ldlbs
CC93	C1                       POP B
CC94	D1                       POP D
CC95	C9                       RET
CC96	5F              lhazw:   MOV E,A
CC97	0F                       RRC
CC98	0F                       RRC
CC99	0F                       RRC
CC9A	0F                       RRC
CC9B	CD A5 CC                 CALL lcwaa
CC9E	57                       MOV D,A
CC9F	7B                       MOV A,E
CCA0	CD A5 CC                 CALL lcwaa
CCA3	5F                       MOV E,A
CCA4	C9                       RET
CCA5	E6 0F           lcwaa:   ANI 00Fh
CCA7	FE 0A                    CPI 00Ah
CCA9	DA AE CC                 JC lharw
CCAC	C6 07                    ADI 007h
CCAE	C6 30           lharw:   ADI 030h
CCB0	C9                       RET
CCB1	D5              lcyyi:   PUSH D
CCB2	CD 96 CC                 CALL lhazw
CCB5	7A                       MOV A,D
CCB6	CD 7D C8                 CALL lcvmr
CCB9	7B                       MOV A,E
CCBA	CD 7D C8                 CALL lcvmr
CCBD	D1                       POP D
CCBE	C9                       RET
CCBF	C5              lgomi:   PUSH B
CCC0	0E 20                    MVI C,020h
CCC2	CD 9D CE                 CALL lcvoa
CCC5	C1                       POP B
CCC6	C9                       RET
CCC7	0E 0A           lgozk:   MVI C,00Ah
CCC9	C3 9D CE                 JMP lcvoa
CCCC	7C              ldhua:   MOV A,H
CCCD	CD 86 CC                 CALL lhbci
CCD0	7D                       MOV A,L
CCD1	C3 86 CC                 JMP lhbci
CCD4	0E FF           ldibk:   MVI C,0FFh
CCD6	AF              lhbaa:   XRA A
CCD7	CD D0 C3                 CALL ldlfq
CCDA	0D                       DCR C
CCDB	C2 D6 CC                 JNZ lhbaa
CCDE	3E E6                    MVI A,0E6h
CCE0	CD D0 C3                 CALL ldlfq
CCE3	7D                       MOV A,L
CCE4	CD D0 C3                 CALL ldlfq
CCE7	7C                       MOV A,H
CCE8	CD D0 C3                 CALL ldlfq
CCEB	7B                       MOV A,E
CCEC	CD D0 C3                 CALL ldlfq
CCEF	7A                       MOV A,D
CCF0	CD D0 C3                 CALL ldlfq
CCF3	7E              lgrxc:   MOV A,M
CCF4	CD D0 C3                 CALL ldlfq
CCF7	CD 27 C4                 CALL lgpdp
CCFA	C8                       RZ
CCFB	23                       INX H
CCFC	C3 F3 CC                 JMP lgrxc
CCFF	E5              lgomm:   PUSH H
CD00	21 00 BC                 LXI H,lcunh
CD03	22 7F 8F                 SHLD lfqgd
CD06	79                       MOV A,C
CD07	B7                       ORA A
CD08	CA 0E CD                 JZ lhasp
CD0B	32 FE 8F                 STA lgcje
CD0E	E1              lhasp:   POP H
CD0F	E5                       PUSH H
CD10	CD 4B CD                 CALL lgrql
CD13	22 81 8F                 SHLD lcava
CD16	21 70 8F                 LXI H,lcmvf
CD19	D5                       PUSH D
CD1A	11 82 8F                 LXI D,lgfws
CD1D	CD D4 CC                 CALL ldibk
CD20	D1                       POP D
CD21	E1                       POP H
CD22	C3 D4 CC                 JMP ldibk
CD25	3A 40 8B                 LDA lcmxb
CD28	FE 31                    CPI 031h
CD2A	CC 49 8B                 CZ lcakd
CD2D	CD FF CC                 CALL lgomm
CD30	C3 00 C8                 JMP ldldh
CD33	CD D4 CC                 CALL ldibk
CD36	C3 00 C8                 JMP ldldh
CD39	2A FE 8F        lcyop:   LHLD lgcje
CD3C	C3 5D CD                 JMP lcvop
CD3F	CD 4B CD                 CALL lgrql
CD42	C3 00 C8                 JMP ldldh
CD45	CD 39 CD                 CALL lcyop
CD48	C3 00 C8                 JMP ldldh
CD4B	01 00 00        lgrql:   LXI B,ljyzh
CD4E	7E              lhast:   MOV A,M
CD4F	81                       ADD C
CD50	4F                       MOV C,A
CD51	78                       MOV A,B
CD52	8E                       ADC M
CD53	47                       MOV B,A
CD54	CD 27 C4                 CALL lgpdp
CD57	23                       INX H
CD58	C2 4E CD                 JNZ lhast
CD5B	C5                       PUSH B
CD5C	E1                       POP H
CD5D	C3 B5 CD        lcvop:   JMP lcvxq
CD60	E5              ldled:   PUSH H
CD61	D5                       PUSH D
CD62	21 83 8F        lhect:   LXI H,lfttq
CD65	11 99 8F                 LXI D,lcais
CD68	CD 22 C4                 CALL lhehl
CD6B	2A 96 8F                 LHLD lgctm
CD6E	11 00 BC                 LXI D,lcunh
CD71	CD 27 C4                 CALL lgpdp
CD74	C2 62 CD                 JNZ lhect
CD77	CD 8E CD                 CALL lhaso
CD7A	21 70 8F                 LXI H,lcmvf
CD7D	11 87 8F                 LXI D,lfqsw
CD80	1A              ldleo:   LDAX D
CD81	B7                       ORA A
CD82	CA 97 CD                 JZ lgoww
CD85	BE                       CMP M
CD86	23                       INX H
CD87	13                       INX D
CD88	CA 80 CD                 JZ ldleo
CD8B	C3 62 CD                 JMP lhect
CD8E	21 87 8F        lhaso:   LXI H,lfqsw
CD91	CD C7 CC                 CALL lgozk
CD94	C3 6F C8                 JMP lgont
CD97	21 3A D1        lgoww:   LXI H,lhfhj
CD9A	CD 6F C8                 CALL lgont
CD9D	D1                       POP D
CD9E	E1                       POP H
CD9F	CD DC CD                 CALL ldhrq
CDA2	CA F9 C3                 JZ lcysc
CDA5	E5                       PUSH H
CDA6	23                       INX H
CDA7	23                       INX H
CDA8	23                       INX H
CDA9	23                       INX H
CDAA	22 E3 8F                 SHLD lftte
CDAD	13                       INX D
CDAE	13                       INX D
CDAF	13                       INX D
CDB0	13                       INX D
CDB1	E1                       POP H
CDB2	C3 22 C4                 JMP lhehl
CDB5	CD C7 CC        lcvxq:   CALL lgozk
CDB8	C3 CC CC                 JMP ldhua
CDBB	CD E2 CD                 CALL lhecs
CDBE	C3 00 C8                 JMP ldldh
CDC1	CD E2 CD                 CALL lhecs
CDC4	E5                       PUSH H
CDC5	21 00 C8                 LXI H,0C800h
CDC8	E3                       XTHL
CDC9	E9                       PCHL
CDCA	CD DC CD                 CALL ldhrq
CDCD	CA D6 CD                 JZ lhbac
CDD0	CD 22 C4                 CALL lhehl
CDD3	C3 00 C8                 JMP ldldh
CDD6	CD F9 C3        lhbac:   CALL lcysc
CDD9	C3 00 C8                 JMP ldldh
CDDC	AF              ldhrq:   XRA A
CDDD	B4                       ORA H
CDDE	B5                       ORA L
CDDF	B2                       ORA D
CDE0	B3                       ORA E
CDE1	C9                       RET
CDE2	3A 40 8B        lhecs:   LDA lcmxb
CDE5	FE 31                    CPI 031h
CDE7	CC 4C 8B                 CZ lcjml
CDEA	79                       MOV A,C
CDEB	B7                       ORA A
CDEC	CA F2 CD                 JZ lheag
CDEF	32 FF 8F                 STA lfqgc
CDF2	CD 60 CD        lheag:   CALL ldled
CDF5	2A E3 8F                 LHLD lftte
CDF8	E5                       PUSH H
CDF9	CD B5 CD                 CALL lcvxq
CDFC	EB                       XCHG
CDFD	CD B5 CD                 CALL lcvxq
CE00	E5                       PUSH H
CE01	2A 98 8F                 LHLD lcmlu
CE04	CD B5 CD                 CALL lcvxq
CE07	E3                       XTHL
CE08	EB                       XCHG
CE09	CD 4B CD                 CALL lgrql
CE0C	EB                       XCHG
CE0D	E3                       XTHL
CE0E	EB                       XCHG
CE0F	CD 27 C4                 CALL lgpdp
CE12	D1                       POP D
CE13	C2 AD C9                 JNZ lcvpa
CE16	E1                       POP H
CE17	C9                       RET
CE18	0E 00                    MVI C,000h
CE1A	CD 2D CE                 CALL lcvpx
CE1D	0E FF                    MVI C,0FFh
CE1F	CD 2D CE                 CALL lcvpx
CE22	C3 00 C8                 JMP ldldh
CE25	0E FF                    MVI C,0FFh
CE27	CD 2D CE                 CALL lcvpx
CE2A	C3 00 C8                 JMP ldldh
CE2D	3E FF           lcvpx:   MVI A,0FFh
CE2F	CD 77 C3                 CALL lgozv
CE32	6F                       MOV L,A
CE33	3E 08                    MVI A,008h
CE35	CD 77 C3                 CALL lgozv
CE38	67                       MOV H,A
CE39	3E 08                    MVI A,008h
CE3B	CD 77 C3                 CALL lgozv
CE3E	5F                       MOV E,A
CE3F	3E 08                    MVI A,008h
CE41	CD 77 C3                 CALL lgozv
CE44	57                       MOV D,A
CE45	3E 08           lcwan:   MVI A,008h
CE47	CD 77 C3                 CALL lgozv
CE4A	96                       SUB M
CE4B	A1                       ANA C
CE4C	C2 AD C9                 JNZ lcvpa
CE4F	CD 27 C4                 CALL lgpdp
CE52	C8                       RZ
CE53	23                       INX H
CE54	C3 45 CE                 JMP lcwan
CE57	21 40 D2                 LXI H,ldmvl
CE5A	11 FF EF                 LXI D,lgunu
CE5D	01 00 00                 LXI B,ljyzh
CE60	CD CD C9                 CALL lcvpu
CE63	C7                       RST 0
CE64	3E 90                    MVI A,090h
CE66	32 03 F0                 STA lgzsr
CE69	7C              lcyqv:   MOV A,H
CE6A	32 02 F0                 STA lhlvt
CE6D	7D                       MOV A,L
CE6E	32 01 F0                 STA ldgub
CE71	3A 00 F0                 LDA ldsxd
CE74	02                       STAX B
CE75	CD 27 C4                 CALL lgpdp
CE78	CA 00 C8                 JZ ldldh
CE7B	23                       INX H
CE7C	03                       INX B
CE7D	C3 69 CE                 JMP lcyqv
CE80	3A 40 8B                 LDA lcmxb
CE83	FE 31                    CPI 031h
CE85	C2 AD C9                 JNZ lcvpa
CE88	7D                       MOV A,L
CE89	B7                       ORA A
CE8A	CA 40 8B                 JZ lcmxb
CE8D	C3 46 8B                 JMP lgcux
CE90	3A 01 FF        ldlbs:   LDA ldgqd
CE93	FE 7C                    CPI 07Ch
CE95	DA 00 C8                 JC ldldh
CE98	FE 80                    CPI 080h
CE9A	DC 37 C3                 CC lgozr
CE9D	79              lcvoa:   MOV A,C
CE9E	FE 0A                    CPI 00Ah
CEA0	C2 37 C0                 JNZ lgozx
CEA3	3A FC 8F                 LDA lcjko
CEA6	FE EE                    CPI 0EEh
CEA8	DA 37 C0                 JC lgozx
CEAB	0E 0D                    MVI C,00Dh
CEAD	D5                       PUSH D
CEAE	E5                       PUSH H
CEAF	2E 00                    MVI L,000h
CEB1	1E 0A                    MVI E,00Ah
CEB3	26 90           lgrwq:   MVI H,090h
CEB5	54                       MOV D,H
CEB6	1A              lhayy:   LDAX D
CEB7	77                       MOV M,A
CEB8	24                       INR H
CEB9	14                       INR D
CEBA	7A                       MOV A,D
CEBB	FE C0                    CPI 0C0h
CEBD	C2 B6 CE                 JNZ lhayy
CEC0	2C                       INR L
CEC1	1C                       INR E
CEC2	C2 B3 CE                 JNZ lgrwq
CEC5	E1                       POP H
CEC6	D1                       POP D
CEC7	C3 37 C0                 JMP lgozx
CECA	22 40 8F        lhdtc:   SHLD lcmyh
CECD	AF                       XRA A
CECE	32 4C 8F                 STA lcjnr
CED1	4E                       MOV C,M
CED2	79                       MOV A,C
CED3	CD 76 CF                 CALL lhazf
CED6	E5                       PUSH H
CED7	2A 40 8F                 LHLD lcmyh
CEDA	CD B5 CD                 CALL lcvxq
CEDD	CD BF CC                 CALL lgomi
CEE0	48                       MOV C,B
CEE1	CD BF CC        lczaq:   CALL lgomi
CEE4	7E                       MOV A,M
CEE5	CD 86 CC                 CALL lhbci
CEE8	0D                       DCR C
CEE9	23                       INX H
CEEA	C2 E1 CE                 JNZ lczaq
CEED	3E 30                    MVI A,030h
CEEF	32 FD 8F                 STA lbxhm
CEF2	2A 40 8F                 LHLD lcmyh
CEF5	48                       MOV C,B
CEF6	7E              lhazc:   MOV A,M
CEF7	C5                       PUSH B
CEF8	CD 2B CC                 CALL lgrpp
CEFB	C1                       POP B
CEFC	23                       INX H
CEFD	0D                       DCR C
CEFE	C2 F6 CE                 JNZ lhazc
CF01	3E 3F                    MVI A,03Fh
CF03	32 FD 8F                 STA lbxhm
CF06	21 82 D1                 LXI H,lhfug
CF09	15              lcyrj:   DCR D
CF0A	CA 16 CF                 JZ lhazr
CF0D	7E              lcvqp:   MOV A,M
CF0E	23                       INX H
CF0F	17                       RAL
CF10	D2 0D CF                 JNC lcvqp
CF13	C3 09 CF                 JMP lcyrj
CF16	CD 68 CF        lhazr:   CALL ldktz
CF19	CD BF CC                 CALL lgomi
CF1C	E1                       POP H
CF1D	1C                       INR E
CF1E	1D              lhapv:   DCR E
CF1F	CA 2B CF                 JZ lgrpj
CF22	7E              lhech:   MOV A,M
CF23	23                       INX H
CF24	17                       RAL
CF25	DA 1E CF                 JC lhapv
CF28	C3 22 CF                 JMP lhech
CF2B	CD 68 CF        lgrpj:   CALL ldktz
CF2E	78                       MOV A,B
CF2F	2A 40 8F                 LHLD lcmyh
CF32	23                       INX H
CF33	3D                       DCR A
CF34	CA 59 CF                 JZ lcypb
CF37	F5                       PUSH PSW
CF38	3A 4C 8F                 LDA lcjnr
CF3B	B7                       ORA A
CF3C	0E 20                    MVI C,020h
CF3E	CA 43 CF                 JZ lgrzz
CF41	0E 2C                    MVI C,02Ch
CF43	CD 9D CE        lgrzz:   CALL lcvoa
CF46	F1                       POP PSW
CF47	3D                       DCR A
CF48	CA 55 CF                 JZ lcvyd
CF4B	5E                       MOV E,M
CF4C	23                       INX H
CF4D	56                       MOV D,M
CF4E	EB                       XCHG
CF4F	CD CC CC                 CALL ldhua
CF52	C3 59 CF                 JMP lcypb
CF55	7E              lcvyd:   MOV A,M
CF56	CD 86 CC                 CALL lhbci
CF59	2A 40 8F        lcypb:   LHLD lcmyh
CF5C	16 00                    MVI D,000h
CF5E	58                       MOV E,B
CF5F	19                       DAD D
CF60	C3 CA CE                 JMP lhdtc
CF63	14                       INR D
CF64	14                       INR D
CF65	14                       INR D
CF66	14                       INR D
CF67	C9                       RET
CF68	7E              ldktz:   MOV A,M
CF69	E6 7F                    ANI 07Fh
CF6B	4F                       MOV C,A
CF6C	CD 9D CE                 CALL lcvoa
CF6F	7E                       MOV A,M
CF70	23                       INX H
CF71	17                       RAL
CF72	D2 68 CF                 JNC ldktz
CF75	C9                       RET
CF76	06 01           lhazf:   MVI B,001h
CF78	11 00 01                 LXI D,ljyzj
CF7B	21 6A D1                 LXI H,lhfjz
CF7E	B7                       ORA A
CF7F	C8                       RZ
CF80	14                       INR D
CF81	FE 76                    CPI 076h
CF83	C8                       RZ
CF84	14                       INR D
CF85	FE 40                    CPI 040h
CF87	DA B7 CF                 JC lgovy
CF8A	FE 80                    CPI 080h
CF8C	D2 46 D0                 JNC lhctp
CF8F	21 47 D1                 LXI H,lgqqp
CF92	E5                       PUSH H
CF93	E6 38                    ANI 038h
CF95	0F                       RRC
CF96	0F                       RRC
CF97	0F                       RRC
CF98	85                       ADD L
CF99	6F                       MOV L,A
CF9A	7E                       MOV A,M
CF9B	E6 7F                    ANI 07Fh
CF9D	32 42 8F                 STA lgfwx
CFA0	3E 2C                    MVI A,02Ch
CFA2	32 43 8F                 STA lfttv
CFA5	79                       MOV A,C
CFA6	E6 07                    ANI 007h
CFA8	E1                       POP H
CFA9	85                       ADD L
CFAA	6F                       MOV L,A
CFAB	7E                       MOV A,M
CFAC	F6 80                    ORI 080h
CFAE	32 44 8F                 STA lcjxn
CFB1	21 42 8F                 LXI H,lgfwx
CFB4	1E 00                    MVI E,000h
CFB6	C9                       RET
CFB7	14              lgovy:   INR D
CFB8	E6 0F                    ANI 00Fh
CFBA	C8                       RZ
CFBB	FE 08                    CPI 008h
CFBD	C8                       RZ
CFBE	04                       INR B
CFBF	04                       INR B
CFC0	79                       MOV A,C
CFC1	14                       INR D
CFC2	FE 22                    CPI 022h
CFC4	C8                       RZ
CFC5	14                       INR D
CFC6	FE 32                    CPI 032h
CFC8	C8                       RZ
CFC9	14                       INR D
CFCA	FE 2A                    CPI 02Ah
CFCC	C8                       RZ
CFCD	14                       INR D
CFCE	FE 3A                    CPI 03Ah
CFD0	C8                       RZ
CFD1	05                       DCR B
CFD2	05                       DCR B
CFD3	14                       INR D
CFD4	FE 07                    CPI 007h
CFD6	C8                       RZ
CFD7	14                       INR D
CFD8	FE 17                    CPI 017h
CFDA	C8                       RZ
CFDB	14                       INR D
CFDC	FE 27                    CPI 027h
CFDE	C8                       RZ
CFDF	14                       INR D
CFE0	FE 37                    CPI 037h
CFE2	C8                       RZ
CFE3	14                       INR D
CFE4	FE 0F                    CPI 00Fh
CFE6	C8                       RZ
CFE7	14                       INR D
CFE8	FE 1F                    CPI 01Fh
CFEA	C8                       RZ
CFEB	14                       INR D
CFEC	FE 2F                    CPI 02Fh
CFEE	C8                       RZ
CFEF	14                       INR D
CFF0	FE 3F                    CPI 03Fh
CFF2	C8                       RZ
CFF3	21 4F D1                 LXI H,lgqgt
CFF6	E6 30                    ANI 030h
CFF8	0F                       RRC
CFF9	0F                       RRC
CFFA	0F                       RRC
CFFB	0F                       RRC
CFFC	5F                       MOV E,A
CFFD	79                       MOV A,C
CFFE	E6 0F                    ANI 00Fh
D000	31 FF 7F                 LXI SP,lohyk
D003	21 00 C8                 LXI H,0C800h
D006	22 E1 8F                 SHLD lcauo
D009	21 20 D1                 LXI H,ldmvb
D00C	CD 6F C8                 CALL lgont
D00F	21 50 8F                 LXI H,lcmvv
D012	CD 37 C3                 CALL lgozr
D015	FE 0D                    CPI 00Dh
D017	CA 66 C8                 JZ lhbar
D01A	06 20                    MVI B,020h
D01C	36 00                    MVI M,000h
D01E	23                       INX H
D01F	05                       DCR B
D020	C2 1C C8                 JNZ ldhqf
D023	21 50 8F                 LXI H,lcmvv
D026	06 00                    MVI B,000h
D028	FE 08                    CPI 008h
D02A	CA 8D C8                 JZ lcvpo
D02D	FE 18                    CPI 018h
D02F	CA 9B C8                 JZ lgrmm
D032	FE 5F                    CPI 05Fh
D034	CA A9 C8                 JZ lcyps
D037	FE 7F                    CPI 07Fh
D039	CA A9 C8                 JZ lcyps
D03C	FE 0D                    CPI 00Dh
D03E	CA C8 C8                 JZ ldkto
D041	FE 20                    CPI 020h
D043	DA 60 C8                 JC ldlcv
D046	FE 2A           lhctp:   CPI 02Ah
D048	D2 4D C8                 JNC lcvpt
D04B	C6 10                    ADI 010h
D04D	FE 3C                    CPI 03Ch
D04F	C2 54 C8                 JNZ ldiaf
D052	D6 10                    SUI 010h
D054	77                       MOV M,A
D055	CD 7D C8                 CALL lcvmr
D058	23                       INX H
D059	04                       INR B
D05A	78                       MOV A,B
D05B	FE 20                    CPI 020h
D05D	CA AD C9                 JZ lcvpa
D060	CD 37 C3                 CALL lgozr
D063	C3 28 C8                 JMP ldksv
D066	21 50 8F                 LXI H,lcmvv
D069	CD 6F C8                 CALL lgont
D06C	C3 60 C8                 JMP ldlcv
D06F	06 00                    MVI B,000h
D071	7E                       MOV A,M
D072	B7                       ORA A
D073	C8                       RZ
D074	4F                       MOV C,A
D075	CD 9D CE                 CALL lcvoa
D078	23                       INX H
D079	04                       INR B
D07A	C3 71 C8                 JMP lcyxh
D07D	F5                       PUSH PSW
D07E	0E 7F                    MVI C,07Fh
D080	CD 9D CE                 CALL lcvoa
D083	0E 08                    MVI C,008h
D085	CD 9D CE                 CALL lcvoa
D088	F1                       POP PSW
D089	4F                       MOV C,A
D08A	C3 9D CE                 JMP lcvoa
D08D	4F                       MOV C,A
D08E	78                       MOV A,B
D08F	B7                       ORA A
D090	CA 60 C8                 JZ ldlcv
D093	05                       DCR B
D094	2B                       DCX H
D095	CD 9D CE                 CALL lcvoa
D098	C3 60 C8                 JMP ldlcv
D09B	4F                       MOV C,A
D09C	7E                       MOV A,M
D09D	B7                       ORA A
D09E	CA 60 C8                 JZ ldlcv
D0A1	23                       INX H
D0A2	04                       INR B
D0A3	CD 9D CE                 CALL lcvoa
D0A6	C3 60 C8                 JMP ldlcv
D0A9	78                       MOV A,B
D0AA	B7                       ORA A
D0AB	CA 60 C8                 JZ ldlcv
D0AE	7E                       MOV A,M
D0AF	B7                       ORA A
D0B0	C2 60 C8                 JNZ ldlcv
D0B3	05                       DCR B
D0B4	2B                       DCX H
D0B5	77                       MOV M,A
D0B6	0E 08                    MVI C,008h
D0B8	CD 9D CE                 CALL lcvoa
D0BB	0E 7F                    MVI C,07Fh
D0BD	CD 9D CE                 CALL lcvoa
D0C0	0E 08                    MVI C,008h
D0C2	CD 9D CE                 CALL lcvoa
D0C5	C3 60 C8                 JMP ldlcv
D0C8	21 E3 D0                 LXI H,lgtqq
D0CB	3A 50 8F                 LDA lcmvv
D0CE	4F                       MOV C,A
D0CF	7E                       MOV A,M
D0D0	23                       INX H
D0D1	B7                       ORA A
D0D2	CA AD C9                 JZ lcvpa
D0D5	B9                       CMP C
D0D6	CA DE C8                 JZ lhaoy
D0D9	23                       INX H
D0DA	23                       INX H
D0DB	C3 CF C8                 JMP lgooi
D0DE	5E 23 56 D5              DB 05Eh, 023h, 056h, 0D5h, 021h
	. . .
D0E2	21 

D0E3	50 8F 7E FE     lgtqq:   DB 050h, 08Fh, 07Eh, 0FEh, 04Fh, 0F5h, 0CCh, 078h, 0C9h, 0F1h
	. . .
D0EB	C9 F1 

D0ED	FE 49 F5 CC              DB 0FEh, 049h, 0F5h, 0CCh, 078h, 0C9h, 0F1h, 0FEh, 047h, 0CCh
	. . .
D0F5	47 CC 

D0F7	78 C9 01 00              DB 078h, 0C9h, 001h, 000h, 000h, 0CDh, 01Dh, 0C9h, 0D5h, 0B7h
	. . .
D0FF	D5 B7 

D101	CA 17 C9 CD              DB 0CAh, 017h, 0C9h, 0CDh, 01Dh, 0C9h, 0D5h, 0B7h, 0CAh, 018h
	. . .
D109	CA 18 

D10B	C9 CD 1D C9              DB 0C9h, 0CDh, 01Dh, 0C9h, 0D5h, 0B7h, 0C2h, 0ADh, 0C9h, 0C3h
	. . .
D113	C9 C3 

D115	19 C9 C5 C5              DB 019h, 0C9h, 0C5h, 0C5h, 0C1h, 0D1h, 0E1h, 0C9h, 011h, 000h
	. . .
D11D	11 00 

D11F	00                       DB 000h
D120	23 7E FE 2C     ldmvb:   DB 023h, 07Eh, 0FEh, 02Ch, 0CAh, 02Bh, 0C9h, 0B7h, 0C2h, 020h
	. . .
D128	C2 20 

D12A	C9 E5 CD 4C              DB 0C9h, 0E5h, 0CDh, 04Ch, 0C9h, 05Fh, 0CDh, 04Ch, 0C9h, 0CDh
	. . .
D132	C9 CD 

D134	47                       DB 047h
D135	C9 B3 5F CD     lcxot:   DB 0C9h, 0B3h, 05Fh, 0CDh, 04Ch
	. . .
D139	4C 

D13A	C9 57 CD 4C     lhfhj:   DB 0C9h, 057h, 0CDh, 04Ch, 0C9h
	. . .
D13E	C9 

D13F	CD 47 C9 B2     lgqdn:   DB 0CDh, 047h, 0C9h, 0B2h, 057h, 0E1h, 07Eh, 0C9h
	. . .
D143	57 E1 7E C9 

D147	07 07 07 07     lgqqp:   DB 007h, 007h, 007h, 007h, 0C9h, 02Bh, 0D5h, 011h
	. . .
D14B	C9 2B D5 11 

D14F	50 8F CD 27     lgqgt:   DB 050h, 08Fh, 0CDh, 027h, 0C4h, 0D1h, 0CAh, 074h, 0C9h, 07Eh
	. . .
D157	C9 7E 

D159	FE 2C CA 74              DB 0FEh, 02Ch, 0CAh, 074h, 0C9h, 0B7h, 0CAh, 074h, 0C9h, 0D6h
	. . .
D161	C9 D6 

D163	30 FE 0A D8              DB 030h, 0FEh, 00Ah, 0D8h, 0D6h, 007h, 0FEh
	. . .
D167	D6 07 FE 

D16A	0A DA AD C9     lhfjz:   DB 00Ah, 0DAh, 0ADh, 0C9h, 0FEh, 010h, 0D8h, 0C3h, 0ADh, 0C9h
	. . .
D172	AD C9 

D174	E1 C3 44 C9              DB 0E1h, 0C3h, 044h, 0C9h, 021h, 070h, 08Fh, 00Eh, 010h, 036h
	. . .
D17C	10 36 

D17E	00 23 0D C2              DB 000h, 023h, 00Dh, 0C2h
D182	7D C9 21 51     lhfug:   DB 07Dh, 0C9h, 021h, 051h, 08Fh, 011h, 070h, 08Fh, 00Eh, 010h
	. . .
D18A	0E 10 

D18C	7E FE 3D C2              DB 07Eh, 0FEh, 03Dh, 0C2h, 0ADh, 0C9h, 023h, 07Eh, 0B7h, 0C8h
	. . .
D194	B7 C8 

D196	FE 20 DA AD              DB 0FEh, 020h, 0DAh, 0ADh, 0C9h, 0FEh, 02Ch, 0C8h, 0FEh, 07Fh
	. . .
D19E	FE 7F 

D1A0	D2 AD C9 12              DB 0D2h, 0ADh, 0C9h, 012h, 023h, 013h, 00Dh, 0C2h, 093h, 0C9h
	. . .
D1A8	93 C9 

D1AA	C3 AD C9 21              DB 0C3h, 0ADh, 0C9h, 021h, 03Fh, 0D1h, 0CDh, 06Fh, 0C8h, 0C3h
	. . .
D1B2	C8 C3 

D1B4	00 C8 E5 21              DB 000h, 0C8h, 0E5h, 021h, 000h, 0C8h, 0E3h, 0E9h, 071h, 0CDh
	. . .
D1BC	71 CD 

D1BE	27 C4 CA 00              DB 027h, 0C4h, 0CAh, 000h, 0C8h, 023h, 0C3h, 0BCh, 0C9h, 0CDh
	. . .
D1C6	C9 CD 

D1C8	CD C9 C3 00              DB 0CDh, 0C9h, 0C3h, 000h, 0C8h, 07Ch, 0B8h, 0DAh, 0E5h, 0C9h
	. . .
D1D0	E5 C9 

D1D2	C2 DA C9 7D              DB 0C2h, 0DAh, 0C9h, 07Dh, 0B9h, 0DAh, 0E5h, 0C9h, 07Eh, 002h
	. . .
D1DA	7E 02 

D1DC	CD 27 C4 C8              DB 0CDh, 027h, 0C4h, 0C8h, 023h, 003h, 0C3h, 0DAh, 0C9h, 0CDh
	. . .
D1E4	C9 CD 

D1E6	F3 C9 1A 02              DB 0F3h, 0C9h, 01Ah, 002h, 0CDh, 027h, 0C4h, 0C8h, 01Bh, 00Bh
	. . .
D1EE	1B 0B 

D1F0	C3 E8 C9 E5              DB 0C3h, 0E8h, 0C9h, 0E5h, 0C5h, 0B7h, 07Bh, 095h, 04Fh, 07Ah
	. . .
D1F8	4F 7A 

D1FA	9C DA 05 CA              DB 09Ch, 0DAh, 005h, 0CAh, 047h, 0E1h, 009h, 0E5h, 0C1h, 0E1h
	. . .
D202	C1 E1 

D204	C9 C1 E1 C9              DB 0C9h, 0C1h, 0E1h, 0C9h, 073h, 0C3h, 000h, 0C8h, 07Eh, 0B9h
	. . .
D20C	7E B9 

D20E	CC 1B CA CD              DB 0CCh, 01Bh, 0CAh, 0CDh, 027h, 0C4h, 0CAh, 000h, 0C8h, 023h
	. . .
D216	C8 23 

D218	C3 0C CA C5              DB 0C3h, 00Ch, 0CAh, 0C5h, 0E5h, 0CDh, 0B5h, 0CDh, 006h, 003h
	. . .
D220	06 03 

D222	CD BF CC 7E              DB 0CDh, 0BFh, 0CCh, 07Eh, 0CDh, 086h, 0CCh, 005h, 023h, 0C2h
	. . .
D22A	23 C2 

D22C	22 CA E1 C1              DB 022h, 0CAh, 0E1h, 0C1h, 0C9h, 00Ah, 0BEh, 0C4h, 041h, 0CAh
	. . .
D234	41 CA 

D236	CD 27 C4 CA              DB 0CDh, 027h, 0C4h, 0CAh, 000h, 0C8h, 023h, 003h, 0C3h, 031h
	. . .
D23E	C3 31 

	                END
Labels:
end                     D240
lbxhm                   8FFD	lbxkp                   8F4D
lbxul                   8F45	lcais                   8F99
lcakd                   8B49	lcalj                   8F49
lcast                   8F51	lcauo                   8FE1
lcava                   8F81	lcjko                   8FFC
lcjml                   8B4C	lcjnr                   8F4C
lcjxn                   8F44	lcmlu                   8F98
lcmvf                   8F70	lcmvv                   8F50
lcmxb                   8B40	lcmyh                   8F40
lcunh                   BC00	lcvmr                   C87D
lcvmt                   C97D	lcvnf                   C91D
lcvoa                   CE9D	lcvop                   CD5D
lcvpa                   C9AD	lcvpo                   C88D
lcvpt                   C84D	lcvpu                   C9CD
lcvpx                   CE2D	lcvqp                   CF0D
lcvws                   CB95	lcvxq                   CDB5
lcvyd                   CF55	lcvym                   CAA5
lcvza                   C9E5	lcvzd                   CA05
lcwaa                   CCA5	lcwan                   CE45
lcxot                   D135	lcynz                   C919
lcyon                   CC39	lcyop                   CD39
lcypb                   CF59	lcyps                   C8A9
lcyqv                   CE69	lcyrj                   CF09
lcysc                   C3F9	lcywv                   CA31
lcyxh                   C871	lcyyi                   CCB1
lczab                   CA41	lczaq                   CEE1
ldgqd                   FF01	ldgub                   F001
ldhpq                   C9BC	ldhqf                   C81C
ldhrp                   CC5C	ldhrq                   CDDC
ldhsj                   CA0C	ldhsl                   CB0C
ldhsx                   C94C	ldhua                   CCCC
ldhzr                   C974	ldiaf                   C854
ldibk                   CCD4	ldicl                   CB44
ldict                   C944	ldidt                   CC04
ldkqp                   C978	ldkrb                   C918
ldkst                   CB68	ldksv                   C828
ldkta                   C9E8	ldkto                   C8C8
ldktz                   CF68	ldlac                   CBF0
ldlbs                   CE90	ldlcf                   CC50
ldlci                   CAA0	ldlcl                   CB20
ldlco                   CBE0	ldlct                   C920
ldlcv                   C860	ldlda                   CB80
ldldh                   C800	ldled                   CD60
ldleo                   CD80	ldlfj                   C170
ldlfq                   C3D0	ldmvb                   D120
ldmvl                   D240	ldsxd                   F000
lfqgc                   8FFF	lfqgd                   8F7F
lfqsw                   8F87	lfqtb                   8F47
lftjz                   8F4B	lftte                   8FE3
lfttq                   8F83	lfttv                   8F43
lgcje                   8FFE	lgcmh                   8F4E
lgctm                   8F96	lgcux                   8B46
lgeaj                   903E	lgftu                   8FF2
lgfws                   8F82	lgfwx                   8F42
lgolp                   CA5F	lgomi                   CCBF
lgomm                   CCFF	lgont                   C86F
lgoob                   CA4F	lgooi                   C8CF
lgouq                   CAB7	lgovr                   C917
lgovy                   CFB7	lgoww                   CD97
lgoyh                   C947	lgozk                   CCC7
lgozr                   C337	lgozv                   C377
lgozx                   C037	lgpdp                   C427
lgqdn                   D13F	lgqgt                   D14F
lgqqp                   D147	lgrmf                   CA1B
lgrmm                   C89B	lgrol                   C92B
lgrpj                   CF2B	lgrpp                   CC2B
lgrqj                   CC4B	lgrql                   CD4B
lgrvp                   CA73	lgrvy                   C9F3
lgrwk                   C993	lgrwq                   CEB3
lgrxc                   CCF3	lgrxy                   CBA3
lgryd                   CB63	lgrzz                   CF43
lgtqq                   D0E3	lgunu                   EFFF
lgzsr                   F003	lhaot                   CB5E
lhaoy                   C8DE	lhapl                   CC3E
lhapv                   CF1E	lharf                   CB4E
lharw                   CCAE	lhaso                   CD8E
lhasp                   CD0E	lhast                   CD4E
lhaui                   C4BE	lhaxw                   CAF6
lhayy                   CEB6	lhazc                   CEF6
lhazf                   CF76	lhazr                   CF16
lhazw                   CC96	lhbaa                   CCD6
lhbac                   CDD6	lhbak                   CBE6
lhbar                   C866	lhbci                   CC86
lhctp                   D046	lhdox                   CB7A
lhdpu                   C9DA	lhdtc                   CECA
lheag                   CDF2	lheaz                   CA22
lhebo                   CA82	lhech                   CF22
lhecs                   CDE2	lhect                   CD62
lhehl                   C422	lhfhj                   D13A
lhfjz                   D16A	lhfug                   D182
lhlvt                   F002	ljpog                   27CD
ljyzh                   0000	ljyzj                   0100
lnhhj                   1323	lnitx                   2477
lnoto                   0CC6	lnqez                   1826
lohyk                   7FFF	lounp                   7E26

