	                ;*********************************************************************************************************
	                ; 
	                ; Autogenerated by DizAssembler:
	                ;   https://github.com/codenjoyme/8080-emulator/blob/master/src/main/java/spec/assembler/DizAssembler.java
	                ; From: src/main/resources/lik/apps/budi/budi.rks
	                ; In test: DizAssemblerTest.testDizAssembly()
	                ; 
	                ;*********************************************************************************************************
	                
	                         CPU  8080
	                         .ORG 00000h
	                lohyk    EQU 07FFFh
	                lcmxd    EQU 08800h
	                lgftl    EQU 08852h
	                lgcvc    EQU 088C6h
	                lgfso    EQU 08BF2h
	                lcjum    EQU 08CB4h
	                lbxrk    EQU 08CB5h
	                lcmyl    EQU 08D00h
	                lfqgk    EQU 08DFFh
	                lcmvr    EQU 08F10h
	                lcasp    EQU 08F11h
	                lgfuh    EQU 08F12h
	                lftrf    EQU 08F13h
	                lcjux    EQU 08F14h
	                lbxrv    EQU 08F15h
	                lgctn    EQU 08F16h
	                lfqql    EQU 08F17h
	                lcait    EQU 08F19h
	                lfthj    EQU 08F1Bh
	                lbxhz    EQU 08F1Dh
	                lftte    EQU 08FE3h
	                lcasc    EQU 08FF1h
	                lgftu    EQU 08FF2h
	                lgenb    EQU 09306h
	                lfvls    EQU 094E3h
	                lfvfn    EQU 09923h
	                lcbve    EQU 09999h
	                lgejr    EQU 09D06h
	                lgjbl    EQU 0A006h
	                lctat    EQU 0A170h
	                lgjcl    EQU 0A706h
	                lgiwp    EQU 0A906h
	                lgkon    EQU 0B206h
	                lgkqb    EQU 0B406h
	                lgbmv    EQU 0B623h
	                lgkjr    EQU 0BB06h
	                ldlft    EQU 0C010h
	                ldlfj    EQU 0C170h
	                ldiev    EQU 0C254h
	                lhduj    EQU 0C25Ah
	                lgscb    EQU 0C473h
	                ldlgy    EQU 0C490h
	                ldhyx    EQU 0C50Ch
	                ldgns    EQU 0FED1h
	                ldstf    EQU 0FF00h
	                ldgqd    EQU 0FF01h
	                lhlrv    EQU 0FF02h
	                lgzot    EQU 0FF03h
	                ldsqg    EQU 0FFF0h
0000	C3 00 68        ljyzh:   JMP lldcb
0003	3E 00 32 02              DB 03Eh, 000h, 032h, 002h, 0FFh, 0CDh, 010h, 0C0h, 03Eh, 040h
	. . .
000B	3E 40 

000D	32 02 FF 3E              DB 032h, 002h, 0FFh, 03Eh, 0C0h, 03Dh, 03Dh, 0FEh, 040h, 0CAh
	. . .
0015	40 CA 

0017	70 00 F5 CD              DB 070h, 000h, 0F5h, 0CDh, 02Fh, 000h, 0F1h, 0E5h, 026h, 04Fh
	. . .
001F	26 4F 

0021	2E 00 2D C2              DB 02Eh, 000h, 02Dh, 0C2h, 023h, 000h, 025h, 0C2h, 021h, 000h
	. . .
0029	21 00 

002B	E1 C3 12 00              DB 0E1h, 0C3h, 012h, 000h, 026h, 098h, 06Fh, 011h, 080h, 000h
	. . .
0033	80 00 

0035	3E B4 BC D2              DB 03Eh, 0B4h, 0BCh, 0D2h, 03Fh, 000h, 026h, 098h, 023h, 023h
	. . .
003D	23 23 

003F	3E C0 BD C8              DB 03Eh, 0C0h, 0BDh, 0C8h, 00Eh, 004h, 01Ah, 013h, 017h, 0DAh
	. . .
0047	17 DA 

0049	59 00 17 DA              DB 059h, 000h, 017h, 0DAh, 054h, 000h, 006h, 000h, 0C3h, 064h
	. . .
0051	C3 64 

0053	00 06 0F C3              DB 000h, 006h, 00Fh, 0C3h, 064h, 000h, 017h, 0DAh, 062h, 000h
	. . .
005B	62 00 

005D	06 F0 C3 64              DB 006h, 0F0h, 0C3h, 064h, 000h, 006h, 0FFh, 070h, 02Bh, 070h
	. . .
0065	2B 70 

0067	23 24 0D CA              DB 023h, 024h, 00Dh, 0CAh, 035h, 000h, 0C3h, 047h, 000h, 0CDh
	. . .
006F	00 CD 

0071	1B 68 00 04              DB 01Bh, 068h, 000h, 004h, 0C2h, 070h, 000h, 0C3h, 080h, 002h
	. . .
0079	80 02 

007B	00 00 00 00              DB 000h, 000h, 000h, 000h, 000h, 0FFh, 0FFh, 0FFh, 0FFh, 0FFh
	. . .
0083	FF FF 

0085	FF FF FF 55              DB 0FFh, 0FFh, 0FFh, 055h, 066h, 044h, 066h, 066h, 044h, 0FFh
	. . .
008D	44 FF 

008F	FF FF FF FF              DB 0FFh, 0FFh, 0FFh, 0FFh, 0FFh, 0FFh, 0FFh, 0FFh, 0FFh, 0FFh
	. . .
0097	FF FF 

0099	55 54 33 55              DB 055h, 054h, 033h, 055h, 067h, 033h, 036h, 077h, 033h, 066h
	. . .
00A1	33 66 

00A3	34 FF FF FF              DB 034h, 0FFh, 0FFh, 0FFh, 0FFh, 0FFh, 0FFh, 0FFh, 0FFh, 0FFh
	. . .
00AB	FF FF 

00AD	FF FF 53 33              DB 0FFh, 0FFh, 053h, 033h, 033h, 077h, 077h, 077h, 078h, 033h
	. . .
00B5	78 33 

00B7	37 78 85 83              DB 037h, 078h, 085h, 083h, 0FFh, 0FFh, 0FFh, 0FFh, 0FFh, 0FFh
	. . .
00BF	FF FF 

00C1	FF FF FF FF              DB 0FFh, 0FFh, 0FFh, 0FFh, 0FFh, 0FFh, 0FFh, 0FFh, 0FFh, 0FFh
	. . .
00C9	FF FF 

00CB	FF FF FF FF              DB 0FFh, 0FFh, 0FFh, 0FFh, 0FFh, 0FFh, 0FFh, 054h, 033h, 033h
	. . .
00D3	33 33 

00D5	33 33 33 33              DB 033h, 033h, 033h, 033h, 033h, 033h, 033h, 033h, 055h, 055h
	. . .
00DD	55 55 

00DF	55 55 55 55              DB 055h, 055h, 055h, 055h, 055h, 055h, 0AAh, 0AAh, 0AAh, 0AAh
	. . .
00E7	AA AA 

00E9	AA AA AA AA              DB 0AAh, 0AAh, 0AAh, 0AAh, 0AAh, 055h, 055h, 055h, 055h, 055h
	. . .
00F1	55 55 

00F3	55 55 55 55              DB 055h, 055h, 055h, 055h, 054h, 044h, 044h, 044h, 044h, 044h
	. . .
00FB	44 44 

00FD	44 44 44 FF              DB 044h, 044h, 044h, 0FFh, 0FFh, 0FFh, 0FFh, 0FFh, 0FFh, 0FFh
	. . .
0105	FF FF 

0107	FF FF FF FF              DB 0FFh, 0FFh, 0FFh, 0FFh, 0FFh, 0FFh, 0FFh, 0FFh, 0FFh, 0FFh
	. . .
010F	FF FF 

0111	FF FF FF FF              DB 0FFh, 0FFh, 0FFh, 0FFh, 0FFh, 0FFh, 0FFh, 0FFh, 0FFh, 0FFh
	. . .
0119	FF FF 

011B	FF FF FF FF              DB 0FFh, 0FFh, 0FFh, 0FFh, 0FFh, 0FFh, 0FFh, 0FFh, 0FFh, 0FFh
	. . .
0123	FF FF 

0125	FF FF FF FF              DB 0FFh, 0FFh, 0FFh, 0FFh, 0FFh, 0FFh, 0FFh, 0FFh, 0FFh, 0FFh
	. . .
012D	FF FF 

012F	FF FF FF FF              DB 0FFh, 0FFh, 0FFh, 0FFh, 0FFh, 0FFh, 0FFh, 0FFh, 0FFh, 0FFh
	. . .
0137	FF FF 

0139	FF FF FF FF              DB 0FFh, 0FFh, 0FFh, 0FFh, 0FFh, 0FFh, 0FFh, 0FFh, 0FFh, 0FFh
	. . .
0141	FF FF 

0143	FF FF FF FF              DB 0FFh, 0FFh, 0FFh, 0FFh, 0FFh, 0FFh, 0FFh, 0FFh, 0FFh, 0FFh
	. . .
014B	FF FF 

014D	FF FF FF FF              DB 0FFh, 0FFh, 0FFh, 0FFh, 0FFh, 0FFh, 0FFh, 0FFh, 0FFh, 0FFh
	. . .
0155	FF FF 

0157	FF FF FF FF              DB 0FFh, 0FFh, 0FFh, 0FFh, 0FFh, 0FFh, 0FFh, 0FFh, 0FFh, 0FFh
	. . .
015F	FF FF 

0161	FF FF FF FF              DB 0FFh, 0FFh, 0FFh, 0FFh, 0FFh, 0FFh, 0FFh, 0FFh, 0FFh, 0FFh
	. . .
0169	FF FF 

016B	FF FF FF FF              DB 0FFh, 0FFh, 0FFh, 0FFh, 0FFh, 0FFh, 0FFh, 0FFh, 0FFh, 0FFh
	. . .
0173	FF FF 

0175	FF FF FF FF              DB 0FFh, 0FFh, 0FFh, 0FFh, 0FFh, 0FFh, 0FFh, 0FFh, 0FFh, 0FFh
	. . .
017D	FF FF 

017F	FF FF FF FF              DB 0FFh, 0FFh, 0FFh, 0FFh, 0FFh, 0FFh, 0FFh, 0FFh, 0FFh, 0FFh
	. . .
0187	FF FF 

0189	FF FF FF FF              DB 0FFh, 0FFh, 0FFh, 0FFh, 0FFh, 0FFh, 0FFh, 0FFh, 0FFh, 0FFh
	. . .
0191	FF FF 

0193	FF FF FF FF              DB 0FFh, 0FFh, 0FFh, 0FFh, 0FFh, 0FFh, 0FFh, 0FFh, 0FFh, 0FFh
	. . .
019B	FF FF 

019D	FF FF FF FF              DB 0FFh, 0FFh, 0FFh, 0FFh, 0FFh, 0FFh, 0FFh, 0FFh, 0FFh, 0FFh
	. . .
01A5	FF FF 

01A7	FF FF FF FF              DB 0FFh, 0FFh, 0FFh, 0FFh, 0FFh, 0FFh, 0FFh, 0FFh, 0FFh, 0FFh
	. . .
01AF	FF FF 

01B1	FF FF FF FF              DB 0FFh, 0FFh, 0FFh, 0FFh, 0FFh, 0FFh, 0FFh, 0FFh, 0FFh, 0FFh
	. . .
01B9	FF FF 

01BB	FF FF FF FF              DB 0FFh, 0FFh, 0FFh, 0FFh, 0FFh, 0FFh, 0FFh, 0FFh, 0FFh, 0FFh
	. . .
01C3	FF FF 

01C5	FF FF FF FF              DB 0FFh, 0FFh, 0FFh, 0FFh, 0FFh, 0FFh, 0FFh, 0FFh, 0FFh, 0FFh
	. . .
01CD	FF FF 

01CF	FF FF FF FF              DB 0FFh, 0FFh, 0FFh, 0FFh, 0FFh, 0FFh, 0FFh, 0FFh, 0FFh, 0FFh
	. . .
01D7	FF FF 

01D9	FF FF FF FF              DB 0FFh, 0FFh, 0FFh, 0FFh, 0FFh, 0FFh, 0FFh, 0FFh, 0FFh, 0FFh
	. . .
01E1	FF FF 

01E3	FF FF FF FF              DB 0FFh, 0FFh, 0FFh, 0FFh, 0FFh, 0FFh, 0FFh, 0FFh, 0FFh, 0FFh
	. . .
01EB	FF FF 

01ED	FF FF FF FF              DB 0FFh, 0FFh, 0FFh, 0FFh, 0FFh, 0FFh, 0FFh, 0FFh, 0FFh, 0FFh
	. . .
01F5	FF FF 

01F7	FF FF FF FF              DB 0FFh, 0FFh, 0FFh, 0FFh, 0FFh, 0FFh, 0FFh, 0FFh, 0FFh, 0FFh
	. . .
01FF	FF FF 

0201	FF FF FF FF              DB 0FFh, 0FFh, 0FFh, 0FFh, 0FFh, 0FFh, 0FFh, 0FFh, 0FFh, 0FFh
	. . .
0209	FF FF 

020B	FF FF FF FF              DB 0FFh, 0FFh, 0FFh, 0FFh, 0FFh, 0FFh, 0FFh, 0FFh, 0FFh, 0FFh
	. . .
0213	FF FF 

0215	FF FF FF FF              DB 0FFh, 0FFh, 0FFh, 0FFh, 0FFh, 0FFh, 0FFh, 0FFh, 0FFh, 0FFh
	. . .
021D	FF FF 

021F	FF FF FF FF              DB 0FFh, 0FFh, 0FFh, 0FFh, 0FFh, 0FFh, 0FFh, 0FFh, 0FFh, 0FFh
	. . .
0227	FF FF 

0229	FF FF FF FF              DB 0FFh, 0FFh, 0FFh, 0FFh, 0FFh, 0FFh, 0FFh, 0FFh, 0FFh, 0FFh
	. . .
0231	FF FF 

0233	FF FF FF FF              DB 0FFh, 0FFh, 0FFh, 0FFh, 0FFh, 0FFh, 0FFh, 0FFh, 0FFh, 0FFh
	. . .
023B	FF FF 

023D	FF FF FF FF              DB 0FFh, 0FFh, 0FFh, 0FFh, 0FFh, 0FFh, 0FFh, 0FFh, 0FFh, 0FFh
	. . .
0245	FF FF 

0247	FF FF FF FF              DB 0FFh, 0FFh, 0FFh, 0FFh, 0FFh, 0FFh, 0FFh, 0FFh, 0FFh, 0FFh
	. . .
024F	FF FF 

0251	FF FF FF FF              DB 0FFh, 0FFh, 0FFh, 0FFh, 0FFh, 0FFh, 0FFh, 0FFh, 0FFh, 0FFh
	. . .
0259	FF FF 

025B	FF FF FF FF              DB 0FFh, 0FFh, 0FFh, 0FFh, 0FFh, 0FFh, 0FFh, 0FFh, 0FFh, 0FFh
	. . .
0263	FF FF 

0265	FF FF FF FF              DB 0FFh, 0FFh, 0FFh, 0FFh, 0FFh, 0FFh, 0FFh, 0FFh, 0FFh, 0FFh
	. . .
026D	FF FF 

026F	FF FF FF FF              DB 0FFh, 0FFh, 0FFh, 0FFh, 0FFh, 0FFh, 0FFh, 0FFh, 0FFh, 000h
	. . .
0277	FF 00 

0279	00 00 00 00              DB 000h, 000h, 000h, 000h, 000h, 000h, 000h
	. . .
027D	00 00 00 

0280	3E C0           ljyyy:   MVI A,0C0h
0282	32 02 FF                 STA lhlrv
0285	CD 10 C0                 CALL ldlft
0288	21 00 20                 LXI H,lkfav
028B	22 65 07                 SHLD ljjvz
028E	CD D0 07                 CALL ljyxy
0291	21 00 15                 LXI H,lkanz
0294	01 FF 05                 LXI B,005FFh
0297	CD 8A 09                 CALL lnrje
029A	21 B5 8C                 LXI H,lbxrk
029D	CD 67 07                 CALL lncup
02A0	CD 1B 68        ljyyi:   CALL lojlh
02A3	00                       NOP
02A4	04                       INR B
02A5	C2 A0 02                 JNZ ljyyi
02A8	11 06 93                 LXI D,lgenb
02AB	01 70 11                 LXI B,lkajv
02AE	CD 00 07                 CALL ljzah
02B1	21 99 99                 LXI H,lcbve
02B4	22 62 08                 SHLD lnrsn
02B7	CD 1D 08                 CALL ljjef
02BA	11 06 A0                 LXI D,lgjbl
02BD	01 E3 11                 LXI B,lnhhu
02C0	CD 00 07                 CALL ljzah
02C3	3E 02                    MVI A,002h
02C5	32 E2 08                 STA lnrsm
02C8	11 06 A9                 LXI D,lgiwp
02CB	01 99 12                 LXI B,ljnwy
02CE	CD 00 07                 CALL ljzah
02D1	21 00 00                 LXI H,00000h
02D4	22 A5 08                 SHLD ljjpw
02D7	CD 64 08                 CALL ljvtd
02DA	11 06 B4                 LXI D,lgkqb
02DD	01 46 12                 LXI B,lnqkj
02E0	CD 00 07                 CALL ljzah
02E3	AF                       XRA A
02E4	32 06 09                 STA lnosh
02E7	32 A7 08                 STA lncom
02EA	32 11 8F                 STA lcasp
02ED	32 12 8F                 STA lgfuh
02F0	32 13 8F                 STA lftrf
02F3	3E 0F                    MVI A,00Fh
02F5	32 14 8F                 STA lcjux
02F8	32 15 8F                 STA lbxrv
02FB	32 16 8F                 STA lgctn
02FE	21 C8 09                 LXI H,ljyks
0301	22 63 07                 SHLD lnfvj
0304	2A 63 07        ljvyh:   LHLD lnfvj
0307	56                       MOV D,M
0308	23                       INX H
0309	5E                       MOV E,M
030A	23                       INX H
030B	22 63 07                 SHLD lnfvj
030E	EB                       XCHG
030F	22 65 07                 SHLD ljjvz
0312	CD E3 08                 CALL lnfpk
0315	3A 06 09                 LDA lnosh
0318	FE 0E                    CPI 00Eh
031A	CA 78 09                 JZ ljyhr
031D	CD A8 08                 CALL ljyjw
0320	CD D0 07        ljyyl:   CALL ljyxy
0323	21 B5 8C                 LXI H,lbxrk
0326	3E 32                    MVI A,032h
0328	32 62 07                 STA lnryl
032B	22 CE 07                 SHLD lnook
032E	AF                       XRA A
032F	32 10 8F                 STA lcmvr
0332	CD BE 09                 CALL lnofi
0335	21 23 99                 LXI H,lfvfn
0338	22 17 8F                 SHLD lfqql
033B	EB                       XCHG
033C	21 C6 88                 LXI H,lgcvc
033F	22 19 8F                 SHLD lcait
0342	01 40 11                 LXI B,lkamx
0345	CD 52 0C                 CALL lnrrx
0348	21 23 B6                 LXI H,lgbmv
034B	22 1B 8F                 SHLD lfthj
034E	EB                       XCHG
034F	21 F2 8B                 LXI H,lgfso
0352	22 1D 8F                 SHLD lbxhz
0355	AF                       XRA A
0356	C3 F0 09                 JMP ljyrm
0359	11 E3 94        ljmjv:   LXI D,lfvls
035C	21 52 88                 LXI H,lgftl
035F	01 40 11                 LXI B,lkamx
0362	CD 06 07                 CALL lnoyd
0365	CD 00 0A        ljjut:   CALL ljyub
0368	CD A0 0C                 CALL ljyuy
036B	00                       NOP
036C	00                       NOP
036D	00                       NOP
036E	CD 64 08                 CALL ljvtd
0371	3A A7 08                 LDA lncom
0374	FE 00                    CPI 000h
0376	C2 5E 09                 JNZ lnogd
0379	3A 10 8F                 LDA lcmvr
037C	FE 00                    CPI 000h
037E	CA 9E 03                 JZ lnoko
0381	CD CB 08                 CALL lnfge
0384	21 00 1A                 LXI H,lkahl
0387	01 FF 04                 LXI B,004FFh
038A	CD 8A 09                 CALL lnrje
038D	3A E2 08                 LDA lnrsm
0390	FE 00                    CPI 000h
0392	CA 5E 09                 JZ lnogd
0395	21 80 1F                 LXI H,lkais
0398	CD 67 07                 CALL lncup
039B	C3 20 03                 JMP ljyyl
039E	CD 9B 06        lnoko:   CALL lnfjk
03A1	CD 1B 68                 CALL lojlh
03A4	FE 71                    CPI 071h
03A6	CA 9F 05                 JZ lncja
03A9	FE 7E                    CPI 07Eh
03AB	CA C9 05                 JZ ljmnu
03AE	FE 08                    CPI 008h
03B0	CA CD 03                 JZ ljjlm
03B3	FE 18                    CPI 018h
03B5	CA 34 04                 JZ ljvwr
03B8	FE 19                    CPI 019h
03BA	CA E9 04                 JZ ljmnc
03BD	FE 1A                    CPI 01Ah
03BF	CA 24 05                 JZ ljvzf
03C2	FE 1F                    CPI 01Fh
03C4	CA 20 03                 JZ ljyyl
03C7	CD 92 07                 CALL lnrwk
03CA	C3 65 03                 JMP ljjut
03CD	22 5A 07        ljjlm:   SHLD lnrmt
03D0	CD C8 04                 CALL ljyqu
03D3	7E                       MOV A,M
03D4	FE 00                    CPI 000h
03D6	CA E6 03                 JZ lnowk
03D9	FE 48                    CPI 048h
03DB	CA E6 03                 JZ lnowk
03DE	FE 51                    CPI 051h
03E0	CA E6 03                 JZ lnowk
03E3	C3 0B 04                 JMP lnfmf
03E6	CD DB 04        lnowk:   CALL lnfjw
03E9	CA 0B 04                 JZ lnfmf
03EC	23                       INX H
03ED	7E                       MOV A,M
03EE	2B                       DCX H
03EF	FE 00                    CPI 000h
03F1	CA 52 05                 JZ lnrwx
03F4	FE 48                    CPI 048h
03F6	CA 52 05                 JZ lnrwx
03F9	FE 51                    CPI 051h
03FB	CA 52 05                 JZ lnrwx
03FE	FE 2D                    CPI 02Dh
0400	C2 0B 04                 JNZ lnfmf
0403	23                       INX H
0404	CD 9B 04                 CALL lnfjs
0407	2B                       DCX H
0408	C3 52 05                 JMP lnrwx
040B	7E              lnfmf:   MOV A,M
040C	FE 09                    CPI 009h
040E	CA B9 04                 JZ ljmkm
0411	FE 12                    CPI 012h
0413	CA B9 04                 JZ ljmkm
0416	FE 2D                    CPI 02Dh
0418	C2 1E 04                 JNZ lnomb
041B	CD 9B 04                 CALL lnfjs
041E	CD 42 07        lnomb:   CALL lnrzb
0421	01 00 11                 LXI B,lkamt
0424	15                       DCR D
0425	CD 06 07                 CALL lnoyd
0428	CD 92 07                 CALL lnrwk
042B	01 10 11                 LXI B,lkakh
042E	CD 06 07                 CALL lnoyd
0431	C3 65 03                 JMP ljjut
0434	22 5A 07        ljvwr:   SHLD lnrmt
0437	CD CF 04                 CALL lnclo
043A	7E                       MOV A,M
043B	FE 00                    CPI 000h
043D	CA 4D 04                 JZ ljjmz
0440	FE 48                    CPI 048h
0442	CA 4D 04                 JZ ljjmz
0445	FE 51                    CPI 051h
0447	CA 4D 04                 JZ ljjmz
044A	C3 72 04                 JMP lnrwf
044D	CD D6 04        ljjmz:   CALL lnowa
0450	CA 72 04                 JZ lnrwf
0453	23                       INX H
0454	7E                       MOV A,M
0455	2B                       DCX H
0456	FE 00                    CPI 000h
0458	CA 56 05                 JZ lnowd
045B	FE 48                    CPI 048h
045D	CA 56 05                 JZ lnowd
0460	FE 51                    CPI 051h
0462	CA 56 05                 JZ lnowd
0465	FE 2D                    CPI 02Dh
0467	C2 72 04                 JNZ lnrwf
046A	23                       INX H
046B	CD 9B 04                 CALL lnfjs
046E	2B                       DCX H
046F	C3 56 05                 JMP lnowd
0472	7E              lnrwf:   MOV A,M
0473	FE 09                    CPI 009h
0475	CA B9 04                 JZ ljmkm
0478	FE 12                    CPI 012h
047A	CA B9 04                 JZ ljmkm
047D	FE 2D                    CPI 02Dh
047F	C2 85 04                 JNZ ljjwq
0482	CD 9B 04                 CALL lnfjs
0485	CD 42 07        ljjwq:   CALL lnrzb
0488	01 20 11                 LXI B,lkamd
048B	14                       INR D
048C	CD 06 07                 CALL lnoyd
048F	CD 92 07                 CALL lnrwk
0492	01 30 11                 LXI B,lkajr
0495	CD 06 07                 CALL lnoyd
0498	C3 65 03                 JMP ljjut
049B	E5              lnfjs:   PUSH H
049C	21 B2 04                 LXI H,lnrwa
049F	CD 67 07                 CALL lncup
04A2	E1                       POP H
04A3	CD 1D 08                 CALL ljjef
04A6	F5                       PUSH PSW
04A7	3A 62 07                 LDA lnryl
04AA	3D                       DCR A
04AB	32 62 07                 STA lnryl
04AE	F1                       POP PSW
04AF	36 00                    MVI M,000h
04B1	C9                       RET
	                
04B2	60 30 50 30     lnrwa:   DB 060h, 030h, 050h, 030h, 030h, 030h, 0FFh
	. . .
04B6	30 30 FF 

04B9	2A 5A 07        ljmkm:   LHLD lnrmt
04BC	01 40 11                 LXI B,lkamx
04BF	CD 06 07                 CALL lnoyd
04C2	CD 92 07                 CALL lnrwk
04C5	C3 65 03                 JMP ljjut
04C8	7D              ljyqu:   MOV A,L
04C9	D6 1C                    SUI 01Ch
04CB	6F                       MOV L,A
04CC	D0                       RNC
04CD	25                       DCR H
04CE	C9                       RET
04CF	3E 1C           lnclo:   MVI A,01Ch
04D1	85                       ADD L
04D2	6F                       MOV L,A
04D3	D0                       RNC
04D4	24                       INR H
04D5	C9                       RET
04D6	D5              lnowa:   PUSH D
04D7	14                       INR D
04D8	C3 DD 04                 JMP ljjkm
04DB	D5              lnfjw:   PUSH D
04DC	15                       DCR D
04DD	CD FB 06        ljjkm:   CALL lnfiy
04E0	CD FB 06                 CALL lnfiy
04E3	13                       INX D
04E4	1A                       LDAX D
04E5	D1                       POP D
04E6	FE 1C                    CPI 01Ch
04E8	C9                       RET
04E9	7E              ljmnc:   MOV A,M
04EA	FE 3F                    CPI 03Fh
04EC	CA 13 05                 JZ lnftr
04EF	FE 24                    CPI 024h
04F1	C2 65 03                 JNZ ljjut
04F4	CD F6 06                 CALL lnovc
04F7	2B                       DCX H
04F8	CD 42 07                 CALL lnrzb
04FB	01 50 11                 LXI B,lkakl
04FE	CD 00 07                 CALL ljzah
0501	CD 92 07                 CALL lnrwk
0504	CD 42 07                 CALL lnrzb
0507	CD F6 06                 CALL lnovc
050A	01 60 11                 LXI B,lkamh
050D	CD 06 07                 CALL lnoyd
0510	C3 65 03                 JMP ljjut
0513	3A 62 07        lnftr:   LDA lnryl
0516	FE 00                    CPI 000h
0518	C2 65 03                 JNZ ljjut
051B	21 D0 1E                 LXI H,lkagi
051E	CD 67 07                 CALL lncup
0521	C3 04 03                 JMP ljvyh
0524	23              ljvzf:   INX H
0525	7E                       MOV A,M
0526	FE 24                    CPI 024h
0528	C2 49 05                 JNZ ljmnv
052B	CD FB 06                 CALL lnfiy
052E	CD 42 07                 CALL lnrzb
0531	01 60 11                 LXI B,lkamh
0534	CD 00 07                 CALL ljzah
0537	CD 92 07                 CALL lnrwk
053A	CD 42 07                 CALL lnrzb
053D	CD FB 06                 CALL lnfiy
0540	01 50 11                 LXI B,lkakl
0543	CD 06 07                 CALL lnoyd
0546	C3 65 03                 JMP ljjut
0549	FE 00           ljmnv:   CPI 000h
054B	2B                       DCX H
054C	CA 57 05                 JZ lnctb
054F	C3 65 03                 JMP ljjut
0552	15              lnrwx:   DCR D
0553	C3 57 05                 JMP lnctb
0556	14              lnowd:   INR D
0557	23              lnctb:   INX H
0558	CD 42 07                 CALL lnrzb
055B	01 40 11                 LXI B,lkamx
055E	CD FB 06                 CALL lnfiy
0561	CD FB 06                 CALL lnfiy
0564	CD 00 07                 CALL ljzah
0567	CD 92 07                 CALL lnrwk
056A	CD 06 07                 CALL lnoyd
056D	7E                       MOV A,M
056E	FE 00                    CPI 000h
0570	CA 80 05                 JZ ljzao
0573	FE 48                    CPI 048h
0575	CA 80 05                 JZ ljzao
0578	FE 51                    CPI 051h
057A	CA 80 05                 JZ ljzao
057D	C3 65 03                 JMP ljjut
0580	23              ljzao:   INX H
0581	7E                       MOV A,M
0582	FE 2D                    CPI 02Dh
0584	C2 8B 05                 JNZ lnfmg
0587	CD 9B 04                 CALL lnfjs
058A	AF                       XRA A
058B	2B              lnfmg:   DCX H
058C	FE 00                    CPI 000h
058E	CA 57 05                 JZ lnctb
0591	FE 48                    CPI 048h
0593	CA 57 05                 JZ lnctb
0596	FE 51                    CPI 051h
0598	CA 57 05                 JZ lnctb
059B	7E                       MOV A,M
059C	C3 65 03                 JMP ljjut
059F	22 5A 07        lncja:   SHLD lnrmt
05A2	CD C8 04                 CALL ljyqu
05A5	7E                       MOV A,M
05A6	FE 09                    CPI 009h
05A8	CA F3 05                 JZ lnfte
05AB	FE 24                    CPI 024h
05AD	CA F3 05                 JZ lnfte
05B0	23                       INX H
05B1	7E                       MOV A,M
05B2	FE 09                    CPI 009h
05B4	C2 F3 05                 JNZ lnfte
05B7	D5                       PUSH D
05B8	15                       DCR D
05B9	CD F9 05                 CALL ljmks
05BC	D1                       POP D
05BD	2A 5A 07                 LHLD lnrmt
05C0	01 50 11                 LXI B,lkakl
05C3	CD 00 07                 CALL ljzah
05C6	C3 65 03                 JMP ljjut
05C9	22 5A 07        ljmnu:   SHLD lnrmt
05CC	CD CF 04                 CALL lnclo
05CF	7E                       MOV A,M
05D0	FE 09                    CPI 009h
05D2	CA F3 05                 JZ lnfte
05D5	FE 24                    CPI 024h
05D7	CA F3 05                 JZ lnfte
05DA	23                       INX H
05DB	7E                       MOV A,M
05DC	FE 09                    CPI 009h
05DE	C2 F3 05                 JNZ lnfte
05E1	D5                       PUSH D
05E2	14                       INR D
05E3	CD F9 05                 CALL ljmks
05E6	D1                       POP D
05E7	2A 5A 07                 LHLD lnrmt
05EA	01 60 11                 LXI B,lkamh
05ED	CD 00 07                 CALL ljzah
05F0	C3 65 03                 JMP ljjut
05F3	2A 5A 07        lnfte:   LHLD lnrmt
05F6	C3 65 03                 JMP ljjut
05F9	36 48           ljmks:   MVI M,048h
05FB	CD FB 06                 CALL lnfiy
05FE	CD FB 06                 CALL lnfiy
0601	CD FB 06                 CALL lnfiy
0604	CD 0B 06                 CALL lnflx
0607	CD 30 06                 CALL ljyxd
060A	C9                       RET
060B	E5              lnflx:   PUSH H
060C	D5                       PUSH D
060D	E5                       PUSH H
060E	C1                       POP B
060F	21 00 8D                 LXI H,lcmyl
0612	7E              lnrwj:   MOV A,M
0613	FE FF                    CPI 0FFh
0615	CA 23 06                 JZ lnfvd
0618	FE 00                    CPI 000h
061A	CA 23 06                 JZ lnfvd
061D	CD F0 06                 CALL ljyxg
0620	C3 12 06                 JMP lnrwj
0623	36 40           lnfvd:   MVI M,040h
0625	23                       INX H
0626	71                       MOV M,C
0627	23                       INX H
0628	70                       MOV M,B
0629	23                       INX H
062A	73                       MOV M,E
062B	23                       INX H
062C	72                       MOV M,D
062D	D1                       POP D
062E	E1                       POP H
062F	C9                       RET
0630	CD F6 06        ljyxd:   CALL lnovc
0633	CD F6 06                 CALL lnovc
0636	D5                       PUSH D
0637	3E 63                    MVI A,063h
0639	CD 07 08                 CALL lncpd
063C	E5                       PUSH H
063D	21 5E 06                 LXI H,lnolx
0640	CD 67 07                 CALL lncup
0643	E1                       POP H
0644	3E 48                    MVI A,048h
0646	CD 07 08                 CALL lncpd
0649	D1                       POP D
064A	E5                       PUSH H
064B	21 5E 06                 LXI H,lnolx
064E	CD 67 07                 CALL lncup
0651	E1                       POP H
0652	D5                       PUSH D
0653	3E 6C                    MVI A,06Ch
0655	CD 07 08                 CALL lncpd
0658	D1                       POP D
0659	AF                       XRA A
065A	CD 07 08                 CALL lncpd
065D	C9                       RET
	                
065E	0A 17 0A 07     lnolx:   DB 00Ah, 017h, 00Ah, 007h, 003h, 006h, 009h, 005h, 009h, 009h
	. . .
0666	09 09 

0668	01 09 09 01              DB 001h, 009h, 009h, 001h, 009h, 00Ah, 003h, 014h, 00Fh, 007h
	. . .
0670	0F 07 

0672	0A 17 0A 07              DB 00Ah, 017h, 00Ah, 007h, 003h, 006h, 009h, 005h, 009h, 009h
	. . .
067A	09 09 

067C	01 09 09 01              DB 001h, 009h, 009h, 001h, 009h, 00Ah, 003h, 014h, 00Fh, 007h
	. . .
0684	0F 07 

0686	0A 17 0A 07              DB 00Ah, 017h, 00Ah, 007h, 003h, 006h, 009h, 005h, 009h, 009h
	. . .
068E	09 09 

0690	01 09 09 01              DB 001h, 009h, 009h, 001h, 009h, 00Ah, 003h, 014h, 00Fh, 007h
	. . .
0698	0F 07 

069A	FF                       DB 0FFh
069B	E5              lnfjk:   PUSH H
069C	D5                       PUSH D
069D	21 00 8D                 LXI H,lcmyl
06A0	7E              ljyzo:   MOV A,M
06A1	FE 00                    CPI 000h
06A3	CA C7 06                 JZ lncvc
06A6	FE FF                    CPI 0FFh
06A8	CA C0 06                 JZ ljzai
06AB	FE 01                    CPI 001h
06AD	CA CA 06                 JZ lnrpc
06B0	FE 20                    CPI 020h
06B2	CA D2 06                 JZ lnrwm
06B5	FE 12                    CPI 012h
06B7	CA D9 06                 JZ ljmky
06BA	FE 10                    CPI 010h
06BC	CA D9 06                 JZ ljmky
06BF	3D                       DCR A
06C0	77              ljzai:   MOV M,A
06C1	CD F0 06                 CALL ljyxg
06C4	C3 A0 06                 JMP ljyzo
06C7	D1              lncvc:   POP D
06C8	E1                       POP H
06C9	C9                       RET
06CA	3E FF           lnrpc:   MVI A,0FFh
06CC	77                       MOV M,A
06CD	3E 09                    MVI A,009h
06CF	C3 E0 06                 JMP ljyzs
06D2	3D              lnrwm:   DCR A
06D3	77                       MOV M,A
06D4	3E 51                    MVI A,051h
06D6	C3 E0 06                 JMP ljyzs
06D9	3D              ljmky:   DCR A
06DA	77                       MOV M,A
06DB	3E 5A                    MVI A,05Ah
06DD	C3 E0 06                 JMP ljyzs
06E0	23              ljyzs:   INX H
06E1	5E                       MOV E,M
06E2	23                       INX H
06E3	56                       MOV D,M
06E4	12                       STAX D
06E5	23                       INX H
06E6	5E                       MOV E,M
06E7	23                       INX H
06E8	56                       MOV D,M
06E9	CD 07 08                 CALL lncpd
06EC	23                       INX H
06ED	C3 A0 06                 JMP ljyzo
06F0	23              ljyxg:   INX H
06F1	23                       INX H
06F2	23                       INX H
06F3	23                       INX H
06F4	23                       INX H
06F5	C9                       RET
06F6	1B              lnovc:   DCX D
06F7	1B                       DCX D
06F8	1B                       DCX D
06F9	1B                       DCX D
06FA	C9                       RET
06FB	13              lnfiy:   INX D
06FC	13                       INX D
06FD	13                       INX D
06FE	13                       INX D
06FF	C9                       RET
0700	E5              ljzah:   PUSH H
0701	D5                       PUSH D
0702	C5                       PUSH B
0703	C3 17 07                 JMP lncsp
0706	E5              lnoyd:   PUSH H
0707	D5                       PUSH D
0708	C5                       PUSH B
0709	7E                       MOV A,M
070A	32 5E 07                 STA lnolz
070D	2B                       DCX H
070E	7E                       MOV A,M
070F	32 5F 07                 STA lncix
0712	EB                       XCHG
0713	22 60 07                 SHLD ljyzv
0716	EB                       XCHG
0717	C5              lncsp:   PUSH B
0718	E1                       POP H
0719	7B                       MOV A,E
071A	32 5D 07                 STA ljjkh
071D	4E                       MOV C,M
071E	79                       MOV A,C
071F	32 5C 07                 STA ljvnj
0722	23                       INX H
0723	46                       MOV B,M
0724	23                       INX H
0725	7E                       MOV A,M
0726	CD 37 68                 CALL logtt
0729	23              ljmmt:   INX H
072A	7E                       MOV A,M
072B	12                       STAX D
072C	13                       INX D
072D	0D                       DCR C
072E	C2 29 07                 JNZ ljmmt
0731	14                       INR D
0732	3A 5D 07                 LDA ljjkh
0735	5F                       MOV E,A
0736	3A 5C 07                 LDA ljvnj
0739	4F                       MOV C,A
073A	05                       DCR B
073B	C2 29 07                 JNZ ljmmt
073E	C1                       POP B
073F	D1                       POP D
0740	E1                       POP H
0741	C9                       RET
0742	D5              lnrzb:   PUSH D
0743	E5                       PUSH H
0744	3A 5F 07                 LDA lncix
0747	2A 60 07                 LHLD ljyzv
074A	EB                       XCHG
074B	CD F6 06                 CALL lnovc
074E	E1                       POP H
074F	CD 07 08                 CALL lncpd
0752	3A 5E 07                 LDA lnolz
0755	CD 07 08                 CALL lncpd
0758	D1                       POP D
0759	C9                       RET
	                
075A	52 88           lnrmt:   DB 052h, 088h
075C	08              ljvnj:   DB 008h
075D	70              ljjkh:   DB 070h
075E	00              lnolz:   DB 000h
075F	00              lncix:   DB 000h
0760	E3 94           ljyzv:   DB 0E3h, 094h
0762	32              lnryl:   DB 032h
0763	CA 09           lnfvj:   DB 0CAh, 009h
0765	00 61           ljjvz:   DB 000h, 061h
0767	7E              lncup:   MOV A,M
0768	FE FF                    CPI 0FFh
076A	C8                       RZ
076B	FE 00                    CPI 000h
076D	CA 7F 07                 JZ lncih
0770	32 F1 8F                 STA lcasc
0773	23                       INX H
0774	7E                       MOV A,M
0775	32 F2 8F                 STA lgftu
0778	23                       INX H
0779	CD 70 C1                 CALL ldlfj
077C	C3 67 07                 JMP lncup
077F	23              lncih:   INX H
0780	7E                       MOV A,M
0781	E5                       PUSH H
0782	67                       MOV H,A
0783	2E FF           lnfvu:   MVI L,0FFh
0785	2D              ljjwk:   DCR L
0786	C2 85 07                 JNZ ljjwk
0789	25                       DCR H
078A	C2 83 07                 JNZ lnfvu
078D	E1                       POP H
078E	23                       INX H
078F	C3 67 07                 JMP lncup
0792	D5              lnrwk:   PUSH D
0793	C5                       PUSH B
0794	E5                       PUSH H
0795	2A CE 07                 LHLD lnook
0798	7E                       MOV A,M
0799	FE 00                    CPI 000h
079B	CA B2 07                 JZ lnrvu
079E	FE FF                    CPI 0FFh
07A0	CA C4 07                 JZ ljvzq
07A3	32 F1 8F                 STA lcasc
07A6	3E 20                    MVI A,020h
07A8	32 F2 8F                 STA lgftu
07AB	CD 70 C1                 CALL ldlfj
07AE	23                       INX H
07AF	C3 C7 07                 JMP lncve
07B2	E5              lnrvu:   PUSH H
07B3	26 20                    MVI H,020h
07B5	2E FF           ljjti:   MVI L,0FFh
07B7	2D              lncry:   DCR L
07B8	C2 B7 07                 JNZ lncry
07BB	25                       DCR H
07BC	C2 B5 07                 JNZ ljjti
07BF	E1                       POP H
07C0	23                       INX H
07C1	C3 C7 07                 JMP lncve
07C4	21 B5 8C        ljvzq:   LXI H,lbxrk
07C7	22 CE 07        lncve:   SHLD lnook
07CA	E1                       POP H
07CB	C1                       POP B
07CC	D1                       POP D
07CD	C9                       RET
	                
07CE	DE 8C           lnook:   DB 0DEh, 08Ch
07D0	2A 65 07        ljyxy:   LHLD ljjvz
07D3	11 00 88                 LXI D,lcmxd
07D6	7E              lnovu:   MOV A,M
07D7	12                       STAX D
07D8	23                       INX H
07D9	13                       INX D
07DA	FE FF                    CPI 0FFh
07DC	C2 D6 07                 JNZ lnovu
07DF	21 B4 8C                 LXI H,lcjum
07E2	CD C8 04        lnryk:   CALL ljyqu
07E5	3E 87                    MVI A,087h
07E7	BC                       CMP H
07E8	D0                       RNC
07E9	E5                       PUSH H
07EA	CD F1 07                 CALL ljmug
07ED	E1                       POP H
07EE	C3 E2 07                 JMP lnryk
07F1	16 91           ljmug:   MVI D,091h
07F3	1E 17           lnfsw:   MVI E,017h
07F5	14                       INR D
07F6	7E              lnove:   MOV A,M
07F7	FE FE                    CPI 0FEh
07F9	C8                       RZ
07FA	CD 07 08                 CALL lncpd
07FD	7B                       MOV A,E
07FE	FE F7                    CPI 0F7h
0800	23                       INX H
0801	CA F3 07                 JZ lnfsw
0804	C3 F6 07                 JMP lnove
0807	E5              lncpd:   PUSH H
0808	21 00 10                 LXI H,lkamr
080B	85                       ADD L
080C	6F                       MOV L,A
080D	7E                       MOV A,M
080E	CD 37 68                 CALL logtt
0811	06 08                    MVI B,008h
0813	23              lnfnl:   INX H
0814	7E                       MOV A,M
0815	12                       STAX D
0816	13                       INX D
0817	05                       DCR B
0818	C2 13 08                 JNZ lnfnl
081B	E1                       POP H
081C	C9                       RET
081D	E5              ljjef:   PUSH H
081E	D5                       PUSH D
081F	C5                       PUSH B
0820	2A 62 08                 LHLD lnrsn
0823	2C                       INR L
0824	7D                       MOV A,L
0825	E6 0F                    ANI 00Fh
0827	FE 0A                    CPI 00Ah
0829	C2 53 08                 JNZ lnfnp
082C	7D                       MOV A,L
082D	E6 F0                    ANI 0F0h
082F	C6 10                    ADI 010h
0831	6F                       MOV L,A
0832	FE A0                    CPI 0A0h
0834	C2 53 08                 JNZ lnfnp
0837	CD A8 08                 CALL ljyjw
083A	2E 00                    MVI L,000h
083C	24                       INR H
083D	7C                       MOV A,H
083E	E6 0F                    ANI 00Fh
0840	FE 0A                    CPI 00Ah
0842	C2 53 08                 JNZ lnfnp
0845	7C                       MOV A,H
0846	E6 F0                    ANI 0F0h
0848	C6 10                    ADI 010h
084A	67                       MOV H,A
084B	FE A0                    CPI 0A0h
084D	C2 53 08                 JNZ lnfnp
0850	21 00 00                 LXI H,00000h
0853	22 62 08        lnfnp:   SHLD lnrsn
0856	11 06 9D                 LXI D,lgejr
0859	E5              ljmfd:   PUSH H
085A	C1                       POP B
085B	CD 07 09                 CALL lncpf
085E	C1                       POP B
085F	D1                       POP D
0860	E1                       POP H
0861	C9                       RET
	                
0862	00 00           lnrsn:   DB 000h, 000h
0864	E5              ljvtd:   PUSH H
0865	D5                       PUSH D
0866	C5                       PUSH B
0867	2A A5 08                 LHLD ljjpw
086A	2D                       DCR L
086B	7D                       MOV A,L
086C	E6 0F                    ANI 00Fh
086E	FE 0F                    CPI 00Fh
0870	C2 9C 08                 JNZ ljvhg
0873	7D                       MOV A,L
0874	E6 F0                    ANI 0F0h
0876	F6 09                    ORI 009h
0878	6F                       MOV L,A
0879	FE F9                    CPI 0F9h
087B	C2 9C 08                 JNZ ljvhg
087E	2E 99                    MVI L,099h
0880	25                       DCR H
0881	7C                       MOV A,H
0882	E6 0F                    ANI 00Fh
0884	FE 0F                    CPI 00Fh
0886	C2 9C 08                 JNZ ljvhg
0889	7C                       MOV A,H
088A	E6 F0                    ANI 0F0h
088C	F6 09                    ORI 009h
088E	67                       MOV H,A
088F	FE F9                    CPI 0F9h
0891	C2 9C 08                 JNZ ljvhg
0894	3E 01                    MVI A,001h
0896	32 A7 08                 STA lncom
0899	21 99 99                 LXI H,lcbve
089C	22 A5 08        ljvhg:   SHLD ljjpw
089F	11 06 B2                 LXI D,lgkon
08A2	C3 59 08                 JMP ljmfd
	                
08A5	46 99           ljjpw:   DB 046h, 099h
08A7	00              lncom:   DB 000h
08A8	E5              ljyjw:   PUSH H
08A9	D5                       PUSH D
08AA	C5                       PUSH B
08AB	3A E2 08                 LDA lnrsm
08AE	3C                       INR A
08AF	57                       MOV D,A
08B0	E6 0F                    ANI 00Fh
08B2	FE 0A                    CPI 00Ah
08B4	7A                       MOV A,D
08B5	C2 BF 08                 JNZ lncce
08B8	3A E2 08                 LDA lnrsm
08BB	E6 F0                    ANI 0F0h
08BD	C6 10                    ADI 010h
08BF	32 E2 08        lncce:   STA lnrsm
08C2	6F                       MOV L,A
08C3	26 FF                    MVI H,0FFh
08C5	11 06 A7                 LXI D,lgjcl
08C8	C3 59 08                 JMP ljmfd
08CB	E5              lnfge:   PUSH H
08CC	D5                       PUSH D
08CD	C5                       PUSH B
08CE	3A E2 08                 LDA lnrsm
08D1	3D                       DCR A
08D2	57                       MOV D,A
08D3	E6 0F                    ANI 00Fh
08D5	FE FF                    CPI 0FFh
08D7	7A                       MOV A,D
08D8	C2 BF 08                 JNZ lncce
08DB	E6 F0                    ANI 0F0h
08DD	F6 09                    ORI 009h
08DF	C3 BF 08                 JMP lncce
	                
08E2	00              lnrsm:   DB 000h
08E3	E5              lnfpk:   PUSH H
08E4	D5                       PUSH D
08E5	C5                       PUSH B
08E6	3A 06 09                 LDA lnosh
08E9	3C                       INR A
08EA	57                       MOV D,A
08EB	E6 0F                    ANI 00Fh
08ED	FE 0A                    CPI 00Ah
08EF	7A                       MOV A,D
08F0	C2 FA 08                 JNZ lnrge
08F3	3A 06 09                 LDA lnosh
08F6	E6 F0                    ANI 0F0h
08F8	C6 10                    ADI 010h
08FA	32 06 09        lnrge:   STA lnosh
08FD	6F                       MOV L,A
08FE	26 FF                    MVI H,0FFh
0900	11 06 BB                 LXI D,lgkjr
0903	C3 59 08                 JMP ljmfd
	                
0906	01              lnosh:   DB 001h
0907	79              lncpf:   MOV A,C
0908	CD 26 09                 CALL lnorr
090B	79                       MOV A,C
090C	1F                       RAR
090D	1F                       RAR
090E	1F                       RAR
090F	1F                       RAR
0910	15                       DCR D
0911	CD 26 09                 CALL lnorr
0914	78                       MOV A,B
0915	FE FF                    CPI 0FFh
0917	C8                       RZ
0918	15                       DCR D
0919	CD 26 09                 CALL lnorr
091C	78                       MOV A,B
091D	1F                       RAR
091E	1F                       RAR
091F	1F                       RAR
0920	1F                       RAR
0921	15                       DCR D
0922	CD 26 09                 CALL lnorr
0925	C9                       RET
0926	E6 0F           lnorr:   ANI 00Fh
0928	21 3E 09                 LXI H,lnofj
092B	BE              lnffn:   CMP M
092C	CA 34 09                 JZ ljvqp
092F	23                       INX H
0930	23                       INX H
0931	C3 2B 09                 JMP lnffn
0934	23              ljvqp:   INX H
0935	C5                       PUSH B
0936	4E                       MOV C,M
0937	06 13                    MVI B,013h
0939	CD 00 07                 CALL ljzah
093C	C1                       POP B
093D	C9                       RET
	                
093E	00 00 01 13     lnofj:   DB 000h, 000h, 001h, 013h, 002h, 026h, 003h, 039h, 004h, 04Ch
	. . .
0946	04 4C 

0948	05 5F 06 72              DB 005h, 05Fh, 006h, 072h, 007h, 085h, 008h, 098h, 009h, 0ABh
	. . .
0950	09 AB 

0952	7A              lnrqt:   MOV A,D
0953	BC                       CMP H
0954	C0                       RNZ
0955	7B                       MOV A,E
0956	BD                       CMP L
0957	C0                       RNZ
0958	3E 01                    MVI A,001h
095A	32 10 8F                 STA lcmvr
095D	C9                       RET
095E	01 00 14        lnogd:   LXI B,lkanx
0961	11 70 A1                 LXI D,lctat
0964	CD 00 07                 CALL ljzah
0967	21 00 1E                 LXI H,lkair
096A	CD 67 07                 CALL lncup
096D	CD 1B 68        ljjgh:   CALL lojlh
0970	00                       NOP
0971	04                       INR B
0972	C2 6D 09                 JNZ ljjgh
0975	C3 00 00                 JMP ljyzh
0978	21 00 20        ljyhr:   LXI H,lkfav
097B	22 65 07                 SHLD ljjvz
097E	CD D0 07                 CALL ljyxy
0981	21 B5 8C                 LXI H,lbxrk
0984	CD 67 07                 CALL lncup
0987	C3 6D 09                 JMP ljjgh
098A	5E              lnrje:   MOV E,M
098B	CD 97 09                 CALL lncms
098E	23                       INX H
098F	0B                       DCX B
0990	78                       MOV A,B
0991	FE 00                    CPI 000h
0993	C2 8A 09                 JNZ lnrje
0996	C9                       RET
0997	F5              lncms:   PUSH PSW
0998	16 08                    MVI D,008h
099A	7B                       MOV A,E
099B	17              lnfdq:   RAL
099C	CD B5 09                 CALL ljjnm
099F	DA AF 09                 JC lnces
09A2	F5                       PUSH PSW
09A3	3E 0B                    MVI A,00Bh
09A5	32 03 FF        ljjpy:   STA lgzot
09A8	F1                       POP PSW
09A9	15                       DCR D
09AA	C2 9B 09                 JNZ lnfdq
09AD	F1                       POP PSW
09AE	C9                       RET
09AF	F5              lnces:   PUSH PSW
09B0	3E 0A                    MVI A,00Ah
09B2	C3 A5 09                 JMP ljjpy
09B5	F5              ljjnm:   PUSH PSW
09B6	3E 04                    MVI A,004h
09B8	3D              ljyhm:   DCR A
09B9	C2 B8 09                 JNZ ljyhm
09BC	F1                       POP PSW
09BD	C9                       RET
09BE	21 FF 8D        lnofi:   LXI H,lfqgk
09C1	2D              ljmrm:   DCR L
09C2	36 00                    MVI M,000h
09C4	C2 C1 09                 JNZ ljmrm
09C7	C9                       RET
	                
09C8	25 00 2A 00     ljyks:   DB 025h, 000h, 02Ah, 000h, 02Fh, 000h, 034h, 000h, 039h, 000h
	. . .
09D0	39 00 

09D2	3E 00 43 00              DB 03Eh, 000h, 043h, 000h, 048h, 000h, 04Dh, 000h, 052h, 000h
	. . .
09DA	52 00 

09DC	57 00 5C 00              DB 057h, 000h, 05Ch, 000h, 061h, 000h, 000h, 000h, 000h, 000h
	. . .
09E4	00 00 

09E6	00 00 00 00              DB 000h, 000h, 000h, 000h, 000h, 000h, 000h, 000h, 000h, 000h
	. . .
09EE	00 00 

09F0	32 11 8F        ljyrm:   STA lcasp
09F3	32 12 8F                 STA lgfuh
09F6	01 40 11                 LXI B,lkamx
09F9	CD F2 0E                 CALL lnrqy
09FC	C3 59 03                 JMP ljmjv
09FF	00                       DB 000h
0A00	E5              ljyub:   PUSH H
0A01	D5                       PUSH D
0A02	C5                       PUSH B
0A03	3A 14 8F                 LDA lcjux
0A06	3D                       DCR A
0A07	C2 10 0A                 JNZ ljyrp
0A0A	EB                       XCHG
0A0B	22 80 0C                 SHLD ljyvo
0A0E	3E 0F                    MVI A,00Fh
0A10	32 14 8F        ljyrp:   STA lcjux
0A13	2A 80 0C                 LHLD ljyvo
0A16	E5                       PUSH H
0A17	C1                       POP B
0A18	2A 17 8F                 LHLD lfqql
0A1B	EB                       XCHG
0A1C	2A 19 8F                 LHLD lcait
0A1F	7E                       MOV A,M
0A20	FE 5A                    CPI 05Ah
0A22	CA 30 0A                 JZ ljyqz
0A25	78                       MOV A,B
0A26	BA                       CMP D
0A27	DA 4B 0A                 JC lnffx
0A2A	CA 3E 0A                 JZ lnoez
0A2D	C3 56 0A                 JMP lnopp
0A30	2B              ljyqz:   DCX H
0A31	7E                       MOV A,M
0A32	FE 2D                    CPI 02Dh
0A34	C2 3A 0A                 JNZ lnrft
0A37	CD 44 0C                 CALL ljvuz
0A3A	23              lnrft:   INX H
0A3B	C3 90 0B                 JMP ljyrq
0A3E	79              lnoez:   MOV A,C
0A3F	BB                       CMP E
0A40	C2 56 0A                 JNZ lnopp
0A43	3E 01                    MVI A,001h
0A45	32 14 8F                 STA lcjux
0A48	C3 86 0C                 JMP lnotk
0A4B	79              lnffx:   MOV A,C
0A4C	BB                       CMP E
0A4D	DA F0 0A                 JC ljyrc
0A50	CA 88 0A                 JZ ljyke
0A53	C3 01 0B                 JMP ljmrb
0A56	79              lnopp:   MOV A,C
0A57	BB                       CMP E
0A58	DA 74 0B                 JC ljvql
0A5B	CA 0C 0B                 JZ ljvjn
0A5E	C3 85 0B                 JMP ljjqg
0A61	E5              ljmqn:   PUSH H
0A62	21 00 FF                 LXI H,ldstf
0A65	22 80 0C                 SHLD ljyvo
0A68	E1                       POP H
0A69	C3 74 0A                 JMP ljvqj
0A6C	E5              ljviz:   PUSH H
0A6D	21 00 00                 LXI H,00000h
0A70	22 80 0C                 SHLD ljyvo
0A73	E1                       POP H
0A74	3E 19           ljvqj:   MVI A,019h
0A76	32 14 8F                 STA lcjux
0A79	2A 7E 0C        ljmef:   LHLD lnogr
0A7C	01 40 11                 LXI B,lkamx
0A7F	CD 52 0C                 CALL lnrrx
0A82	CD 92 07                 CALL lnrwk
0A85	C3 86 0C                 JMP lnotk
0A88	22 7E 0C        ljyke:   SHLD lnogr
0A8B	CD C8 04                 CALL ljyqu
0A8E	7E                       MOV A,M
0A8F	FE 00                    CPI 000h
0A91	C2 AC 0A                 JNZ ljviu
0A94	CD DB 04                 CALL lnfjw
0A97	CA AC 0A                 JZ ljviu
0A9A	23                       INX H
0A9B	7E                       MOV A,M
0A9C	2B                       DCX H
0A9D	FE 00                    CPI 000h
0A9F	CA FB 0B                 JZ lnfcw
0AA2	FE 48                    CPI 048h
0AA4	CA CD 0B                 JZ ljjgo
0AA7	FE 51                    CPI 051h
0AA9	CA CD 0B                 JZ ljjgo
0AAC	7E              ljviu:   MOV A,M
0AAD	FE 09                    CPI 009h
0AAF	CA 61 0A                 JZ ljmqn
0AB2	FE 12                    CPI 012h
0AB4	CA 61 0A                 JZ ljmqn
0AB7	FE 48                    CPI 048h
0AB9	CA 79 0A                 JZ ljmef
0ABC	FE 51                    CPI 051h
0ABE	CA 79 0A                 JZ ljmef
0AC1	FE 5A                    CPI 05Ah
0AC3	CA 79 0A                 JZ ljmef
0AC6	FE 2D                    CPI 02Dh
0AC8	C2 DA 0A                 JNZ lnrgm
0ACB	3A 11 8F                 LDA lcasp
0ACE	FE 00                    CPI 000h
0AD0	C2 DA 0A                 JNZ lnrgm
0AD3	3E 01                    MVI A,001h
0AD5	32 11 8F                 STA lcasp
0AD8	36 00                    MVI M,000h
0ADA	CD 66 0C        lnrgm:   CALL lnosz
0ADD	01 00 11                 LXI B,lkamt
0AE0	15                       DCR D
0AE1	CD 00 07                 CALL ljzah
0AE4	CD 92 07                 CALL lnrwk
0AE7	01 10 11                 LXI B,lkakh
0AEA	CD 52 0C                 CALL lnrrx
0AED	C3 86 0C                 JMP lnotk
0AF0	7E              ljyrc:   MOV A,M
0AF1	FE 24                    CPI 024h
0AF3	CA 90 0B                 JZ ljyrq
0AF6	FE 2D                    CPI 02Dh
0AF8	C2 88 0A                 JNZ ljyke
0AFB	CD 44 0C                 CALL ljvuz
0AFE	C3 88 0A                 JMP ljyke
0B01	23              ljmrb:   INX H
0B02	7E                       MOV A,M
0B03	FE 24                    CPI 024h
0B05	CA AF 0B                 JZ lncek
0B08	2B                       DCX H
0B09	C3 88 0A                 JMP ljyke
0B0C	22 7E 0C        ljvjn:   SHLD lnogr
0B0F	CD CF 04                 CALL lnclo
0B12	7E                       MOV A,M
0B13	FE 00                    CPI 000h
0B15	C2 30 0B                 JNZ ljyrb
0B18	CD D6 04                 CALL lnowa
0B1B	CA 30 0B                 JZ ljyrb
0B1E	23                       INX H
0B1F	7E                       MOV A,M
0B20	2B                       DCX H
0B21	FE 00                    CPI 000h
0B23	CA FF 0B                 JZ lnccc
0B26	FE 48                    CPI 048h
0B28	CA D1 0B                 JZ ljmos
0B2B	FE 51                    CPI 051h
0B2D	CA D1 0B                 JZ ljmos
0B30	7E              ljyrb:   MOV A,M
0B31	FE 09                    CPI 009h
0B33	CA 6C 0A                 JZ ljviz
0B36	FE 12                    CPI 012h
0B38	CA 6C 0A                 JZ ljviz
0B3B	FE 48                    CPI 048h
0B3D	CA 79 0A                 JZ ljmef
0B40	FE 51                    CPI 051h
0B42	CA 79 0A                 JZ ljmef
0B45	FE 5A                    CPI 05Ah
0B47	CA 79 0A                 JZ ljmef
0B4A	FE 2D                    CPI 02Dh
0B4C	C2 5E 0B                 JNZ lnofv
0B4F	3A 11 8F                 LDA lcasp
0B52	FE 00                    CPI 000h
0B54	C2 5E 0B                 JNZ lnofv
0B57	3E 01                    MVI A,001h
0B59	32 11 8F                 STA lcasp
0B5C	36 00                    MVI M,000h
0B5E	CD 66 0C        lnofv:   CALL lnosz
0B61	01 20 11                 LXI B,lkamd
0B64	14                       INR D
0B65	CD 00 07                 CALL ljzah
0B68	CD 92 07                 CALL lnrwk
0B6B	01 30 11                 LXI B,lkajr
0B6E	CD 52 0C                 CALL lnrrx
0B71	C3 86 0C                 JMP lnotk
0B74	7E              ljvql:   MOV A,M
0B75	FE 24                    CPI 024h
0B77	CA 90 0B                 JZ ljyrq
0B7A	FE 2D                    CPI 02Dh
0B7C	C2 0C 0B                 JNZ ljvjn
0B7F	CD 44 0C                 CALL ljvuz
0B82	C3 0C 0B                 JMP ljvjn
0B85	23              ljjqg:   INX H
0B86	7E                       MOV A,M
0B87	FE 24                    CPI 024h
0B89	CA AF 0B                 JZ lncek
0B8C	2B                       DCX H
0B8D	C3 0C 0B                 JMP ljvjn
0B90	CD 66 0C        ljyrq:   CALL lnosz
0B93	2B                       DCX H
0B94	CD F6 06                 CALL lnovc
0B97	01 50 11                 LXI B,lkakl
0B9A	CD 00 07                 CALL ljzah
0B9D	CD 92 07                 CALL lnrwk
0BA0	CD F6 06                 CALL lnovc
0BA3	CD 66 0C                 CALL lnosz
0BA6	01 60 11                 LXI B,lkamh
0BA9	CD 52 0C                 CALL lnrrx
0BAC	C3 86 0C                 JMP lnotk
0BAF	CD 66 0C        lncek:   CALL lnosz
0BB2	CD FB 06                 CALL lnfiy
0BB5	01 60 11                 LXI B,lkamh
0BB8	CD 00 07                 CALL ljzah
0BBB	CD 92 07                 CALL lnrwk
0BBE	CD FB 06                 CALL lnfiy
0BC1	CD 66 0C                 CALL lnosz
0BC4	01 50 11                 LXI B,lkakl
0BC7	CD 52 0C                 CALL lnrrx
0BCA	C3 86 0C                 JMP lnotk
0BCD	15              ljjgo:   DCR D
0BCE	C3 D2 0B                 JMP lnrqk
0BD1	14              ljmos:   INR D
0BD2	3A 11 8F        lnrqk:   LDA lcasp
0BD5	FE 00                    CPI 000h
0BD7	CA E8 0B                 JZ ljyju
0BDA	AF                       XRA A
0BDB	32 11 8F                 STA lcasp
0BDE	36 2D                    MVI M,02Dh
0BE0	7E                       MOV A,M
0BE1	D5                       PUSH D
0BE2	13                       INX D
0BE3	13                       INX D
0BE4	CD 07 08                 CALL lncpd
0BE7	D1                       POP D
0BE8	23              ljyju:   INX H
0BE9	CD 66 0C                 CALL lnosz
0BEC	CD FB 06                 CALL lnfiy
0BEF	CD FB 06                 CALL lnfiy
0BF2	01 40 11                 LXI B,lkamx
0BF5	CD 52 0C                 CALL lnrrx
0BF8	C3 86 0C                 JMP lnotk
0BFB	15              lnfcw:   DCR D
0BFC	C3 00 0C                 JMP ljyvp
0BFF	14              lnccc:   INR D
0C00	23              ljyvp:   INX H
0C01	CD 66 0C                 CALL lnosz
0C04	01 40 11                 LXI B,lkamx
0C07	CD FB 06                 CALL lnfiy
0C0A	CD FB 06                 CALL lnfiy
0C0D	CD 00 07                 CALL ljzah
0C10	CD 92 07                 CALL lnrwk
0C13	CD 52 0C                 CALL lnrrx
0C16	7E                       MOV A,M
0C17	FE 2D                    CPI 02Dh
0C19	CA 24 0C                 JZ ljvuf
0C1C	FE 00                    CPI 000h
0C1E	C2 86 0C                 JNZ lnotk
0C21	C3 27 0C                 JMP lncpt
0C24	CD 44 0C        ljvuf:   CALL ljvuz
0C27	23              lncpt:   INX H
0C28	7E                       MOV A,M
0C29	2B                       DCX H
0C2A	FE 2D                    CPI 02Dh
0C2C	CA 37 0C                 JZ lncnh
0C2F	FE 00                    CPI 000h
0C31	CA 00 0C                 JZ ljyvp
0C34	C3 86 0C                 JMP lnotk
0C37	CD 44 0C        lncnh:   CALL ljvuz
0C3A	C2 00 0C                 JNZ ljyvp
0C3D	23                       INX H
0C3E	36 00                    MVI M,000h
0C40	2B                       DCX H
0C41	C3 00 0C                 JMP ljyvp
0C44	3A 11 8F        ljvuz:   LDA lcasp
0C47	FE 00                    CPI 000h
0C49	C0                       RNZ
0C4A	36 00                    MVI M,000h
0C4C	3E 01                    MVI A,001h
0C4E	32 11 8F                 STA lcasp
0C51	C9                       RET
0C52	E5              lnrrx:   PUSH H
0C53	D5                       PUSH D
0C54	C5                       PUSH B
0C55	7E                       MOV A,M
0C56	32 82 0C                 STA lnrue
0C59	2B                       DCX H
0C5A	7E                       MOV A,M
0C5B	32 83 0C                 STA lnfrc
0C5E	EB                       XCHG
0C5F	22 84 0C                 SHLD ljvuu
0C62	EB                       XCHG
0C63	C3 17 07                 JMP lncsp
0C66	D5              lnosz:   PUSH D
0C67	E5                       PUSH H
0C68	3A 83 0C                 LDA lnfrc
0C6B	2A 84 0C                 LHLD ljvuu
0C6E	EB                       XCHG
0C6F	CD F6 06                 CALL lnovc
0C72	CD 07 08                 CALL lncpd
0C75	3A 82 0C                 LDA lnrue
0C78	CD 07 08                 CALL lncpd
0C7B	E1                       POP H
0C7C	D1                       POP D
0C7D	C9                       RET
	                
0C7E	6E 88           lnogr:   DB 06Eh, 088h
0C80	E3 94           ljyvo:   DB 0E3h, 094h
0C82	00              lnrue:   DB 000h
0C83	00              lnfrc:   DB 000h
0C84	E3 94           ljvuu:   DB 0E3h, 094h
0C86	22 19 8F        lnotk:   SHLD lcait
0C89	EB                       XCHG
0C8A	22 17 8F                 SHLD lfqql
0C8D	C1                       POP B
0C8E	D1                       POP D
0C8F	CD 52 09                 CALL lnrqt
0C92	E1                       POP H
0C93	C9                       RET
0C94	00 00 00 00              DB 000h, 000h, 000h, 000h, 000h, 000h, 000h, 000h, 000h, 000h
	. . .
0C9C	00 00 

0C9E	00 00                    DB 000h, 000h
0CA0	E5              ljyuy:   PUSH H
0CA1	D5                       PUSH D
0CA2	C5                       PUSH B
0CA3	3A 15 8F                 LDA lbxrv
0CA6	3D                       DCR A
0CA7	C2 B0 0C                 JNZ ljysm
0CAA	EB                       XCHG
0CAB	22 20 0F                 SHLD ljyut
0CAE	3E 0F                    MVI A,00Fh
0CB0	32 15 8F        ljysm:   STA lbxrv
0CB3	2A 20 0F                 LHLD ljyut
0CB6	E5                       PUSH H
0CB7	C1                       POP B
0CB8	2A 1B 8F                 LHLD lfthj
0CBB	EB                       XCHG
0CBC	2A 1D 8F                 LHLD lbxhz
0CBF	7E                       MOV A,M
0CC0	FE 5A                    CPI 05Ah
0CC2	CA D0 0C                 JZ ljytg
0CC5	78                       MOV A,B
0CC6	BA                       CMP D
0CC7	DA EB 0C                 JC lnfgu
0CCA	CA DE 0C                 JZ lnohg
0CCD	C3 F6 0C                 JMP lnoqm
0CD0	2B              ljytg:   DCX H
0CD1	7E                       MOV A,M
0CD2	FE 2D                    CPI 02Dh
0CD4	C2 DA 0C                 JNZ lnria
0CD7	CD E4 0E                 CALL ljvua
0CDA	23              lnria:   INX H
0CDB	C3 30 0E                 JMP ljysf
0CDE	79              lnohg:   MOV A,C
0CDF	BB                       CMP E
0CE0	C2 F6 0C                 JNZ lnoqm
0CE3	3E 01                    MVI A,001h
0CE5	32 15 55                 STA lkjnv
0CE8	C3 26 0F                 JMP lnosp
0CEB	79              lnfgu:   MOV A,C
0CEC	BB                       CMP E
0CED	DA 90 0D                 JC ljyte
0CF0	CA 28 0D                 JZ ljylf
0CF3	C3 A1 0D                 JMP ljmry
0CF6	79              lnoqm:   MOV A,C
0CF7	BB                       CMP E
0CF8	DA 14 0E                 JC ljvsb
0CFB	CA AC 0D                 JZ ljvkk
0CFE	C3 25 0E                 JMP ljjqv
0D01	E5              ljmsp:   PUSH H
0D02	21 00 FF                 LXI H,ldstf
0D05	22 20 0F                 SHLD ljyut
0D08	E1                       POP H
0D09	C3 14 0D                 JMP ljvsl
0D0C	E5              ljvlb:   PUSH H
0D0D	21 00 00                 LXI H,00000h
0D10	22 20 0F                 SHLD ljyut
0D13	E1              lnfot:   POP H
0D14	3E 19           ljvsl:   MVI A,019h
0D16	32 15 8F                 STA lbxrv
0D19	2A 1E 0F        ljmgh:   LHLD lnogx
0D1C	01 40 11                 LXI B,lkamx
0D1F	CD F2 0E                 CALL lnrqy
0D22	CD 92 07                 CALL lnrwk
0D25	C3 26 0F                 JMP lnosp
0D28	22 1E 0F        ljylf:   SHLD lnogx
0D2B	CD C8 04                 CALL ljyqu
0D2E	7E                       MOV A,M
0D2F	FE 00                    CPI 000h
0D31	C2 4C 0D                 JNZ ljvlf
0D34	CD DB 04                 CALL lnfjw
0D37	CA 4C 0D                 JZ ljvlf
0D3A	23                       INX H
0D3B	7E                       MOV A,M
0D3C	2B                       DCX H
0D3D	FE 00                    CPI 000h
0D3F	CA 9B 0E                 JZ lnfem
0D42	FE 48                    CPI 048h
0D44	CA 6D 0E                 JZ ljjhd
0D47	FE 51                    CPI 051h
0D49	CA 6D 0E                 JZ ljjhd
0D4C	7E              ljvlf:   MOV A,M
0D4D	FE 09                    CPI 009h
0D4F	CA 01 0D                 JZ ljmsp
0D52	FE 12                    CPI 012h
0D54	CA 01 0D                 JZ ljmsp
0D57	FE 48                    CPI 048h
0D59	CA 19 0D                 JZ ljmgh
0D5C	FE 51                    CPI 051h
0D5E	CA 19 0D                 JZ ljmgh
0D61	FE 5A                    CPI 05Ah
0D63	CA 19 0D                 JZ ljmgh
0D66	FE 2D                    CPI 02Dh
0D68	C2 7A 0D                 JNZ lnrhn
0D6B	3A 12 8F                 LDA lgfuh
0D6E	FE 00                    CPI 000h
0D70	C2 7A 0D                 JNZ lnrhn
0D73	3E 01                    MVI A,001h
0D75	32 12 8F                 STA lgfuh
0D78	36 00                    MVI M,000h
0D7A	CD 06 0F        lnrhn:   CALL lnotf
0D7D	01 00 11                 LXI B,lkamt
0D80	15                       DCR D
0D81	CD 00 07                 CALL ljzah
0D84	CD 92 07                 CALL lnrwk
0D87	01 10 11                 LXI B,lkakh
0D8A	CD F2 0E                 CALL lnrqy
0D8D	C3 26 0F                 JMP lnosp
0D90	7E              ljyte:   MOV A,M
0D91	FE 24                    CPI 024h
0D93	CA 30 0E                 JZ ljysf
0D96	FE 2D                    CPI 02Dh
0D98	C2 28 0D                 JNZ ljylf
0D9B	CD E4 0E                 CALL ljvua
0D9E	C3 28 0D                 JMP ljylf
0DA1	23              ljmry:   INX H
0DA2	7E                       MOV A,M
0DA3	FE 24                    CPI 024h
0DA5	CA 4F 0E                 JZ lncgj
0DA8	2B                       DCX H
0DA9	C3 28 0D                 JMP ljylf
0DAC	22 1E 0F        ljvkk:   SHLD lnogx
0DAF	CD CF 04                 CALL lnclo
0DB2	7E                       MOV A,M
0DB3	FE 00                    CPI 000h
0DB5	C2 D0 0D                 JNZ ljyti
0DB8	CD D6 04                 CALL lnowa
0DBB	CA D0 0D                 JZ ljyti
0DBE	23                       INX H
0DBF	7E                       MOV A,M
0DC0	2B                       DCX H
0DC1	FE 00                    CPI 000h
0DC3	CA 9F 0E                 JZ lncds
0DC6	FE 48                    CPI 048h
0DC8	CA 71 0E                 JZ ljmph
0DCB	FE 51                    CPI 051h
0DCD	CA 71 0E                 JZ ljmph
0DD0	7E              ljyti:   MOV A,M
0DD1	FE 09                    CPI 009h
0DD3	CA 0C 0D                 JZ ljvlb
0DD6	FE 12                    CPI 012h
0DD8	CA 0C 0D                 JZ ljvlb
0DDB	FE 48                    CPI 048h
0DDD	CA 19 0D                 JZ ljmgh
0DE0	FE 51                    CPI 051h
0DE2	CA 19 0D                 JZ ljmgh
0DE5	FE 5A                    CPI 05Ah
0DE7	CA 19 0D                 JZ ljmgh
0DEA	FE 2D                    CPI 02Dh
0DEC	C2 FE 0D                 JNZ lnogs
0DEF	3A 12 8F                 LDA lgfuh
0DF2	FE 00                    CPI 000h
0DF4	C2 FE 0D                 JNZ lnogs
0DF7	3E 01                    MVI A,001h
0DF9	32 12 8F                 STA lgfuh
0DFC	36 00                    MVI M,000h
0DFE	CD 06 0F        lnogs:   CALL lnotf
0E01	01 20 11                 LXI B,lkamd
0E04	14                       INR D
0E05	CD 00 07                 CALL ljzah
0E08	CD 92 07                 CALL lnrwk
0E0B	01 30 11                 LXI B,lkajr
0E0E	CD F2 0E                 CALL lnrqy
0E11	C3 26 0F                 JMP lnosp
0E14	7E              ljvsb:   MOV A,M
0E15	FE 24                    CPI 024h
0E17	CA 30 0E                 JZ ljysf
0E1A	FE 2D                    CPI 02Dh
0E1C	C2 AC 0D                 JNZ ljvkk
0E1F	CD E4 0E                 CALL ljvua
0E22	C3 AC 0D                 JMP ljvkk
0E25	23              ljjqv:   INX H
0E26	7E                       MOV A,M
0E27	FE 24                    CPI 024h
0E29	CA 4F 0E                 JZ lncgj
0E2C	2B                       DCX H
0E2D	C3 AC 0D                 JMP ljvkk
0E30	CD 06 0F        ljysf:   CALL lnotf
0E33	2B                       DCX H
0E34	CD F6 06                 CALL lnovc
0E37	01 50 11                 LXI B,lkakl
0E3A	CD 00 07                 CALL ljzah
0E3D	CD 92 07                 CALL lnrwk
0E40	CD F6 06                 CALL lnovc
0E43	CD 06 0F                 CALL lnotf
0E46	01 60 11                 LXI B,lkamh
0E49	CD F2 0E                 CALL lnrqy
0E4C	C3 26 0F                 JMP lnosp
0E4F	CD 06 0F        lncgj:   CALL lnotf
0E52	CD FB 06                 CALL lnfiy
0E55	01 60 11                 LXI B,lkamh
0E58	CD 00 07                 CALL ljzah
0E5B	CD 92 07                 CALL lnrwk
0E5E	CD FB 06                 CALL lnfiy
0E61	CD 06 0F                 CALL lnotf
0E64	01 50 11                 LXI B,lkakl
0E67	CD F2 0E                 CALL lnrqy
0E6A	C3 26 0F                 JMP lnosp
0E6D	15              ljjhd:   DCR D
0E6E	C3 72 0E                 JMP lnrqz
0E71	14              ljmph:   INR D
0E72	3A 12 8F        lnrqz:   LDA lgfuh
0E75	FE 00                    CPI 000h
0E77	CA 88 0E                 JZ ljylk
0E7A	AF                       XRA A
0E7B	32 12 8F                 STA lgfuh
0E7E	36 2D                    MVI M,02Dh
0E80	7E                       MOV A,M
0E81	D5                       PUSH D
0E82	13                       INX D
0E83	13                       INX D
0E84	CD 07 08                 CALL lncpd
0E87	D1                       POP D
0E88	23              ljylk:   INX H
0E89	CD 06 0F                 CALL lnotf
0E8C	CD FB 06                 CALL lnfiy
0E8F	CD FB 06                 CALL lnfiy
0E92	01 40 11                 LXI B,lkamx
0E95	CD F2 0E                 CALL lnrqy
0E98	C3 26 0F                 JMP lnosp
0E9B	15              lnfem:   DCR D
0E9C	C3 A0 0E                 JMP ljyuq
0E9F	14              lncds:   INR D
0EA0	23              ljyuq:   INX H
0EA1	CD 06 0F                 CALL lnotf
0EA4	01 40 11                 LXI B,lkamx
0EA7	CD FB 06                 CALL lnfiy
0EAA	CD FB 06                 CALL lnfiy
0EAD	CD 00 07                 CALL ljzah
0EB0	CD 92 07                 CALL lnrwk
0EB3	CD F2 0E                 CALL lnrqy
0EB6	7E                       MOV A,M
0EB7	FE 2D                    CPI 02Dh
0EB9	CA C4 0E                 JZ ljvuq
0EBC	FE 00                    CPI 000h
0EBE	C2 26 0F                 JNZ lnosp
0EC1	C3 C7 0E                 JMP lncqe
0EC4	CD E4 0E        ljvuq:   CALL ljvua
0EC7	23              lncqe:   INX H
0EC8	7E                       MOV A,M
0EC9	2B                       DCX H
0ECA	FE 2D                    CPI 02Dh
0ECC	CA D7 0E                 JZ lncns
0ECF	FE 00                    CPI 000h
0ED1	CA A0 0E                 JZ ljyuq
0ED4	C3 26 0F                 JMP lnosp
0ED7	CD E4 0E        lncns:   CALL ljvua
0EDA	C2 A0 0E                 JNZ ljyuq
0EDD	23                       INX H
0EDE	36 00                    MVI M,000h
0EE0	2B                       DCX H
0EE1	C3 A0 0E                 JMP ljyuq
0EE4	3A 12 8F        ljvua:   LDA lgfuh
0EE7	FE 00                    CPI 000h
0EE9	C0                       RNZ
0EEA	36 00                    MVI M,000h
0EEC	3E 01                    MVI A,001h
0EEE	32 12 8F                 STA lgfuh
0EF1	C9                       RET
0EF2	E5              lnrqy:   PUSH H
0EF3	D5                       PUSH D
0EF4	C5                       PUSH B
0EF5	7E                       MOV A,M
0EF6	32 22 0F                 STA lnrtj
0EF9	2B                       DCX H
0EFA	7E                       MOV A,M
0EFB	32 23 0F                 STA lnfqh
0EFE	EB                       XCHG
0EFF	22 24 0F                 SHLD ljvtz
0F02	EB                       XCHG
0F03	C3 17 07                 JMP lncsp
0F06	D5              lnotf:   PUSH D
0F07	E5                       PUSH H
0F08	3A 23 0F                 LDA lnfqh
0F0B	2A 24 0F                 LHLD ljvtz
0F0E	EB                       XCHG
0F0F	CD F6 06                 CALL lnovc
0F12	CD 07 08                 CALL lncpd
0F15	3A 22 0F                 LDA lnrtj
0F18	CD 07 08                 CALL lncpd
0F1B	E1                       POP H
0F1C	D1                       POP D
0F1D	C9                       RET
	                
0F1E	66 8B           lnogx:   DB 066h, 08Bh
0F20	E3 94           ljyut:   DB 0E3h, 094h
0F22	24              lnrtj:   DB 024h
0F23	00              lnfqh:   DB 000h
0F24	2B B0           ljvtz:   DB 02Bh, 0B0h
0F26	22 1D 8F        lnosp:   SHLD lbxhz
0F29	EB                       XCHG
0F2A	22 1B 8F                 SHLD lfthj
0F2D	C1                       POP B
0F2E	D1                       POP D
0F2F	CD 52 09                 CALL lnrqt
0F32	E1                       POP H
0F33	C9                       RET
0F34	00 00 00 00              DB 000h, 000h, 000h, 000h, 000h, 000h, 000h, 000h, 000h, 000h
	. . .
0F3C	00 00 

0F3E	00 00 00 00              DB 000h, 000h, 000h, 000h, 000h, 000h, 000h, 000h, 000h, 000h
	. . .
0F46	00 00 

0F48	00 00 00 00              DB 000h, 000h, 000h, 000h, 000h, 000h, 000h, 000h, 000h, 000h
	. . .
0F50	00 00 

0F52	00 00 00 00              DB 000h, 000h, 000h, 000h, 000h, 000h, 000h, 000h, 000h, 000h
	. . .
0F5A	00 00 

0F5C	00 00 00 00              DB 000h, 000h, 000h, 000h, 000h, 000h, 000h, 000h, 000h, 000h
	. . .
0F64	00 00 

0F66	00 00 00 00              DB 000h, 000h, 000h, 000h, 000h, 000h, 000h, 000h, 000h, 000h
	. . .
0F6E	00 00 

0F70	00 00 00 00              DB 000h, 000h, 000h, 000h, 000h, 000h, 000h, 000h, 000h, 000h
	. . .
0F78	00 00 

0F7A	00 00 00 00              DB 000h, 000h, 000h, 000h, 000h, 000h, 000h, 000h, 000h, 000h
	. . .
0F82	00 00 

0F84	00 00 00 00              DB 000h, 000h, 000h, 000h, 000h, 000h, 000h, 000h, 000h, 000h
	. . .
0F8C	00 00 

0F8E	00 00 00 00              DB 000h, 000h, 000h, 000h, 000h, 000h, 000h, 000h, 000h, 000h
	. . .
0F96	00 00 

0F98	00 00 00 00              DB 000h, 000h, 000h, 000h, 000h, 000h, 000h, 000h, 000h, 000h
	. . .
0FA0	00 00 

0FA2	00 00 00 00              DB 000h, 000h, 000h, 000h, 000h, 000h, 000h, 000h, 000h, 000h
	. . .
0FAA	00 00 

0FAC	00 00 00 00              DB 000h, 000h, 000h, 000h, 000h, 000h, 000h, 000h, 000h, 000h
	. . .
0FB4	00 00 

0FB6	00 00 00 00              DB 000h, 000h, 000h, 000h, 000h, 000h, 000h, 000h, 000h, 000h
	. . .
0FBE	00 00 

0FC0	00 00 00 00              DB 000h, 000h, 000h, 000h, 000h, 000h, 000h, 000h, 000h, 000h
	. . .
0FC8	00 00 

0FCA	00 00 00 00              DB 000h, 000h, 000h, 000h, 000h, 000h, 000h, 000h, 000h, 000h
	. . .
0FD2	00 00 

0FD4	00 00 00 00              DB 000h, 000h, 000h, 000h, 000h, 000h, 000h, 000h, 000h, 000h
	. . .
0FDC	00 00 

0FDE	00 00 00 00              DB 000h, 000h, 000h, 000h, 000h, 000h, 000h, 000h, 000h, 000h
	. . .
0FE6	00 00 

0FE8	00 00 00 00              DB 000h, 000h, 000h, 000h, 000h, 000h, 000h, 000h, 000h, 000h
	. . .
0FF0	00 00 

0FF2	00 00 00 00              DB 000h, 000h, 000h, 000h, 000h, 000h, 000h, 000h, 000h, 000h
	. . .
0FFA	00 00 

0FFC	00 00 00 00              DB 000h, 000h, 000h, 000h
1000	0F 00 00 00     lkamr:   DB 00Fh, 000h, 000h, 000h, 000h, 000h, 000h, 000h, 000h, 0F9h
	. . .
1008	00 F9 

100A	FB FB FB 00              DB 0FBh, 0FBh, 0FBh, 000h, 0DFh, 0DFh, 0DFh, 000h, 00Eh, 0FFh
	. . .
1012	0E FF 

1014	AA 55 00 00              DB 0AAh, 055h, 000h, 000h, 000h, 000h, 000h, 0F9h, 0FBh, 0FBh
	. . .
101C	FB FB 

101E	FB 00 DF DF              DB 0FBh, 000h, 0DFh, 0DFh, 0DFh, 000h, 00Dh, 0FFh, 081h, 081h
	. . .
1026	81 81 

1028	81 FF 81 81              DB 081h, 0FFh, 081h, 081h, 081h, 00Dh, 03Ch, 042h, 0FFh, 0A5h
	. . .
1030	FF A5 

1032	A5 A5 A5 FF              DB 0A5h, 0A5h, 0A5h, 0FFh, 0FDh, 000h, 07Eh, 078h, 05Eh, 07Eh
	. . .
103A	5E 7E 

103C	78 7E 00 0D              DB 078h, 07Eh, 000h, 00Dh, 0FFh, 081h, 081h, 081h, 0FFh, 081h
	. . .
1044	FF 81 

1046	81 81 09 81              DB 081h, 081h, 009h, 081h, 000h, 081h, 000h, 081h, 0C3h, 0C3h
	. . .
104E	C3 C3 

1050	00 09 81 C3              DB 000h, 009h, 081h, 0C3h, 071h, 000h, 0C3h, 0C7h, 0C3h, 000h
	. . .
1058	C3 00 

105A	09 73 F3 FB              DB 009h, 073h, 0F3h, 0FBh, 000h, 0DFh, 0CFh, 0C7h, 000h, 009h
	. . .
1062	00 09 

1064	05 40 24 08              DB 005h, 040h, 024h, 008h, 042h, 024h, 081h, 04Ah, 009h, 086h
	. . .
106C	09 86 

106E	49 42 92 5A              DB 049h, 042h, 092h, 05Ah, 038h, 046h, 091h, 000h, 000h, 000h
	. . .
1076	00 00 

1078	00 00 00 00              DB 000h, 000h, 000h, 000h, 000h, 000h, 000h, 000h, 000h, 000h
	. . .
1080	00 00 

1082	00 00 00 00              DB 000h, 000h, 000h, 000h, 000h, 000h, 000h, 000h, 000h, 000h
	. . .
108A	00 00 

108C	00 00 00 00              DB 000h, 000h, 000h, 000h, 000h, 000h, 000h, 000h, 000h, 000h
	. . .
1094	00 00 

1096	00 00 00 00              DB 000h, 000h, 000h, 000h, 000h, 000h, 000h, 000h, 000h, 000h
	. . .
109E	00 00 

10A0	00 00 00 00              DB 000h, 000h, 000h, 000h, 000h, 000h, 000h, 000h, 000h, 000h
	. . .
10A8	00 00 

10AA	00 00 00 00              DB 000h, 000h, 000h, 000h, 000h, 000h, 000h, 000h, 000h, 000h
	. . .
10B2	00 00 

10B4	00 00 00 00              DB 000h, 000h, 000h, 000h, 000h, 000h, 000h, 000h, 000h, 000h
	. . .
10BC	00 00 

10BE	00 00 00 00              DB 000h, 000h, 000h, 000h, 000h, 000h, 000h, 000h, 000h, 000h
	. . .
10C6	00 00 

10C8	00 00 00 00              DB 000h, 000h, 000h, 000h, 000h, 000h, 000h, 000h, 000h, 000h
	. . .
10D0	00 00 

10D2	00 00 00 00              DB 000h, 000h, 000h, 000h, 000h, 000h, 000h, 000h, 000h, 000h
	. . .
10DA	00 00 

10DC	00 00 00 00              DB 000h, 000h, 000h, 000h, 000h, 000h, 000h, 000h, 000h, 000h
	. . .
10E4	00 00 

10E6	00 00 00 00              DB 000h, 000h, 000h, 000h, 000h, 000h, 000h, 000h, 000h, 000h
	. . .
10EE	00 00 

10F0	00 00 00 00              DB 000h, 000h, 000h, 000h, 000h, 000h, 000h, 000h, 000h, 000h
	. . .
10F8	00 00 

10FA	00 00 00 00              DB 000h, 000h, 000h, 000h, 000h, 000h
	. . .
10FE	00 00 

1100	0B 01 0F 00     lkamt:   DB 00Bh, 001h, 00Fh, 000h, 007h, 007h, 002h, 007h, 007h, 007h
	. . .
1108	07 07 

110A	07 02 02 06              DB 007h, 002h, 002h, 006h, 000h, 000h
	. . .
110E	00 00 

1110	0B 01 0F 00     lkakh:   DB 00Bh, 001h, 00Fh, 000h, 070h, 070h, 020h, 078h, 074h, 0F4h
	. . .
1118	74 F4 

111A	70 50 4C C4              DB 070h, 050h, 04Ch, 0C4h, 000h, 000h
	. . .
111E	00 00 

1120	0B 01 0F 00     lkamd:   DB 00Bh, 001h, 00Fh, 000h, 0E0h, 0E0h, 040h, 0E0h, 0E0h, 0E0h
	. . .
1128	E0 E0 

112A	E0 40 40 60              DB 0E0h, 040h, 040h, 060h, 000h, 000h
	. . .
112E	00 00 

1130	0B 01 0F 00     lkajr:   DB 00Bh, 001h, 00Fh, 000h, 00Eh, 00Eh, 004h, 01Eh, 02Eh, 02Fh
	. . .
1138	2E 2F 

113A	0E 0A 32 23              DB 00Eh, 00Ah, 032h, 023h, 000h, 000h
	. . .
113E	00 00 

1140	0B 01 0F 00     lkamx:   DB 00Bh, 001h, 00Fh, 000h, 01Ch, 01Ch, 008h, 03Eh, 05Dh, 05Dh
	. . .
1148	5D 5D 

114A	1C 14 14 36              DB 01Ch, 014h, 014h, 036h, 000h, 000h
	. . .
114E	00 00 

1150	0B 01 0F 00     lkakl:   DB 00Bh, 001h, 00Fh, 000h, 01Ch, 01Dh, 009h, 03Eh, 05Ch, 05Ch
	. . .
1158	5C 5C 

115A	1C 14 16 30              DB 01Ch, 014h, 016h, 030h, 000h, 000h
	. . .
115E	00 00 

1160	0B 01 0F 00     lkamh:   DB 00Bh, 001h, 00Fh, 000h, 038h, 0B8h, 090h, 07Ch, 03Ah, 03Ah
	. . .
1168	3A 3A 

116A	38 28 68 0C              DB 038h, 028h, 068h, 00Ch, 000h, 000h
	. . .
116E	00 00 

1170	10 07 F7 1C     lkajv:   DB 010h, 007h, 0F7h, 01Ch, 03Eh, 063h, 0C1h, 0C0h, 0C0h, 060h
	. . .
1178	C0 60 

117A	3E 03 01 01              DB 03Eh, 003h, 001h, 001h, 041h, 061h, 03Eh, 01Ch, 000h, 000h
	. . .
1182	00 00 

1184	00 00 07 0F              DB 000h, 000h, 007h, 00Fh, 018h, 030h, 030h, 030h, 0B0h, 0B0h
	. . .
118C	B0 B0 

118E	B0 18 0F 07              DB 0B0h, 018h, 00Fh, 007h, 000h, 000h, 000h, 000h, 003h, 087h
	. . .
1196	03 87 

1198	CC 58 18 18              DB 0CCh, 058h, 018h, 018h, 018h, 018h, 058h, 0CCh, 087h, 003h
	. . .
11A0	87 03 

11A2	00 00 00 00              DB 000h, 000h, 000h, 000h, 086h, 0C6h, 067h, 037h, 036h, 036h
	. . .
11AA	36 36 

11AC	36 36 36 66              DB 036h, 036h, 036h, 066h, 0C6h, 086h, 000h, 000h, 000h, 000h
	. . .
11B4	00 00 

11B6	78 FD 85 01              DB 078h, 0FDh, 085h, 001h, 001h, 001h, 001h, 001h, 001h, 001h
	. . .
11BE	01 01 

11C0	00 00 00 00              DB 000h, 000h, 000h, 000h, 000h, 000h, 078h, 0FCh, 086h, 086h
	. . .
11C8	86 86 

11CA	86 8C F8 80              DB 086h, 08Ch, 0F8h, 080h, 082h, 086h, 0FCh, 078h, 000h, 000h
	. . .
11D2	00 00 

11D4	00 00 38 38              DB 000h, 000h, 038h, 038h, 000h, 000h, 000h, 000h, 000h, 000h
	. . .
11DC	00 00 

11DE	00 38 38 00              DB 000h, 038h, 038h, 000h, 000h
	. . .
11E2	00 

11E3	10 06 F7 C0     lnhhu:   DB 010h, 006h, 0F7h, 0C0h, 0C0h, 0C0h, 0C0h, 0C0h, 0C0h, 0C0h
	. . .
11EB	C0 C0 

11ED	C0 C0 C0 C0              DB 0C0h, 0C0h, 0C0h, 0C0h, 0C0h, 0C1h, 0C1h, 0FFh, 000h, 000h
	. . .
11F5	00 00 

11F7	00 00 30 00              DB 000h, 000h, 030h, 000h, 030h, 030h, 030h, 030h, 030h, 030h
	. . .
11FF	30 30 

1201	30 B0 99 8F              DB 030h, 0B0h, 099h, 08Fh, 000h, 000h, 000h, 000h, 070h, 038h
	. . .
1209	70 38 

120B	18 18 18 18              DB 018h, 018h, 018h, 018h, 018h, 018h, 0D8h, 0D8h, 08Ch, 007h
	. . .
1213	8C 07 

1215	00 00 00 18              DB 000h, 000h, 000h, 018h, 031h, 063h, 066h, 066h, 066h, 066h
	. . .
121D	66 66 

121F	67 66 66 66              DB 067h, 066h, 066h, 066h, 0C3h, 081h, 000h, 000h, 000h, 000h
	. . .
1227	00 00 

1229	E0 F0 18 18              DB 0E0h, 0F0h, 018h, 018h, 018h, 030h, 0E0h, 000h, 008h, 018h
	. . .
1231	08 18 

1233	F0 E0 00 00              DB 0F0h, 0E0h, 000h, 000h, 000h, 000h, 0E0h, 0E0h, 000h, 000h
	. . .
123B	00 00 

123D	00 00 00 00              DB 000h, 000h, 000h, 000h, 000h, 0E0h, 0E0h, 000h, 000h
	. . .
1245	00 

1246	10 05 F7 1F     lnqkj:   DB 010h, 005h, 0F7h, 01Fh, 03Fh, 031h, 031h, 030h, 030h, 0FCh
	. . .
124E	30 FC 

1250	FC 30 30 30              DB 0FCh, 030h, 030h, 030h, 030h, 030h, 030h, 030h, 000h, 000h
	. . .
1258	00 00 

125A	8C 9C BC 0C              DB 08Ch, 09Ch, 0BCh, 00Ch, 00Ch, 00Ch, 00Ch, 00Ch, 00Ch, 00Ch
	. . .
1262	0C 0C 

1264	0C 0C 0C 1E              DB 00Ch, 00Ch, 00Ch, 01Eh, 000h, 000h, 000h, 000h, 01Ch, 03Eh
	. . .
126C	1C 3E 

126E	63 C1 C1 C1              DB 063h, 0C1h, 0C1h, 0C1h, 0C1h, 0C1h, 0C1h, 063h, 03Eh, 01Ch
	. . .
1276	3E 1C 

1278	00 00 00 00              DB 000h, 000h, 000h, 000h, 033h, 037h, 03Ch, 0B8h, 0B0h, 0B0h
	. . .
1280	B0 B0 

1282	B0 B0 B0 30              DB 0B0h, 0B0h, 0B0h, 030h, 030h, 030h, 000h, 000h, 000h, 000h
	. . .
128A	00 00 

128C	C7 E7 20 00              DB 0C7h, 0E7h, 020h, 000h, 000h, 000h, 000h, 000h, 000h, 007h
	. . .
1294	00 07 

1296	07 00 00                 DB 007h, 000h, 000h
1299	10 06 F7 30     ljnwy:   DB 010h, 006h, 0F7h, 030h, 030h, 030h, 030h, 030h, 030h, 0FCh
	. . .
12A1	30 FC 

12A3	FC 30 30 30              DB 0FCh, 030h, 030h, 030h, 031h, 031h, 03Fh, 01Fh, 000h, 000h
	. . .
12AB	00 00 

12AD	00 00 30 00              DB 000h, 000h, 030h, 000h, 030h, 030h, 030h, 030h, 030h, 030h
	. . .
12B5	30 30 

12B7	B0 B0 99 0F              DB 0B0h, 0B0h, 099h, 00Fh, 000h, 000h, 000h, 018h, 01Bh, 01Fh
	. . .
12BF	1B 1F 

12C1	1D 19 19 19              DB 01Dh, 019h, 019h, 019h, 019h, 019h, 0D9h, 0D9h, 099h, 019h
	. . .
12C9	99 19 

12CB	00 00 00 00              DB 000h, 000h, 000h, 000h, 070h, 0F9h, 09Bh, 09Bh, 09Bh, 09Bh
	. . .
12D3	9B 9B 

12D5	9B 9B 9B 9B              DB 09Bh, 09Bh, 09Bh, 09Bh, 099h, 08Ch, 000h, 000h, 000h, 000h
	. . .
12DD	00 00 

12DF	F0 F8 0C 0C              DB 0F0h, 0F8h, 00Ch, 00Ch, 00Ch, 018h, 0F0h, 000h, 004h, 00Ch
	. . .
12E7	04 0C 

12E9	F8 F0 00 00              DB 0F8h, 0F0h, 000h, 000h, 000h, 000h, 070h, 070h, 000h, 000h
	. . .
12F1	00 00 

12F3	00 00 00 00              DB 000h, 000h, 000h, 000h, 000h, 070h, 070h, 000h, 000h, 000h
	. . .
12FB	00 00 

12FD	00 00 00 10              DB 000h, 000h, 000h, 010h, 001h, 0F7h, 07Ch, 0FEh, 0C6h, 0CEh
	. . .
1305	C6 CE 

1307	D6 D6 D6 D6              DB 0D6h, 0D6h, 0D6h, 0D6h, 0D6h, 0D6h, 0D6h, 0E6h, 0C6h, 0FEh
	. . .
130F	C6 FE 

1311	7C 00 10 01              DB 07Ch, 000h, 010h, 001h, 0F7h, 018h, 038h, 078h, 0D8h, 098h
	. . .
1319	D8 98 

131B	18 18 18 18              DB 018h, 018h, 018h, 018h, 018h, 018h, 018h, 018h
	. . .
131F	18 18 18 18 

1323	18 7E 00 10     lnhhj:   DB 018h, 07Eh, 000h, 010h, 001h, 0F7h, 07Ch, 0FEh, 0C6h, 0C6h
	. . .
132B	C6 C6 

132D	06 0C 0C 18              DB 006h, 00Ch, 00Ch, 018h, 030h, 060h, 060h, 0C0h, 0C0h, 0FEh
	. . .
1335	C0 FE 

1337	FE 00 10 01              DB 0FEh, 000h, 010h, 001h, 0F7h, 07Ch, 0FEh, 0C6h, 0C6h, 006h
	. . .
133F	C6 06 

1341	0C 38 3C 0E              DB 00Ch, 038h, 03Ch, 00Eh, 006h, 006h, 0C6h, 0C6h, 0FEh, 07Ch
	. . .
1349	FE 7C 

134B	00 10 01 F7              DB 000h, 010h, 001h, 0F7h, 066h, 066h, 066h, 066h, 066h, 066h
	. . .
1353	66 66 

1355	C6 C6 FE FE              DB 0C6h, 0C6h, 0FEh, 0FEh, 006h, 006h, 006h, 006h, 006h, 000h
	. . .
135D	06 00 

135F	10 01 F7 FE              DB 010h, 001h, 0F7h, 0FEh, 0FEh, 0C0h, 0C0h, 0C0h, 0C0h, 0FCh
	. . .
1367	C0 FC 

1369	FE 06 06 06              DB 0FEh, 006h, 006h, 006h, 0C6h, 0C6h, 0FEh, 07Ch, 000h, 010h
	. . .
1371	00 10 

1373	01 F7 7C FE              DB 001h, 0F7h, 07Ch, 0FEh, 0C6h, 0C6h, 0C0h, 0C0h, 0FCh, 0FEh
	. . .
137B	FC FE 

137D	C6 C6 C6 C6              DB 0C6h, 0C6h, 0C6h, 0C6h, 0C6h, 0FEh, 07Ch, 000h, 010h, 001h
	. . .
1385	10 01 

1387	F7 FE FE 06              DB 0F7h, 0FEh, 0FEh, 006h, 006h, 006h, 00Ch, 018h, 030h, 060h
	. . .
138F	30 60 

1391	C0 C0 C0 C0              DB 0C0h, 0C0h, 0C0h, 0C0h, 0C0h, 0C0h, 000h, 010h, 001h, 0F7h
	. . .
1399	01 F7 

139B	7C FE C6 C6              DB 07Ch, 0FEh, 0C6h, 0C6h, 0C6h, 0C6h, 07Ch, 0C6h, 0C6h, 0C6h
	. . .
13A3	C6 C6 

13A5	C6 C6 C6 FE              DB 0C6h, 0C6h, 0C6h, 0FEh, 07Ch, 000h, 010h, 001h, 0F7h, 07Ch
	. . .
13AD	F7 7C 

13AF	FE C6 C6 C6              DB 0FEh, 0C6h, 0C6h, 0C6h, 0C6h, 0FEh, 07Eh, 006h, 006h, 006h
	. . .
13B7	06 06 

13B9	C6 C6 FE 7C              DB 0C6h, 0C6h, 0FEh, 07Ch, 000h, 000h, 000h, 000h, 097h, 0C0h
	. . .
13C1	97 C0 

13C3	97 C0 97 C0              DB 097h, 0C0h, 097h, 0C0h, 097h, 0C0h, 097h, 0C0h, 097h, 0C0h
	. . .
13CB	97 C0 

13CD	97 C0 97 C0              DB 097h, 0C0h, 097h, 0C0h, 097h, 0C0h, 097h, 0C0h, 097h, 0C0h
	. . .
13D5	97 C0 

13D7	97 C0 97 C0              DB 097h, 0C0h, 097h, 0C0h, 097h, 0C0h, 002h, 033h, 05Fh, 000h
	. . .
13DF	5F 00 

13E1	00 00 F0 00              DB 000h, 000h, 0F0h, 000h, 085h, 0C1h, 01Fh, 007h, 0EEh, 000h
	. . .
13E9	EE 00 

13EB	5A C1 97 EE              DB 05Ah, 0C1h, 097h, 0EEh, 01Fh, 007h, 03Bh, 000h, 000h, 010h
	. . .
13F3	00 10 

13F5	F0 CE E3 CE              DB 0F0h, 0CEh, 0E3h, 0CEh, 056h, 01Fh, 038h, 007h, 025h, 000h
	. . .
13FD	25 00 

13FF	00                       DB 000h
1400	08 0B 7F 00     lkanx:   DB 008h, 00Bh, 07Fh, 000h, 000h, 000h, 000h, 000h, 000h, 000h
	. . .
1408	00 00 

140A	00 00 00 00              DB 000h, 000h, 000h, 000h, 000h, 000h, 000h, 000h, 000h, 000h
	. . .
1412	00 00 

1414	00 00 00 00              DB 000h, 000h, 000h, 000h, 000h, 000h, 000h, 000h, 000h, 000h
	. . .
141C	00 00 

141E	00 00 00 00              DB 000h, 000h, 000h, 000h, 000h, 000h, 000h, 000h, 000h, 000h
	. . .
1426	00 00 

1428	00 00 00 00              DB 000h, 000h, 000h, 000h, 000h, 000h, 000h, 000h, 000h, 000h
	. . .
1430	00 00 

1432	00 00 00 00              DB 000h, 000h, 000h, 000h, 000h, 000h, 000h, 000h, 000h, 000h
	. . .
143A	00 00 

143C	00 00 00 00              DB 000h, 000h, 000h, 000h, 000h, 000h, 000h, 000h, 000h, 000h
	. . .
1444	00 00 

1446	00 00 00 00              DB 000h, 000h, 000h, 000h, 000h, 000h, 000h, 000h, 000h, 000h
	. . .
144E	00 00 

1450	00 00 00 00              DB 000h, 000h, 000h, 000h, 000h, 000h, 000h, 000h, 000h, 000h
	. . .
1458	00 00 

145A	00 00 00 00              DB 000h, 000h, 000h, 000h, 000h, 000h, 000h, 000h, 000h, 000h
	. . .
1462	00 00 

1464	00 00 00 00              DB 000h, 000h, 000h, 000h, 000h, 000h, 000h, 000h, 000h, 000h
	. . .
146C	00 00 

146E	00 00 00 00              DB 000h, 000h, 000h, 000h, 000h, 000h, 000h, 000h, 000h, 000h
	. . .
1476	00 00 

1478	00 00 00 00              DB 000h, 000h, 000h, 000h, 000h, 000h, 000h, 000h, 000h, 000h
	. . .
1480	00 00 

1482	00 00 00 00              DB 000h, 000h, 000h, 000h, 000h, 000h, 000h, 000h, 000h, 000h
	. . .
148A	00 00 

148C	00 00 00 00              DB 000h, 000h, 000h, 000h, 000h, 000h, 000h, 000h, 000h, 000h
	. . .
1494	00 00 

1496	00 00 00 00              DB 000h, 000h, 000h, 000h, 000h, 000h, 000h, 000h, 000h, 000h
	. . .
149E	00 00 

14A0	00 00 00 00              DB 000h, 000h, 000h, 000h, 000h, 000h, 000h, 000h, 000h, 000h
	. . .
14A8	00 00 

14AA	00 00 00 00              DB 000h, 000h, 000h, 000h, 000h, 000h, 000h, 000h, 000h, 000h
	. . .
14B2	00 00 

14B4	00 00 00 00              DB 000h, 000h, 000h, 000h, 000h, 000h, 000h, 000h, 000h, 000h
	. . .
14BC	00 00 

14BE	00 00 00 00              DB 000h, 000h, 000h, 000h, 000h, 000h, 000h, 000h, 000h, 000h
	. . .
14C6	00 00 

14C8	00 00 00 00              DB 000h, 000h, 000h, 000h, 000h, 000h, 000h, 000h, 000h, 000h
	. . .
14D0	00 00 

14D2	00 00 00 00              DB 000h, 000h, 000h, 000h, 000h, 000h, 000h, 000h, 000h, 000h
	. . .
14DA	00 00 

14DC	00 00 00 00              DB 000h, 000h, 000h, 000h, 000h, 000h, 000h, 000h, 000h, 000h
	. . .
14E4	00 00 

14E6	00 00 00 00              DB 000h, 000h, 000h, 000h, 000h, 000h, 000h, 000h, 000h, 000h
	. . .
14EE	00 00 

14F0	00 00 00 00              DB 000h, 000h, 000h, 000h, 000h, 000h, 000h, 000h, 000h, 000h
	. . .
14F8	00 00 

14FA	00 00 00 00              DB 000h, 000h, 000h, 000h, 000h, 000h
	. . .
14FE	00 00 

1500	FF FE 00 00     lkanz:   DB 0FFh, 0FEh, 000h, 000h, 000h, 000h, 001h, 0FFh, 0FFh, 0FFh
	. . .
1508	FF FF 

150A	FF FF FF FF              DB 0FFh, 0FFh, 0FFh, 0FFh, 0FFh, 0FFh, 0FFh, 0FFh, 0FFh, 0FFh
	. . .
1512	FF FF 

1514	FF E0 00 00              DB 0FFh, 0E0h, 000h, 000h, 003h, 000h, 00Fh, 0FFh, 0FFh, 0FFh
	. . .
151C	FF FF 

151E	FF C0 00 00              DB 0FFh, 0C0h, 000h, 000h, 003h, 0FFh, 0FFh, 0FFh, 0FFh, 0FFh
	. . .
1526	FF FF 

1528	FF FF 80 07              DB 0FFh, 0FFh, 080h, 007h, 0FEh, 01Fh, 0FFh, 0FFh, 0FFh, 0FFh
	. . .
1530	FF FF 

1532	FF 00 00 00              DB 0FFh, 000h, 000h, 000h, 000h, 01Fh, 0FFh, 0FFh, 0FFh, 0FFh
	. . .
153A	FF FF 

153C	80 00 00 00              DB 080h, 000h, 000h, 000h, 0FFh, 0FFh, 0FFh, 0FFh, 0FFh, 0FFh
	. . .
1544	FF FF 

1546	C0 00 00 01              DB 0C0h, 000h, 000h, 001h, 0FFh, 0FFh, 0FFh, 0FFh, 0F8h, 000h
	. . .
154E	F8 00 

1550	00 00 00 FF              DB 000h, 000h, 000h, 0FFh, 0FFh, 0FFh, 0FFh, 0F8h, 000h, 000h
	. . .
1558	00 00 

155A	00 00 03 FF              DB 000h, 000h, 003h, 0FFh, 0FEh, 003h, 0F0h, 000h, 03Eh, 003h
	. . .
1562	3E 03 

1564	FC 00 FF 03              DB 0FCh, 000h, 0FFh, 003h, 0FFh, 000h, 0F0h, 00Ch, 000h, 07Fh
	. . .
156C	00 7F 

156E	00 FF 80 FF              DB 000h, 0FFh, 080h, 0FFh, 000h, 0FCh, 003h, 000h, 07Fh, 000h
	. . .
1576	7F 00 

1578	FF 80 FF 00              DB 0FFh, 080h, 0FFh, 000h, 0F8h, 000h, 000h, 01Fh, 080h, 0FFh
	. . .
1580	80 FF 

1582	80 FF 01 F8              DB 080h, 0FFh, 001h, 0F8h, 00Fh, 000h, 03Fh, 001h, 0FFh, 000h
	. . .
158A	FF 00 

158C	FC 03 E0 3C              DB 0FCh, 003h, 0E0h, 03Ch, 000h, 07Fh, 003h, 0FFh, 003h, 0F0h
	. . .
1594	03 F0 

1596	3F C0 F0 00              DB 03Fh, 0C0h, 0F0h, 000h, 0FCh, 00Fh, 0FCh, 00Fh, 0C0h, 0FFh
	. . .
159E	C0 FF 

15A0	00 80 03 E0              DB 000h, 080h, 003h, 0E0h, 07Fh, 0E0h, 07Fh, 003h, 0FCh, 007h
	. . .
15A8	FC 07 

15AA	00 1F 80 FF              DB 000h, 01Fh, 080h, 0FFh, 080h, 0FCh, 03Fh, 0F0h, 018h, 000h
	. . .
15B2	18 00 

15B4	7F 07 FF 07              DB 07Fh, 007h, 0FFh, 007h, 0E0h, 0FCh, 000h, 080h, 000h, 0FEh
	. . .
15BC	00 FE 

15BE	1F FC 0F 80              DB 01Fh, 0FCh, 00Fh, 080h, 0F0h, 00Fh, 000h, 020h, 0FCh, 03Fh
	. . .
15C6	FC 3F 

15C8	FC 3F 03 F0              DB 0FCh, 03Fh, 003h, 0F0h, 03Fh, 000h, 000h, 0F0h, 07Fh, 0F0h
	. . .
15D0	7F F0 

15D2	7F 07 C0 7E              DB 07Fh, 007h, 0C0h, 07Eh, 000h, 003h, 0E0h, 0FFh, 060h, 0FCh
	. . .
15DA	60 FC 

15DC	0F 80 FC 01              DB 00Fh, 080h, 0FCh, 001h, 007h, 0C0h, 0FFh, 0C0h, 0FCh, 01Fh
	. . .
15E4	FC 1F 

15E6	80 FC 03 07              DB 080h, 0FCh, 003h, 007h, 080h, 0FFh, 0C0h, 0F8h, 03Fh, 000h
	. . .
15EE	3F 00 

15F0	F0 06 0F 80              DB 0F0h, 006h, 00Fh, 080h, 0FFh, 080h, 0F0h, 03Fh, 001h, 0F0h
	. . .
15F8	01 F0 

15FA	1C 0F 01 FF              DB 01Ch, 00Fh, 001h, 0FFh, 001h, 0F0h, 03Fh, 001h, 0F0h, 01Ch
	. . .
1602	F0 1C 

1604	0F 81 FF 01              DB 00Fh, 081h, 0FFh, 001h, 0F0h, 07Fh, 001h, 0F0h, 01Eh, 00Fh
	. . .
160C	1E 0F 

160E	81 FF 01 F0              DB 081h, 0FFh, 001h, 0F0h, 03Fh, 001h, 0F0h, 01Eh, 007h, 0C0h
	. . .
1616	07 C0 

1618	FF 80 F8 1F              DB 0FFh, 080h, 0F8h, 01Fh, 000h, 0F8h, 00Fh, 001h, 0F0h, 07Fh
	. . .
1620	F0 7F 

1622	E0 FE 07 C0              DB 0E0h, 0FEh, 007h, 0C0h, 0FEh, 003h, 080h, 0FCh, 00Fh, 0F0h
	. . .
162A	0F F0 

162C	1F 00 F8 1F              DB 01Fh, 000h, 0F8h, 01Fh, 000h, 0F0h, 01Fh, 001h, 0FEh, 003h
	. . .
1634	FE 03 

1636	E0 7F 03 E0              DB 0E0h, 07Fh, 003h, 0E0h, 03Eh, 003h, 0E0h, 07Fh, 000h, 0FEh
	. . .
163E	00 FE 

1640	0F C0 FC 07              DB 00Fh, 0C0h, 0FCh, 007h, 080h, 07Eh, 007h, 0F0h, 00Fh, 080h
	. . .
1648	0F 80 

164A	FE 0F 80 FC              DB 0FEh, 00Fh, 080h, 0FCh, 003h, 0E0h, 0FFh, 000h, 0FCh, 00Fh
	. . .
1652	FC 0F 

1654	C0 FC 07 80              DB 0C0h, 0FCh, 007h, 080h, 01Fh, 001h, 0F8h, 003h, 0C0h, 0FFh
	. . .
165C	C0 FF 

165E	07 C0 3C 00              DB 007h, 0C0h, 03Ch, 000h, 0FCh, 00Fh, 0C0h, 01Fh, 003h, 0F8h
	. . .
1666	03 F8 

1668	1F 00 E0 00              DB 01Fh, 000h, 0E0h, 000h, 0F8h, 03Fh, 000h, 07Eh, 00Fh, 0F8h
	. . .
1670	0F F8 

1672	3F 00 80 01              DB 03Fh, 000h, 080h, 001h, 0F0h, 07Fh, 000h, 0FCh, 01Fh, 0E0h
	. . .
167A	1F E0 

167C	FC 01 00 01              DB 0FCh, 001h, 000h, 001h, 0F0h, 07Fh, 000h, 0FCh, 01Fh, 0F0h
	. . .
1684	1F F0 

1686	FE 01 00 00              DB 0FEh, 001h, 000h, 000h, 0F8h, 03Fh, 000h, 0FEh, 00Fh, 0F0h
	. . .
168E	0F F0 

1690	7E 00 80 00              DB 07Eh, 000h, 080h, 000h, 0FCh, 00Fh, 0C0h, 03Fh, 003h, 0FEh
	. . .
1698	03 FE 

169A	1F 00 00 00              DB 01Fh, 000h, 000h, 000h, 07Fh, 007h, 0E0h, 01Fh, 001h, 0FEh
	. . .
16A2	01 FE 

16A4	0F 80 08 00              DB 00Fh, 080h, 008h, 000h, 00Fh, 080h, 0FCh, 003h, 0E0h, 0FFh
	. . .
16AC	E0 FF 

16AE	81 E0 00 00              DB 081h, 0E0h, 000h, 000h, 001h, 0F0h, 07Fh, 060h, 0FCh, 01Fh
	. . .
16B6	FC 1F 

16B8	E0 FE 00 00              DB 0E0h, 0FEh, 000h, 000h, 000h, 07Fh, 007h, 0FCh, 01Fh, 001h
	. . .
16C0	1F 01 

16C2	FE 1F 00 0E              DB 0FEh, 01Fh, 000h, 00Eh, 000h, 00Fh, 080h, 0FFh, 003h, 0E0h
	. . .
16CA	03 E0 

16CC	FF 01 F0 03              DB 0FFh, 001h, 0F0h, 003h, 080h, 000h, 0F8h, 03Fh, 0C0h, 0FCh
	. . .
16D4	C0 FC 

16D6	01 F0 FF 00              DB 001h, 0F0h, 0FFh, 000h, 0F0h, 000h, 07Fh, 027h, 0F8h, 03Fh
	. . .
16DE	F8 3F 

16E0	20 FE 1F E0              DB 020h, 0FEh, 01Fh, 0E0h, 03Eh, 000h, 01Fh, 000h, 0FFh, 007h
	. . .
16E8	FF 07 

16EA	FC 1F 00 FE              DB 0FCh, 01Fh, 000h, 0FEh, 001h, 0C0h, 003h, 0F0h, 03Fh, 0C0h
	. . .
16F2	3F C0 

16F4	FF 03 FC 0F              DB 0FFh, 003h, 0FCh, 00Fh, 000h, 03Eh, 000h, 0FEh, 006h, 0F8h
	. . .
16FC	06 F8 

16FE	27 F0 FF 80              DB 027h, 0F0h, 0FFh, 080h, 0E0h, 003h, 000h, 01Fh, 000h, 03Fh
	. . .
1706	00 3F 

1708	00 FF 0C FC              DB 000h, 0FFh, 00Ch, 0FCh, 00Ch, 080h, 0C0h, 00Fh, 0CCh, 01Fh
	. . .
1710	CC 1F 

1712	E0 3F F0 FF              DB 0E0h, 03Fh, 0F0h, 0FFh, 0C0h, 000h, 000h, 007h, 0E6h, 007h
	. . .
171A	E6 07 

171C	F8 03 FD 00              DB 0F8h, 003h, 0FDh, 000h, 0FCh, 000h, 000h, 001h, 0FFh, 000h
	. . .
1724	FF 00 

1726	FF 00 FF C0              DB 0FFh, 000h, 0FFh, 0C0h, 01Fh, 000h, 000h, 001h, 0FFh, 000h
	. . .
172E	FF 00 

1730	FF B0 CF FC              DB 0FFh, 0B0h, 0CFh, 0FCh, 006h, 0C0h, 000h, 001h, 0BFh, 000h
	. . .
1738	BF 00 

173A	1F F8 03 FF              DB 01Fh, 0F8h, 003h, 0FFh, 080h, 000h, 000h, 000h, 0BFh, 0FCh
	. . .
1742	BF FC 

1744	00 FF FF 00              DB 000h, 0FFh, 0FFh, 000h, 07Fh, 000h, 000h, 003h, 07Fh, 0FFh
	. . .
174C	7F FF 

174E	63 73 FF FF              DB 063h, 073h, 0FFh, 0FFh, 000h, 000h, 000h, 000h, 00Fh, 0FFh
	. . .
1756	0F FF 

1758	FF FF 80 00              DB 0FFh, 0FFh, 080h, 000h, 000h, 000h, 000h, 00Fh, 0FFh, 0FFh
	. . .
1760	FF FF 

1762	FF FF FC 00              DB 0FFh, 0FFh, 0FCh, 000h, 000h, 000h, 000h, 003h, 0FFh, 0FFh
	. . .
176A	FF FF 

176C	FF FF F8 00              DB 0FFh, 0FFh, 0F8h, 000h, 000h, 000h, 000h, 000h, 0FFh, 0FFh
	. . .
1774	FF FF 

1776	FF FF FF FF              DB 0FFh, 0FFh, 0FFh, 0FFh, 0FFh, 0FFh, 0FFh, 0FFh, 0FFh, 0FFh
	. . .
177E	FF FF 

1780	FF FF FF E0              DB 0FFh, 0FFh, 0FFh, 0E0h, 000h, 000h, 000h, 07Fh, 0FFh, 0FFh
	. . .
1788	FF FF 

178A	FF FF 80 00              DB 0FFh, 0FFh, 080h, 000h, 000h, 000h, 000h, 01Fh, 0FFh, 0FFh
	. . .
1792	FF FF 

1794	FF FF FF FF              DB 0FFh, 0FFh, 0FFh, 0FFh, 0FFh, 0FFh, 0FFh, 0FFh, 0FFh, 0FFh
	. . .
179C	FF FF 

179E	FF FF E0 00              DB 0FFh, 0FFh, 0E0h, 000h, 000h, 000h, 000h, 00Fh, 0FFh, 0FFh
	. . .
17A6	FF FF 

17A8	FF FF FC 00              DB 0FFh, 0FFh, 0FCh, 000h, 000h, 0FFh, 0FFh, 0FFh, 0FFh, 0FFh
	. . .
17B0	FF FF 

17B2	FF FF FF FF              DB 0FFh, 0FFh, 0FFh, 0FFh, 0FFh, 0FFh, 0FFh, 0FFh, 0FFh, 0FFh
	. . .
17BA	FF FF 

17BC	FF FF FF F0              DB 0FFh, 0FFh, 0FFh, 0F0h, 000h, 000h, 000h, 000h, 000h, 0FFh
	. . .
17C4	00 FF 

17C6	FF FF FF FF              DB 0FFh, 0FFh, 0FFh, 0FFh, 0FFh, 0FFh, 0FFh, 0FFh, 0FFh, 0FFh
	. . .
17CE	FF FF 

17D0	FF FF FF FF              DB 0FFh, 0FFh, 0FFh, 0FFh, 0F8h, 000h, 000h, 000h, 000h, 000h
	. . .
17D8	00 00 

17DA	FF FF FF FF              DB 0FFh, 0FFh, 0FFh, 0FFh, 0FFh, 0F0h, 000h, 003h, 0FFh, 0FFh
	. . .
17E2	FF FF 

17E4	FF FF FF E7              DB 0FFh, 0FFh, 0FFh, 0E7h, 0DCh, 01Bh, 0E4h, 023h, 0A2h, 000h
	. . .
17EC	A2 00 

17EE	00 FF FF DD              DB 000h, 0FFh, 0FFh, 0DDh, 0FFh, 0FFh, 0FFh, 0FFh, 0FFh, 0F0h
	. . .
17F6	FF F0 

17F8	00 00 00 00              DB 000h, 000h, 000h, 000h, 000h, 00Fh, 0FFh, 0FFh, 0FFh, 0FFh
	. . .
1800	FF FF 

1802	FF F9 00 00              DB 0FFh, 0F9h, 000h, 000h, 000h, 03Fh, 0FBh, 05Fh, 0FFh, 0FFh
	. . .
180A	FF FF 

180C	FF FF F0 00              DB 0FFh, 0FFh, 0F0h, 000h, 000h, 018h, 000h, 000h, 000h, 000h
	. . .
1814	00 00 

1816	19 FF FF FF              DB 019h, 0FFh, 0FFh, 0FFh, 01Fh, 0FFh, 0F0h, 000h, 000h, 000h
	. . .
181E	00 00 

1820	01 7F FD 00              DB 001h, 07Fh, 0FDh, 000h, 01Fh, 0FFh, 0FCh, 000h, 000h, 000h
	. . .
1828	00 00 

182A	03 7F F9 00              DB 003h, 07Fh, 0F9h, 000h, 000h, 0FFh, 0F8h, 000h, 000h, 000h
	. . .
1832	00 00 

1834	0C FF FE 80              DB 00Ch, 0FFh, 0FEh, 080h, 001h, 0FFh, 0FEh, 000h, 000h, 000h
	. . .
183C	00 00 

183E	04 FF FF 40              DB 004h, 0FFh, 0FFh, 040h, 000h, 0FFh, 0FFh, 000h, 000h, 000h
	. . .
1846	00 00 

1848	01 7F FF 10              DB 001h, 07Fh, 0FFh, 010h, 001h, 0FFh, 0FFh, 000h, 000h, 000h
	. . .
1850	00 00 

1852	00 9F FF CC              DB 000h, 09Fh, 0FFh, 0CCh, 000h, 0FFh, 0FFh, 0C0h, 000h, 000h
	. . .
185A	00 00 

185C	00 67 FF F1              DB 000h, 067h, 0FFh, 0F1h, 000h, 03Fh, 0FFh, 0F0h, 000h, 000h
	. . .
1864	00 00 

1866	00 0C DF FE              DB 000h, 00Ch, 0DFh, 0FEh, 0C0h, 006h, 0FFh, 0FEh, 000h, 000h
	. . .
186E	00 00 

1870	00 00 39 FF              DB 000h, 000h, 039h, 0FFh, 098h, 000h, 09Fh, 0FFh, 080h, 000h
	. . .
1878	80 00 

187A	00 00 11 3F              DB 000h, 000h, 011h, 03Fh, 0FFh, 000h, 000h, 0FFh, 0FDh, 000h
	. . .
1882	FD 00 

1884	00 00 00 39              DB 000h, 000h, 000h, 039h, 0FFh, 0F8h, 000h, 01Fh, 0FFh, 0F0h
	. . .
188C	FF F0 

188E	00 00 00 19              DB 000h, 000h, 000h, 019h, 0BFh, 0FFh, 000h, 000h, 0FFh, 0FFh
	. . .
1896	FF FF 

1898	00 00 00 00              DB 000h, 000h, 000h, 000h, 01Dh, 0FFh, 0F8h, 000h, 00Fh, 0FFh
	. . .
18A0	0F FF 

18A2	F8 00 00 00              DB 0F8h, 000h, 000h, 000h, 004h, 0DFh, 0FFh, 080h, 000h, 0FFh
	. . .
18AA	00 FF 

18AC	FF 00 00 00              DB 0FFh, 000h, 000h, 000h, 000h, 08Eh, 0FFh, 0FCh, 000h, 007h
	. . .
18B4	00 07 

18B6	FF FC 00 00              DB 0FFh, 0FCh, 000h, 000h, 000h, 00Ch, 0DFh, 0FFh, 0C0h, 000h
	. . .
18BE	C0 00 

18C0	FF FF 80 00              DB 0FFh, 0FFh, 080h, 000h, 000h, 000h, 0CFh, 0FFh, 0FEh, 000h
	. . .
18C8	FE 00 

18CA	07 FF FC 00              DB 007h, 0FFh, 0FCh, 000h, 000h, 000h, 002h, 0E7h, 0FFh, 0E0h
	. . .
18D2	FF E0 

18D4	00 7F FF C0              DB 000h, 07Fh, 0FFh, 0C0h, 000h, 000h, 000h, 033h, 0FFh, 0FFh
	. . .
18DC	FF FF 

18DE	00 03 FF FE              DB 000h, 003h, 0FFh, 0FEh, 000h, 000h, 000h, 003h, 077h, 0FFh
	. . .
18E6	77 FF 

18E8	E0 00 3F FF              DB 0E0h, 000h, 03Fh, 0FFh, 0E0h, 000h, 000h, 000h, 013h, 07Fh
	. . .
18F0	13 7F 

18F2	FF 00 01 FF              DB 0FFh, 000h, 001h, 0FFh, 0FFh, 000h, 000h, 000h, 000h, 01Dh
	. . .
18FA	00 1D 

18FC	FF F8 00 0F              DB 0FFh, 0F8h, 000h, 00Fh, 0FFh, 0F8h, 000h, 000h, 000h, 00Ch
	. . .
1904	00 0C 

1906	9F FF 80 00              DB 09Fh, 0FFh, 080h, 000h, 0FFh, 0FFh, 080h, 000h, 000h, 000h
	. . .
190E	00 00 

1910	8F FF FC 00              DB 08Fh, 0FFh, 0FCh, 000h, 007h, 0FFh, 0FEh, 000h, 000h, 000h
	. . .
1918	00 00 

191A	01 73 FF E0              DB 001h, 073h, 0FFh, 0E0h, 000h, 03Fh, 0FFh, 0E0h, 000h, 000h
	. . .
1922	00 00 

1924	00 18 3F FF              DB 000h, 018h, 03Fh, 0FFh, 000h, 000h, 0FFh, 0FFh, 080h, 000h
	. . .
192C	80 00 

192E	00 00 23 FF              DB 000h, 000h, 023h, 0FFh, 0FFh, 000h, 003h, 0FFh, 0FFh, 000h
	. . .
1936	FF 00 

1938	00 00 00 8E              DB 000h, 000h, 000h, 08Eh, 0FFh, 0FCh, 000h, 007h, 0FFh, 0FEh
	. . .
1940	FF FE 

1942	00 00 00 00              DB 000h, 000h, 000h, 000h, 01Dh, 0FFh, 0F8h, 000h, 00Fh, 0FFh
	. . .
194A	0F FF 

194C	FC 00 00 00              DB 0FCh, 000h, 000h, 000h, 001h, 03Bh, 0FFh, 0F0h, 000h, 01Fh
	. . .
1954	00 1F 

1956	FF F8 00 00              DB 0FFh, 0F8h, 000h, 000h, 000h, 001h, 073h, 0FFh, 0F0h, 000h
	. . .
195E	F0 00 

1960	3B FF F0 00              DB 03Bh, 0FFh, 0F0h, 000h, 000h, 000h, 001h, 073h, 0FFh, 0F0h
	. . .
1968	FF F0 

196A	00 3F FF F0              DB 000h, 03Fh, 0FFh, 0F0h, 000h, 000h, 000h, 001h, 077h, 0FFh
	. . .
1972	77 FF 

1974	E0 00 3B FF              DB 0E0h, 000h, 03Bh, 0FFh, 0F0h, 000h, 000h, 000h, 001h, 077h
	. . .
197C	01 77 

197E	FF E0 00 3F              DB 0FFh, 0E0h, 000h, 03Fh, 0FFh, 0F0h, 000h, 000h, 000h, 000h
	. . .
1986	00 00 

1988	1D FF F8 00              DB 01Dh, 0FFh, 0F8h, 000h, 00Fh, 0FFh, 0FCh, 000h, 000h, 000h
	. . .
1990	00 00 

1992	00 07 FF FF              DB 000h, 007h, 0FFh, 0FFh, 000h, 003h, 0FFh, 0FFh, 000h, 000h
	. . .
199A	00 00 

199C	00 00 04 CF              DB 000h, 000h, 004h, 0CFh, 0FFh, 0C0h, 000h, 0FFh, 0FFh, 0C0h
	. . .
19A4	FF C0 

19A6	00 00 00 00              DB 000h, 000h, 000h, 000h, 00Fh, 0FFh, 0FCh, 000h, 007h, 0FFh
	. . .
19AE	07 FF 

19B0	FE 00 00 00              DB 0FEh, 000h, 000h, 000h, 000h, 001h, 07Fh, 0FFh, 0E0h, 000h
	. . .
19B8	E0 00 

19BA	FF FF 80 00              DB 0FFh, 0FFh, 080h, 000h, 000h, 000h, 000h, 00Ch, 0FFh, 0FCh
	. . .
19C2	FF FC 

19C4	00 07 FF FC              DB 000h, 007h, 0FFh, 0FCh, 000h, 000h, 000h, 000h, 000h, 01Fh
	. . .
19CC	00 1F 

19CE	FF FC 00 3F              DB 0FFh, 0FCh, 000h, 03Fh, 0FFh, 0FCh, 001h, 018h, 000h, 000h
	. . .
19D6	00 00 

19D8	00 07 FF FF              DB 000h, 007h, 0FFh, 0FFh, 040h, 00Fh, 0FFh, 0FFh, 0FFh, 080h
	. . .
19E0	FF 80 

19E2	00 00 00 00              DB 000h, 000h, 000h, 000h, 07Fh, 0FFh, 0FCh, 000h, 0FFh, 0FFh
	. . .
19EA	FF FF 

19EC	FF E0 00 00              DB 0FFh, 0E0h, 000h, 000h, 000h, 000h, 00Fh, 0FFh, 0FFh, 0FFh
	. . .
19F4	FF FF 

19F6	FF FF FF FF              DB 0FFh, 0FFh, 0FFh, 0FFh, 000h, 000h, 000h, 000h, 000h, 000h
	. . .
19FE	00 00 

1A00	FF F8 00 00     lkahl:   DB 0FFh, 0F8h, 000h, 000h, 000h, 0FFh, 0FFh, 0FFh, 0FFh, 0FFh
	. . .
1A08	FF FF 

1A0A	FF FF FF FF              DB 0FFh, 0FFh, 0FFh, 0FFh, 0FFh, 0F8h, 0FFh, 0F9h, 0FCh, 07Fh
	. . .
1A12	FC 7F 

1A14	07 FC 7F F0              DB 007h, 0FCh, 07Fh, 0F0h, 0FFh, 0C0h, 0FFh, 003h, 000h, 07Eh
	. . .
1A1C	00 7E 

1A1E	06 7C 3E 7F              DB 006h, 07Ch, 03Eh, 07Fh, 0FFh, 0FFh, 0E0h, 07Eh, 000h, 0FCh
	. . .
1A26	00 FC 

1A28	7F F8 F8 E0              DB 07Fh, 0F8h, 0F8h, 0E0h, 0E0h, 01Fh, 087h, 0FEh, 00Fh, 004h
	. . .
1A30	0F 04 

1A32	0C 1F 0F 7E              DB 00Ch, 01Fh, 00Fh, 07Eh, 00Fh, 000h, 03Ch, 07Ch, 03Eh, 0FCh
	. . .
1A3A	3E FC 

1A3C	3C 60 E0 F8              DB 03Ch, 060h, 0E0h, 0F8h, 0F9h, 0E0h, 0F0h, 0C0h, 083h, 0C0h
	. . .
1A44	83 C0 

1A46	FF 81 C0 00              DB 0FFh, 081h, 0C0h, 000h, 00Fh, 003h, 0FFh, 00Fh, 006h, 000h
	. . .
1A4E	06 00 

1A50	3E 0F FC 3E              DB 03Eh, 00Fh, 0FCh, 03Eh, 000h, 0C1h, 0E0h, 0FFh, 0C0h, 0E0h
	. . .
1A58	C0 E0 

1A5A	01 1F 07 FC              DB 001h, 01Fh, 007h, 0FCh, 03Fh, 000h, 0C0h, 0F0h, 0FFh, 081h
	. . .
1A62	FF 81 

1A64	E0 06 1F 07              DB 0E0h, 006h, 01Fh, 007h, 0FCh, 03Eh, 000h, 001h, 0F0h, 0FFh
	. . .
1A6C	F0 FF 

1A6E	03 80 10 7E              DB 003h, 080h, 010h, 07Eh, 03Fh, 0F0h, 0F8h, 03Ch, 01Fh, 007h
	. . .
1A76	1F 07 

1A78	FC 3F 07 03              DB 0FCh, 03Fh, 007h, 003h, 081h, 0FFh, 007h, 001h, 080h, 0F8h
	. . .
1A80	80 F8 

1A82	FF 81 E0 30              DB 0FFh, 081h, 0E0h, 030h, 07Ch, 01Fh, 0F0h, 0F8h, 000h, 00Fh
	. . .
1A8A	00 0F 

1A8C	03 FE 1F 08              DB 003h, 0FEh, 01Fh, 008h, 001h, 0E0h, 0FFh, 003h, 0C0h, 0C0h
	. . .
1A94	C0 C0 

1A96	F8 3F E0 F8              DB 0F8h, 03Fh, 0E0h, 0F8h, 000h, 00Fh, 007h, 0FEh, 01Fh, 001h
	. . .
1A9E	1F 01 

1AA0	01 C0 FF 03              DB 001h, 0C0h, 0FFh, 003h, 080h, 080h, 07Eh, 01Fh, 0F0h, 0F8h
	. . .
1AA8	F0 F8 

1AAA	18 0F 03 FE              DB 018h, 00Fh, 003h, 0FEh, 01Fh, 018h, 000h, 0F0h, 0FFh, 001h
	. . .
1AB2	FF 01 

1AB4	C0 90 7C 1F              DB 0C0h, 090h, 07Ch, 01Fh, 0F0h, 0FCh, 000h, 007h, 081h, 0FFh
	. . .
1ABC	81 FF 

1ABE	0F 00 00 F0              DB 00Fh, 000h, 000h, 0F0h, 07Fh, 0E0h, 0F0h, 000h, 01Fh, 007h
	. . .
1AC6	1F 07 

1AC8	FC 3E 30 C1              DB 0FCh, 03Eh, 030h, 0C1h, 0E0h, 0FFh, 083h, 0C0h, 080h, 07Ch
	. . .
1AD0	80 7C 

1AD2	1F F0 F8 30              DB 01Fh, 0F0h, 0F8h, 030h, 007h, 001h, 0FFh, 00Fh, 000h, 060h
	. . .
1ADA	00 60 

1ADC	F0 FF C1 E0              DB 0F0h, 0FFh, 0C1h, 0E0h, 0C0h, 03Fh, 00Fh, 0F8h, 07Eh, 070h
	. . .
1AE4	7E 70 

1AE6	83 C0 FF 07              DB 083h, 0C0h, 0FFh, 007h, 003h, 000h, 0F8h, 03Fh, 0C0h, 0F0h
	. . .
1AEE	C0 F0 

1AF0	7F 0F 03 FC              DB 07Fh, 00Fh, 003h, 0FCh, 01Fh, 003h, 000h, 0E0h, 0FFh, 081h
	. . .
1AF8	FF 81 

1AFA	C1 80 1E 0F              DB 0C1h, 080h, 01Eh, 00Fh, 0F0h, 07Ch, 078h, 007h, 081h, 0FEh
	. . .
1B02	81 FE 

1B04	0F 07 00 E0              DB 00Fh, 007h, 000h, 0E0h, 0FFh, 001h, 0C0h, 0C0h, 03Eh, 00Fh
	. . .
1B0C	3E 0F 

1B0E	E0 F8 38 0F              DB 0E0h, 0F8h, 038h, 00Fh, 003h, 0FCh, 01Fh, 00Fh, 001h, 0C0h
	. . .
1B16	01 C0 

1B18	FF 07 01 00              DB 0FFh, 007h, 001h, 000h, 0E0h, 07Fh, 000h, 0C0h, 0E0h, 03Eh
	. . .
1B20	E0 3E 

1B22	0F E0 78 38              DB 00Fh, 0E0h, 078h, 038h, 00Fh, 003h, 0FCh, 01Fh, 00Fh, 000h
	. . .
1B2A	0F 00 

1B2C	E0 7F 01 80              DB 0E0h, 07Fh, 001h, 080h, 0C0h, 0F8h, 03Fh, 080h, 0F0h, 0F8h
	. . .
1B34	F0 F8 

1B36	E0 E0 FF 03              DB 0E0h, 0E0h, 0FFh, 003h, 080h, 084h, 0F0h, 07Fh, 0E0h, 0F0h
	. . .
1B3E	E0 F0 

1B40	F0 83 C1 FE              DB 0F0h, 083h, 0C1h, 0FEh, 00Fh, 000h, 081h, 080h, 0FFh, 083h
	. . .
1B48	FF 83 

1B4A	80 FE 07 C0              DB 080h, 0FEh, 007h, 0C0h, 0FEh, 00Fh, 001h, 080h, 0C0h, 0FFh
	. . .
1B52	C0 FF 

1B54	81 C0 C0 0F              DB 081h, 0C0h, 0C0h, 00Fh, 003h, 0F8h, 03Eh, 003h, 00Fh, 007h
	. . .
1B5C	0F 07 

1B5E	38 1E 0F FC              DB 038h, 01Eh, 00Fh, 0FCh, 07Ch, 0F0h, 07Eh, 00Fh, 00Fh, 000h
	. . .
1B66	0F 00 

1B68	F0 7F 00 E0              DB 0F0h, 07Fh, 000h, 0E0h, 0F8h, 00Fh, 003h, 0F8h, 03Eh, 000h
	. . .
1B70	3E 00 

1B72	07 03 1C 1F              DB 007h, 003h, 01Ch, 01Fh, 007h, 0F8h, 03Ch, 0F0h, 03Eh, 00Fh
	. . .
1B7A	3E 0F 

1B7C	00 7C 78 3C              DB 000h, 07Ch, 078h, 03Ch, 0F0h, 0F0h, 07Ch, 01Eh, 007h, 0F0h
	. . .
1B84	07 F0 

1B86	78 1C C7 01              DB 078h, 01Ch, 0C7h, 001h, 09Eh, 00Fh, 083h, 0E0h, 0C0h, 0E7h
	. . .
1B8E	C0 E7 

1B90	03 80 FF 07              DB 003h, 080h, 0FFh, 007h, 00Fh, 01Fh, 080h, 0CCh, 00Fh, 00Fh
	. . .
1B98	0F 0F 

1B9A	07 7C 3E 0C              DB 007h, 07Ch, 03Eh, 00Ch, 083h, 001h, 09Eh, 00Fh, 003h, 03Fh
	. . .
1BA2	03 3F 

1BA4	1F 83 FE 1F              DB 01Fh, 083h, 0FEh, 01Fh, 00Ch, 0F0h, 0F0h, 079h, 080h, 0C0h
	. . .
1BAC	80 C0 

1BAE	00 78 3C C0              DB 000h, 078h, 03Ch, 0C0h, 0E0h, 038h, 03Ch, 00Eh, 0E0h, 078h
	. . .
1BB6	E0 78 

1BB8	19 07 01 3C              DB 019h, 007h, 001h, 03Ch, 01Eh, 003h, 070h, 0C0h, 0E7h, 001h
	. . .
1BC0	E7 01 

1BC2	86 00 E0 79              DB 086h, 000h, 0E0h, 079h, 000h, 0C0h, 0E3h, 03Ch, 00Eh, 0E0h
	. . .
1BCA	0E E0 

1BCC	F0 08 1E 07              DB 0F0h, 008h, 01Eh, 007h, 070h, 03Ch, 00Eh, 0C3h, 080h, 0DEh
	. . .
1BD4	80 DE 

1BD6	0F 01 01 80              DB 00Fh, 001h, 001h, 080h, 0CFh, 007h, 001h, 09Fh, 01Fh, 007h
	. . .
1BDE	1F 07 

1BE0	F0 F8 00 3C              DB 0F0h, 0F8h, 000h, 03Ch, 00Eh, 0F0h, 078h, 01Ch, 0C3h, 090h
	. . .
1BE8	C3 90 

1BEA	DE 0F 00 07              DB 0DEh, 00Fh, 000h, 007h, 001h, 09Ch, 00Fh, 003h, 07Eh, 03Fh
	. . .
1BF2	7E 3F 

1BF4	00 F8 7E 00              DB 000h, 0F8h, 07Eh, 000h, 01Eh, 007h, 078h, 03Eh, 01Fh, 001h
	. . .
1BFC	1F 01 

1BFE	C8 FF 07 00              DB 0C8h, 0FFh, 007h, 000h, 003h, 000h, 08Eh, 007h, 000h, 03Eh
	. . .
1C06	00 3E 

1C08	0F 03 F8 7F              DB 00Fh, 003h, 0F8h, 07Fh, 080h, 078h, 01Eh, 0E0h, 0F8h, 07Dh
	. . .
1C10	F8 7D 

1C12	87 63 78 3F              DB 087h, 063h, 078h, 03Fh, 000h, 01Eh, 00Fh, 0F0h, 078h, 01Fh
	. . .
1C1A	78 1F 

1C1C	C1 E0 EF 07              DB 0C1h, 0E0h, 0EFh, 007h, 081h, 003h, 000h, 0CEh, 007h, 003h
	. . .
1C24	07 03 

1C26	08 C6 E7 03              DB 008h, 0C6h, 0E7h, 003h, 000h, 080h, 0C0h, 0E3h, 001h, 0C0h
	. . .
1C2E	01 C0 

1C30	00 C0 F3 03              DB 000h, 0C0h, 0F3h, 003h, 000h, 080h, 0C2h, 0E3h, 001h, 080h
	. . .
1C38	01 80 

1C3A	C4 F1 39 80              DB 0C4h, 0F1h, 039h, 080h, 0E0h, 000h, 0E0h, 0F3h, 003h, 080h
	. . .
1C42	03 80 

1C44	E0 F1 71 80              DB 0E0h, 0F1h, 071h, 080h, 0C0h, 060h, 0F0h, 039h, 080h, 0E0h
	. . .
1C4C	80 E0 

1C4E	C0 F0 3C C0              DB 0C0h, 0F0h, 03Ch, 0C0h, 0E0h, 070h, 070h, 038h, 0C0h, 0E0h
	. . .
1C56	C0 E0 

1C58	60 78 1C E0              DB 060h, 078h, 01Ch, 0E0h, 0F0h, 038h, 078h, 03Ch, 0C0h, 0E0h
	. . .
1C60	C0 E0 

1C62	78 38 1E E0              DB 078h, 038h, 01Eh, 0E0h, 0F0h, 008h, 03Ch, 01Eh, 0E0h, 0F0h
	. . .
1C6A	E0 F0 

1C6C	38 3C 1E F0              DB 038h, 03Ch, 01Eh, 0F0h, 0F0h, 030h, 01Ch, 00Fh, 0F0h, 078h
	. . .
1C74	F0 78 

1C76	1C 1E 07 78              DB 01Ch, 01Eh, 007h, 078h, 03Ch, 018h, 087h, 023h, 03Ch, 01Eh
	. . .
1C7E	3C 1E 

1C80	03 07 03 1E              DB 003h, 007h, 003h, 01Eh, 01Fh, 007h, 061h, 080h, 0CFh, 007h
	. . .
1C88	CF 07 

1C8A	01 80 C0 E3              DB 001h, 080h, 0C0h, 0E3h, 001h, 080h, 0E0h, 0F0h, 03Ch, 0C0h
	. . .
1C92	3C C0 

1C94	E0 70 3C 1E              DB 0E0h, 070h, 03Ch, 01Eh, 0F0h, 0F0h, 012h, 087h, 003h, 01Eh
	. . .
1C9C	03 1E 

1C9E	1E 03 03 01              DB 01Eh, 003h, 003h, 001h, 08Fh, 00Fh, 000h, 0F8h, 0F8h, 039h
	. . .
1CA6	F8 39 

1CA8	C0 E0 78 78              DB 0C0h, 0E0h, 078h, 078h, 01Ch, 0F8h, 0F8h, 038h, 0E1h, 0C0h
	. . .
1CB0	E1 C0 

1CB2	FF 03 07 01              DB 0FFh, 003h, 007h, 001h, 080h, 0E7h, 083h, 0E0h, 0FDh, 083h
	. . .
1CBA	FD 83 

1CBC	C0 FE 1F 07              DB 0C0h, 0FEh, 01Fh, 007h, 003h, 000h, 0CFh, 087h, 001h, 088h
	. . .
1CC4	01 88 

1CC6	1F 07 F8 3F              DB 01Fh, 007h, 0F8h, 03Fh, 080h, 03Eh, 00Fh, 0F6h, 07Fh, 01Fh
	. . .
1CCE	7F 1F 

1CD0	1C 3E 0F E0              DB 01Ch, 03Eh, 00Fh, 0E0h, 0F0h, 078h, 03Ch, 00Fh, 0FEh, 07Fh
	. . .
1CD8	FE 7F 

1CDA	1F 00 E0 7F              DB 01Fh, 000h, 0E0h, 07Fh, 001h, 081h, 080h, 0E0h, 079h, 0A0h
	. . .
1CE2	79 A0 

1CE4	F8 FB 00 E0              DB 0F8h, 0FBh, 000h, 0E0h, 0FFh, 003h, 080h, 0C0h, 0F0h, 079h
	. . .
1CEC	F0 79 

1CEE	F0 F0 63 03              DB 0F0h, 0F0h, 063h, 003h, 080h, 0FFh, 00Fh, 001h, 000h, 0C0h
	. . .
1CF6	00 C0 

1CF8	E3 C1 C0 FE              DB 0E3h, 0C1h, 0C0h, 0FEh, 00Fh, 003h, 07Ch, 03Eh, 000h, 000h
	. . .
1D00	00 00 

1D02	00 00 00 00              DB 000h, 000h, 000h, 000h, 000h, 000h, 000h, 000h, 000h, 000h
	. . .
1D0A	00 00 

1D0C	00 00 00 00              DB 000h, 000h, 000h, 000h, 000h, 000h, 000h, 000h, 000h, 000h
	. . .
1D14	00 00 

1D16	00 00 00 00              DB 000h, 000h, 000h, 000h, 000h, 000h, 000h, 000h, 000h, 000h
	. . .
1D1E	00 00 

1D20	00 00 00 00              DB 000h, 000h, 000h, 000h, 000h, 000h, 000h, 000h, 000h, 000h
	. . .
1D28	00 00 

1D2A	00 00 00 00              DB 000h, 000h, 000h, 000h, 000h, 000h, 000h, 000h, 000h, 000h
	. . .
1D32	00 00 

1D34	00 00 00 00              DB 000h, 000h, 000h, 000h, 000h, 000h, 000h, 000h, 000h, 000h
	. . .
1D3C	00 00 

1D3E	00 00 00 00              DB 000h, 000h, 000h, 000h, 000h, 000h, 000h, 000h, 000h, 000h
	. . .
1D46	00 00 

1D48	00 00 00 00              DB 000h, 000h, 000h, 000h, 000h, 000h, 000h, 000h, 000h, 000h
	. . .
1D50	00 00 

1D52	00 00 00 00              DB 000h, 000h, 000h, 000h, 000h, 000h, 000h, 000h, 000h, 000h
	. . .
1D5A	00 00 

1D5C	00 00 00 00              DB 000h, 000h, 000h, 000h, 000h, 000h, 000h, 000h, 000h, 000h
	. . .
1D64	00 00 

1D66	00 00 00 00              DB 000h, 000h, 000h, 000h, 000h, 000h, 000h, 000h, 000h, 000h
	. . .
1D6E	00 00 

1D70	00 00 00 00              DB 000h, 000h, 000h, 000h, 000h, 000h, 000h, 000h, 000h, 000h
	. . .
1D78	00 00 

1D7A	00 00 00 00              DB 000h, 000h, 000h, 000h, 000h, 000h, 000h, 000h, 000h, 000h
	. . .
1D82	00 00 

1D84	00 00 00 00              DB 000h, 000h, 000h, 000h, 000h, 000h, 000h, 000h, 000h, 000h
	. . .
1D8C	00 00 

1D8E	00 00 00 00              DB 000h, 000h, 000h, 000h, 000h, 000h, 000h, 000h, 000h, 000h
	. . .
1D96	00 00 

1D98	00 00 00 00              DB 000h, 000h, 000h, 000h, 000h, 000h, 000h, 000h, 000h, 000h
	. . .
1DA0	00 00 

1DA2	00 00 00 00              DB 000h, 000h, 000h, 000h, 000h, 000h, 000h, 000h, 000h, 000h
	. . .
1DAA	00 00 

1DAC	00 00 00 00              DB 000h, 000h, 000h, 000h, 000h, 000h, 000h, 000h, 000h, 000h
	. . .
1DB4	00 00 

1DB6	00 00 00 00              DB 000h, 000h, 000h, 000h, 000h, 000h, 000h, 000h, 000h, 000h
	. . .
1DBE	00 00 

1DC0	00 00 00 00              DB 000h, 000h, 000h, 000h, 000h, 000h, 000h, 000h, 000h, 000h
	. . .
1DC8	00 00 

1DCA	00 00 00 00              DB 000h, 000h, 000h, 000h, 000h, 000h, 000h, 000h, 000h, 000h
	. . .
1DD2	00 00 

1DD4	00 00 00 00              DB 000h, 000h, 000h, 000h, 000h, 000h, 000h, 000h, 000h, 000h
	. . .
1DDC	00 00 

1DDE	00 00 00 00              DB 000h, 000h, 000h, 000h, 000h, 000h, 000h, 000h, 000h, 000h
	. . .
1DE6	00 00 

1DE8	00 00 00 00              DB 000h, 000h, 000h, 000h, 000h, 000h, 000h, 000h, 000h, 000h
	. . .
1DF0	00 00 

1DF2	00 00 00 00              DB 000h, 000h, 000h, 000h, 000h, 000h, 000h, 000h, 000h, 000h
	. . .
1DFA	00 00 

1DFC	00 00 00 00              DB 000h, 000h, 000h, 000h
1E00	AF D0 DF D0     lkair:   DB 0AFh, 0D0h, 0DFh, 0D0h, 0AFh, 0D0h, 0DFh, 0D0h, 000h, 0D0h
	. . .
1E08	00 D0 

1E0A	DF D0 C6 D0              DB 0DFh, 0D0h, 0C6h, 0D0h, 0AFh, 0D0h, 0C6h, 0D0h, 000h, 050h
	. . .
1E12	00 50 

1E14	AF D0 C6 D0              DB 0AFh, 0D0h, 0C6h, 0D0h, 000h, 050h, 0DFh, 0D0h, 0AFh, 0D0h
	. . .
1E1C	AF D0 

1E1E	00 FA FF FF              DB 000h, 0FAh, 0FFh, 0FFh, 000h, 000h, 000h, 000h, 000h, 000h
	. . .
1E26	00 00 

1E28	00 00 00 00              DB 000h, 000h, 000h, 000h, 000h, 000h, 000h, 000h, 000h, 000h
	. . .
1E30	00 00 

1E32	00 00 00 00              DB 000h, 000h, 000h, 000h, 000h, 000h, 000h, 000h, 000h, 000h
	. . .
1E3A	00 00 

1E3C	00 00 00 00              DB 000h, 000h, 000h, 000h, 000h, 000h, 000h, 000h, 000h, 000h
	. . .
1E44	00 00 

1E46	00 00 00 00              DB 000h, 000h, 000h, 000h, 000h, 000h, 000h, 000h, 000h, 000h
	. . .
1E4E	00 00 

1E50	00 00 00 00              DB 000h, 000h, 000h, 000h, 000h, 000h, 000h, 000h, 000h, 000h
	. . .
1E58	00 00 

1E5A	00 00 00 00              DB 000h, 000h, 000h, 000h, 000h, 000h, 000h, 000h, 000h, 000h
	. . .
1E62	00 00 

1E64	00 00 00 00              DB 000h, 000h, 000h, 000h, 000h, 000h, 000h, 000h, 000h, 000h
	. . .
1E6C	00 00 

1E6E	00 00 00 00              DB 000h, 000h, 000h, 000h, 000h, 000h, 000h, 000h, 000h, 000h
	. . .
1E76	00 00 

1E78	00 00 00 00              DB 000h, 000h, 000h, 000h, 000h, 000h, 000h, 000h, 000h, 000h
	. . .
1E80	00 00 

1E82	00 00 00 00              DB 000h, 000h, 000h, 000h, 000h, 000h, 000h, 000h, 000h, 000h
	. . .
1E8A	00 00 

1E8C	00 00 00 00              DB 000h, 000h, 000h, 000h, 000h, 000h, 000h, 000h, 000h, 000h
	. . .
1E94	00 00 

1E96	00 00 00 00              DB 000h, 000h, 000h, 000h, 000h, 000h, 000h, 000h, 000h, 000h
	. . .
1E9E	00 00 

1EA0	00 00 00 00              DB 000h, 000h, 000h, 000h, 000h, 000h, 000h, 000h, 000h, 000h
	. . .
1EA8	00 00 

1EAA	00 00 00 00              DB 000h, 000h, 000h, 000h, 000h, 000h, 000h, 000h, 000h, 000h
	. . .
1EB2	00 00 

1EB4	00 00 00 00              DB 000h, 000h, 000h, 000h, 000h, 000h, 000h, 000h, 000h, 000h
	. . .
1EBC	00 00 

1EBE	00 00 00 00              DB 000h, 000h, 000h, 000h, 000h, 000h, 000h, 000h, 000h, 000h
	. . .
1EC6	00 00 

1EC8	00 00 00 00              DB 000h, 000h, 000h, 000h, 000h, 000h, 000h, 000h
	. . .
1ECC	00 00 00 00 

1ED0	DF 80 DF 80     lkagi:   DB 0DFh, 080h, 0DFh, 080h, 0C6h, 080h, 0C6h, 080h, 000h, 050h
	. . .
1ED8	00 50 

1EDA	FA 80 FA 80              DB 0FAh, 080h, 0FAh, 080h, 0DFh, 080h, 0C6h, 080h, 0FFh, 0FFh
	. . .
1EE2	FF FF 

1EE4	FF 00 00 00              DB 0FFh, 000h, 000h, 000h, 000h, 000h, 000h, 000h, 000h, 000h
	. . .
1EEC	00 00 

1EEE	00 00 00 00              DB 000h, 000h, 000h, 000h, 000h, 000h, 000h, 000h, 000h, 000h
	. . .
1EF6	00 00 

1EF8	00 00 00 00              DB 000h, 000h, 000h, 000h, 000h, 000h, 000h, 000h, 000h, 000h
	. . .
1F00	00 00 

1F02	00 00 00 00              DB 000h, 000h, 000h, 000h, 000h, 000h, 000h, 000h, 000h, 000h
	. . .
1F0A	00 00 

1F0C	00 00 00 00              DB 000h, 000h, 000h, 000h, 000h, 000h, 000h, 000h, 000h, 000h
	. . .
1F14	00 00 

1F16	00 00 00 63              DB 000h, 000h, 000h, 063h, 098h, 000h, 000h, 000h, 000h, 000h
	. . .
1F1E	00 00 

1F20	00 00 00 00              DB 000h, 000h, 000h, 000h, 000h, 000h, 000h, 000h, 000h, 000h
	. . .
1F28	00 00 

1F2A	00 00 00 00              DB 000h, 000h, 000h, 000h, 000h, 000h, 000h, 000h, 000h, 000h
	. . .
1F32	00 00 

1F34	00 00 00 00              DB 000h, 000h, 000h, 000h, 000h, 000h, 000h, 000h, 000h, 000h
	. . .
1F3C	00 00 

1F3E	00 00 00 00              DB 000h, 000h, 000h, 000h, 000h, 000h, 000h, 000h, 000h, 000h
	. . .
1F46	00 00 

1F48	00 00 00 00              DB 000h, 000h, 000h, 000h, 000h, 000h, 000h, 000h, 000h, 000h
	. . .
1F50	00 00 

1F52	00 00 00 00              DB 000h, 000h, 000h, 000h, 000h, 000h, 000h, 000h, 000h, 000h
	. . .
1F5A	00 00 

1F5C	00 00 00 00              DB 000h, 000h, 000h, 000h, 000h, 000h, 000h, 000h, 000h, 000h
	. . .
1F64	00 00 

1F66	00 00 00 00              DB 000h, 000h, 000h, 000h, 000h, 000h, 000h, 000h, 000h, 000h
	. . .
1F6E	00 00 

1F70	00 00 00 00              DB 000h, 000h, 000h, 000h, 000h, 000h, 000h, 000h, 000h, 000h
	. . .
1F78	00 00 

1F7A	00 00 00 00              DB 000h, 000h, 000h, 000h, 000h, 000h
	. . .
1F7E	00 00 

1F80	FA D0 DF D0     lkais:   DB 0FAh, 0D0h, 0DFh, 0D0h, 000h, 040h, 0FAh, 0F0h, 0DFh, 0F0h
	. . .
1F88	DF F0 

1F8A	C6 F0 DF F0              DB 0C6h, 0F0h, 0DFh, 0F0h, 0FAh, 0F0h, 0FAh, 0F0h, 000h, 0F0h
	. . .
1F92	00 F0 

1F94	FF FF FF 00              DB 0FFh, 0FFh, 0FFh, 000h, 000h, 000h, 000h, 000h, 000h, 000h
	. . .
1F9C	00 00 

1F9E	00 00 00 00              DB 000h, 000h, 000h, 000h, 000h, 000h, 000h, 000h, 000h, 000h
	. . .
1FA6	00 00 

1FA8	00 00 00 00              DB 000h, 000h, 000h, 000h, 000h, 000h, 000h, 000h, 000h, 000h
	. . .
1FB0	00 00 

1FB2	00 00 00 00              DB 000h, 000h, 000h, 000h, 000h, 000h, 000h, 000h, 000h, 000h
	. . .
1FBA	00 00 

1FBC	00 00 00 00              DB 000h, 000h, 000h, 000h, 000h, 000h, 000h, 000h, 000h, 000h
	. . .
1FC4	00 00 

1FC6	00 00 00 00              DB 000h, 000h, 000h, 000h, 000h, 000h, 000h, 000h, 000h, 000h
	. . .
1FCE	00 00 

1FD0	00 00 00 00              DB 000h, 000h, 000h, 000h, 000h, 000h, 000h, 000h, 000h, 000h
	. . .
1FD8	00 00 

1FDA	00 00 00 00              DB 000h, 000h, 000h, 000h, 000h, 000h, 000h, 000h, 000h, 000h
	. . .
1FE2	00 00 

1FE4	00 00 00 00              DB 000h, 000h, 000h, 000h, 000h, 000h, 000h, 000h, 000h, 000h
	. . .
1FEC	00 00 

1FEE	00 00 00 00              DB 000h, 000h, 000h, 000h, 000h, 000h, 000h, 000h, 000h, 000h
	. . .
1FF6	00 00 

1FF8	00 00 00 00              DB 000h, 000h, 000h, 000h, 000h, 000h, 000h, 000h
	. . .
1FFC	00 00 00 00 

2000	09 09 09 09     lkfav:   DB 009h, 009h, 009h, 009h, 009h, 009h, 009h, 009h, 009h, 009h
	. . .
2008	09 09 

200A	09 09 09 09              DB 009h, 009h, 009h, 009h, 009h, 009h, 009h, 009h, 009h, 009h
	. . .
2012	09 09 

2014	09 09 09 09              DB 009h, 009h, 009h, 009h, 009h, 009h, 009h, 009h, 009h, 000h
	. . .
201C	09 00 

201E	00 00 00 00              DB 000h, 000h, 000h, 000h, 000h, 000h, 000h, 000h, 000h, 000h
	. . .
2026	00 00 

2028	00 00 00 00              DB 000h, 000h, 000h, 000h, 000h, 000h, 000h, 000h, 000h, 000h
	. . .
2030	00 00 

2032	00 00 00 00              DB 000h, 000h, 000h, 000h, 000h, 009h, 009h, 000h, 000h, 000h
	. . .
203A	00 00 

203C	00 00 00 00              DB 000h, 000h, 000h, 000h, 000h, 000h, 000h, 000h, 000h, 000h
	. . .
2044	00 00 

2046	00 00 00 00              DB 000h, 000h, 000h, 000h, 000h, 000h, 000h, 000h, 000h, 000h
	. . .
204E	00 00 

2050	00 00 00 09              DB 000h, 000h, 000h, 009h, 009h, 000h, 000h, 000h, 000h, 000h
	. . .
2058	00 00 

205A	00 09 00 00              DB 000h, 009h, 000h, 000h, 000h, 000h, 000h, 000h, 000h, 000h
	. . .
2062	00 00 

2064	00 00 00 00              DB 000h, 000h, 000h, 000h, 009h, 000h, 000h, 000h, 000h, 000h
	. . .
206C	00 00 

206E	00 09 09 00              DB 000h, 009h, 009h, 000h, 000h, 000h, 000h, 000h, 000h, 009h
	. . .
2076	00 09 

2078	09 09 09 09              DB 009h, 009h, 009h, 009h, 009h, 009h, 009h, 009h, 009h, 009h
	. . .
2080	09 09 

2082	09 09 09 00              DB 009h, 009h, 009h, 000h, 000h, 000h, 000h, 000h, 000h, 009h
	. . .
208A	00 09 

208C	09 00 00 00              DB 009h, 000h, 000h, 000h, 000h, 000h, 000h, 009h, 009h, 009h
	. . .
2094	09 09 

2096	09 09 09 09              DB 009h, 009h, 009h, 009h, 009h, 009h, 009h, 009h, 009h, 009h
	. . .
209E	09 09 

20A0	09 00 00 00              DB 009h, 000h, 000h, 000h, 000h, 000h, 000h, 009h, 009h, 000h
	. . .
20A8	09 00 

20AA	00 00 00 00              DB 000h, 000h, 000h, 000h, 000h, 009h, 000h, 000h, 000h, 000h
	. . .
20B2	00 00 

20B4	00 09 00 00              DB 000h, 009h, 000h, 000h, 000h, 000h, 000h, 000h, 009h, 000h
	. . .
20BC	09 00 

20BE	00 00 00 00              DB 000h, 000h, 000h, 000h, 000h, 009h, 009h, 000h, 000h, 000h
	. . .
20C6	00 00 

20C8	00 00 00 09              DB 000h, 000h, 000h, 009h, 000h, 000h, 000h, 000h, 000h, 009h
	. . .
20D0	00 09 

20D2	00 00 00 00              DB 000h, 000h, 000h, 000h, 000h, 000h, 009h, 000h, 000h, 000h
	. . .
20DA	00 00 

20DC	00 00 00 09              DB 000h, 000h, 000h, 009h, 009h, 000h, 000h, 000h, 000h, 000h
	. . .
20E4	00 00 

20E6	00 09 09 00              DB 000h, 009h, 009h, 000h, 000h, 000h, 009h, 009h, 000h, 000h
	. . .
20EE	00 00 

20F0	00 00 00 00              DB 000h, 000h, 000h, 000h, 009h, 000h, 000h, 000h, 000h, 000h
	. . .
20F8	00 00 

20FA	00 09 09 00              DB 000h, 009h, 009h, 000h, 000h, 000h, 000h, 000h, 000h, 000h
	. . .
2102	00 00 

2104	09 09 09 09              DB 009h, 009h, 009h, 009h, 009h, 000h, 009h, 000h, 000h, 000h
	. . .
210C	00 00 

210E	00 09 09 00              DB 000h, 009h, 009h, 000h, 000h, 000h, 000h, 000h, 000h, 009h
	. . .
2116	00 09 

2118	09 00 00 00              DB 009h, 000h, 000h, 000h, 000h, 000h, 000h, 000h, 000h, 009h
	. . .
2120	00 09 

2122	09 09 00 00              DB 009h, 009h, 000h, 000h, 009h, 009h, 009h, 009h, 009h, 009h
	. . .
212A	09 09 

212C	00 00 00 00              DB 000h, 000h, 000h, 000h, 000h, 000h, 000h, 009h, 009h, 000h
	. . .
2134	09 00 

2136	00 00 00 00              DB 000h, 000h, 000h, 000h, 000h, 000h, 000h, 000h, 000h, 000h
	. . .
213E	00 00 

2140	00 00 00 09              DB 000h, 000h, 000h, 009h, 009h, 009h, 009h, 000h, 000h, 000h
	. . .
2148	00 00 

214A	00 00 00 00              DB 000h, 000h, 000h, 000h, 000h, 009h, 009h, 000h, 000h, 000h
	. . .
2152	00 00 

2154	00 00 00 00              DB 000h, 000h, 000h, 000h, 000h, 000h, 000h, 000h, 000h, 000h
	. . .
215C	00 00 

215E	00 00 00 00              DB 000h, 000h, 000h, 000h, 000h, 000h, 000h, 000h, 000h, 000h
	. . .
2166	00 00 

2168	00 00 00 09              DB 000h, 000h, 000h, 009h, 009h, 000h, 000h, 000h, 000h, 000h
	. . .
2170	00 00 

2172	00 09 09 09              DB 000h, 009h, 009h, 009h, 009h, 009h, 009h, 009h, 009h, 009h
	. . .
217A	09 09 

217C	09 09 09 00              DB 009h, 009h, 009h, 000h, 000h, 000h, 000h, 000h, 000h, 000h
	. . .
2184	00 00 

2186	00 09 09 00              DB 000h, 009h, 009h, 000h, 000h, 000h, 000h, 000h, 000h, 009h
	. . .
218E	00 09 

2190	09 09 09 09              DB 009h, 009h, 009h, 009h, 009h, 009h, 009h, 009h, 009h, 009h
	. . .
2198	09 09 

219A	09 09 00 00              DB 009h, 009h, 000h, 000h, 000h, 000h, 000h, 000h, 000h, 009h
	. . .
21A2	00 09 

21A4	09 00 00 00              DB 009h, 000h, 000h, 000h, 000h, 000h, 000h, 000h, 000h, 000h
	. . .
21AC	00 00 

21AE	00 00 00 00              DB 000h, 000h, 000h, 000h, 000h, 000h, 000h, 000h, 000h, 009h
	. . .
21B6	00 09 

21B8	09 00 00 00              DB 009h, 000h, 000h, 000h, 000h, 000h, 000h, 009h, 009h, 000h
	. . .
21C0	09 00 

21C2	00 00 00 00              DB 000h, 000h, 000h, 000h, 000h, 000h, 000h, 000h, 000h, 000h
	. . .
21CA	00 00 

21CC	00 00 00 00              DB 000h, 000h, 000h, 000h, 000h, 000h, 000h, 000h, 009h, 000h
	. . .
21D4	09 00 

21D6	00 00 00 00              DB 000h, 000h, 000h, 000h, 000h, 009h, 009h, 000h, 000h, 000h
	. . .
21DE	00 00 

21E0	00 00 00 00              DB 000h, 000h, 000h, 000h, 000h, 000h, 000h, 000h, 000h, 000h
	. . .
21E8	00 00 

21EA	00 00 00 00              DB 000h, 000h, 000h, 000h, 000h, 000h, 009h, 000h, 000h, 000h
	. . .
21F2	00 00 

21F4	00 00 00 09              DB 000h, 000h, 000h, 009h, 009h, 000h, 000h, 000h, 000h, 000h
	. . .
21FC	00 00 

21FE	00 00 00 00              DB 000h, 000h, 000h, 000h, 000h, 000h, 000h, 000h, 000h, 000h
	. . .
2206	00 00 

2208	00 00 00 00              DB 000h, 000h, 000h, 000h, 009h, 000h, 000h, 000h, 000h, 000h
	. . .
2210	00 00 

2212	00 09 09 00              DB 000h, 009h, 009h, 000h, 000h, 000h, 000h, 000h, 000h, 000h
	. . .
221A	00 00 

221C	00 00 00 00              DB 000h, 000h, 000h, 000h, 000h, 000h, 000h, 000h, 000h, 000h
	. . .
2224	00 00 

2226	00 09 09 00              DB 000h, 009h, 009h, 000h, 000h, 000h, 000h, 000h, 000h, 009h
	. . .
222E	00 09 

2230	09 00 00 00              DB 009h, 000h, 000h, 000h, 000h, 000h, 000h, 009h, 009h, 009h
	. . .
2238	09 09 

223A	09 09 09 09              DB 009h, 009h, 009h, 009h, 009h, 009h, 009h, 009h, 009h, 009h
	. . .
2242	09 09 

2244	00 00 00 00              DB 000h, 000h, 000h, 000h, 000h, 000h, 000h, 009h, 009h, 000h
	. . .
224C	09 00 

224E	00 00 00 00              DB 000h, 000h, 000h, 000h, 000h, 009h, 009h, 009h, 009h, 009h
	. . .
2256	09 09 

2258	09 09 09 09              DB 009h, 009h, 009h, 009h, 009h, 009h, 009h, 000h, 000h, 000h
	. . .
2260	00 00 

2262	00 00 00 00              DB 000h, 000h, 000h, 000h, 000h, 009h, 009h, 000h, 000h, 000h
	. . .
226A	00 00 

226C	00 00 00 00              DB 000h, 000h, 000h, 000h, 000h, 000h, 000h, 000h, 000h, 000h
	. . .
2274	00 00 

2276	00 00 00 00              DB 000h, 000h, 000h, 000h, 000h, 000h, 000h, 000h, 000h, 000h
	. . .
227E	00 00 

2280	00 00 00 09              DB 000h, 000h, 000h, 009h, 009h, 000h, 000h, 000h, 000h, 000h
	. . .
2288	00 00 

228A	00 09 00 00              DB 000h, 009h, 000h, 000h, 000h, 000h, 000h, 000h, 000h, 000h
	. . .
2292	00 00 

2294	00 00 00 00              DB 000h, 000h, 000h, 000h, 009h, 000h, 000h, 000h, 000h, 000h
	. . .
229C	00 00 

229E	00 09 09 00              DB 000h, 009h, 009h, 000h, 000h, 000h, 000h, 000h, 000h, 009h
	. . .
22A6	00 09 

22A8	09 09 09 09              DB 009h, 009h, 009h, 009h, 009h, 009h, 009h, 009h, 009h, 009h
	. . .
22B0	09 09 

22B2	09 09 09 00              DB 009h, 009h, 009h, 000h, 000h, 000h, 000h, 000h, 000h, 009h
	. . .
22BA	00 09 

22BC	09 00 00 00              DB 009h, 000h, 000h, 000h, 000h, 000h, 000h, 009h, 009h, 009h
	. . .
22C4	09 09 

22C6	09 09 09 09              DB 009h, 009h, 009h, 009h, 009h, 009h, 009h, 009h, 009h, 009h
	. . .
22CE	09 09 

22D0	09 00 00 00              DB 009h, 000h, 000h, 000h, 000h, 000h, 000h, 009h, 009h, 000h
	. . .
22D8	09 00 

22DA	00 00 00 00              DB 000h, 000h, 000h, 000h, 000h, 009h, 000h, 000h, 000h, 000h
	. . .
22E2	00 00 

22E4	00 00 00 00              DB 000h, 000h, 000h, 000h, 000h, 000h, 000h, 000h, 009h, 000h
	. . .
22EC	09 00 

22EE	00 00 00 00              DB 000h, 000h, 000h, 000h, 000h, 009h, 009h, 000h, 000h, 000h
	. . .
22F6	00 00 

22F8	00 00 00 09              DB 000h, 000h, 000h, 009h, 000h, 000h, 000h, 000h, 000h, 000h
	. . .
2300	00 00 

2302	00 00 00 00              DB 000h, 000h, 000h, 000h, 000h, 000h, 009h, 000h, 000h, 000h
	. . .
230A	00 00 

230C	00 00 00 09              DB 000h, 000h, 000h, 009h, 009h, 000h, 000h, 000h, 000h, 000h
	. . .
2314	00 00 

2316	00 09 00 00              DB 000h, 009h, 000h, 000h, 000h, 000h, 000h, 000h, 000h, 000h
	. . .
231E	00 00 

2320	00 00 00 00              DB 000h, 000h, 000h, 000h, 009h, 000h, 000h, 000h, 000h, 000h
	. . .
2328	00 00 

232A	00 09 09 00              DB 000h, 009h, 009h, 000h, 000h, 000h, 000h, 000h, 000h, 009h
	. . .
2332	00 09 

2334	09 00 00 00              DB 009h, 000h, 000h, 000h, 000h, 000h, 000h, 000h, 000h, 000h
	. . .
233C	00 00 

233E	00 09 09 00              DB 000h, 009h, 009h, 000h, 000h, 000h, 000h, 000h, 000h, 009h
	. . .
2346	00 09 

2348	09 00 00 00              DB 009h, 000h, 000h, 000h, 000h, 000h, 000h, 000h, 009h, 009h
	. . .
2350	09 09 

2352	09 09 09 09              DB 009h, 009h, 009h, 009h, 009h, 009h, 009h, 009h, 009h, 009h
	. . .
235A	09 09 

235C	00 00 00 00              DB 000h, 000h, 000h, 000h, 000h, 000h, 000h, 009h, 009h, 000h
	. . .
2364	09 00 

2366	00 00 00 00              DB 000h, 000h, 000h, 000h, 000h, 000h, 000h, 009h, 009h, 009h
	. . .
236E	09 09 

2370	09 09 09 09              DB 009h, 009h, 009h, 009h, 009h, 009h, 009h, 000h, 000h, 000h
	. . .
2378	00 00 

237A	00 00 00 00              DB 000h, 000h, 000h, 000h, 000h, 009h, 009h, 000h, 000h, 000h
	. . .
2382	00 00 

2384	00 00 00 00              DB 000h, 000h, 000h, 000h, 000h, 000h, 000h, 000h, 000h, 000h
	. . .
238C	00 00 

238E	00 00 00 00              DB 000h, 000h, 000h, 000h, 000h, 000h, 000h, 000h, 000h, 000h
	. . .
2396	00 00 

2398	00 00 00 09              DB 000h, 000h, 000h, 009h, 009h, 000h, 000h, 000h, 000h, 000h
	. . .
23A0	00 00 

23A2	00 00 00 00              DB 000h, 000h, 000h, 000h, 000h, 000h, 000h, 000h, 000h, 000h
	. . .
23AA	00 00 

23AC	00 00 00 00              DB 000h, 000h, 000h, 000h, 000h, 000h, 000h, 000h, 000h, 000h
	. . .
23B4	00 00 

23B6	00 09 09 00              DB 000h, 009h, 009h, 000h, 000h, 000h, 000h, 000h, 000h, 009h
	. . .
23BE	00 09 

23C0	00 00 00 00              DB 000h, 000h, 000h, 000h, 000h, 000h, 000h, 000h, 000h, 000h
	. . .
23C8	00 00 

23CA	00 00 09 00              DB 000h, 000h, 009h, 000h, 000h, 000h, 000h, 000h, 000h, 009h
	. . .
23D2	00 09 

23D4	09 00 00 00              DB 009h, 000h, 000h, 000h, 000h, 000h, 000h, 009h, 000h, 000h
	. . .
23DC	00 00 

23DE	00 00 00 00              DB 000h, 000h, 000h, 000h, 000h, 000h, 000h, 000h, 000h, 000h
	. . .
23E6	00 00 

23E8	09 00 00 00              DB 009h, 000h, 000h, 000h, 000h, 000h, 000h, 009h, 009h, 000h
	. . .
23F0	09 00 

23F2	00 00 00 00              DB 000h, 000h, 000h, 000h, 000h, 009h, 009h, 009h, 009h, 009h
	. . .
23FA	09 09 

23FC	09 09 09 09              DB 009h, 009h, 009h, 009h, 009h, 009h, 009h, 009h, 009h, 000h
	. . .
2404	09 00 

2406	00 00 00 00              DB 000h, 000h, 000h, 000h, 000h, 009h, 009h, 000h, 000h, 000h
	. . .
240E	00 00 

2410	00 00 00 09              DB 000h, 000h, 000h, 009h, 009h, 009h, 009h, 009h, 009h, 009h
	. . .
2418	09 09 

241A	09 09 09 09              DB 009h, 009h, 009h, 009h, 009h, 009h, 009h, 000h, 000h, 000h
	. . .
2422	00 00 

2424	00 00 00 09              DB 000h, 000h, 000h, 009h, 009h, 000h, 000h, 000h, 000h, 000h
	. . .
242C	00 00 

242E	00 09 00 00              DB 000h, 009h, 000h, 000h, 000h, 000h, 000h, 000h, 000h, 000h
	. . .
2436	00 00 

2438	00 00 00 00              DB 000h, 000h, 000h, 000h, 009h, 000h, 000h, 000h, 000h, 000h
	. . .
2440	00 00 

2442	00 09 09 00              DB 000h, 009h, 009h, 000h, 000h, 000h, 000h, 000h, 000h, 009h
	. . .
244A	00 09 

244C	00 00 00 00              DB 000h, 000h, 000h, 000h, 000h, 000h, 000h, 000h, 000h, 000h
	. . .
2454	00 00 

2456	00 00 09 00              DB 000h, 000h, 009h, 000h, 000h, 000h, 000h, 000h, 000h, 009h
	. . .
245E	00 09 

2460	09 00 00 00              DB 009h, 000h, 000h, 000h, 000h, 000h, 000h, 000h, 000h, 000h
	. . .
2468	00 00 

246A	00 00 00 00              DB 000h, 000h, 000h, 000h, 000h, 000h, 000h, 000h, 000h, 000h
	. . .
2472	00 00 

2474	00 00 00 00              DB 000h, 000h, 000h, 000h, 000h, 000h, 000h, 009h, 009h, 000h
	. . .
247C	09 00 

247E	00 00 00 00              DB 000h, 000h, 000h, 000h, 000h, 000h, 000h, 000h, 000h, 000h
	. . .
2486	00 00 

2488	00 00 00 00              DB 000h, 000h, 000h, 000h, 000h, 000h, 000h, 000h, 000h, 000h
	. . .
2490	00 00 

2492	00 00 00 00              DB 000h, 000h, 000h, 000h, 000h, 009h, 009h, 009h, 009h, 009h
	. . .
249A	09 09 

249C	09 09 09 09              DB 009h, 009h, 009h, 009h, 009h, 009h, 009h, 009h, 009h, 009h
	. . .
24A4	09 09 

24A6	09 09 09 09              DB 009h, 009h, 009h, 009h, 009h, 009h, 009h, 009h, 009h, 009h
	. . .
24AE	09 09 

24B0	09 09 09 09              DB 009h, 009h, 009h, 009h, 0FEh, 0D0h, 070h, 000h, 040h, 0A0h
	. . .
24B8	40 A0 

24BA	70 00 50 B0              DB 070h, 000h, 050h, 0B0h, 050h, 0C0h, 050h, 0D0h, 050h, 0E0h
	. . .
24C2	50 E0 

24C4	50 00 50 D0              DB 050h, 000h, 050h, 0D0h, 070h, 000h, 050h, 0C0h, 050h, 0B0h
	. . .
24CC	50 B0 

24CE	50 A0 50 E0              DB 050h, 0A0h, 050h, 0E0h, 050h, 000h, 070h, 0D0h, 070h, 000h
	. . .
24D6	70 00 

24D8	70 D0 70 00              DB 070h, 0D0h, 070h, 000h, 070h, 0A0h, 050h, 000h, 050h, 0B0h
	. . .
24E0	50 B0 

24E2	50 00 50 C0              DB 050h, 000h, 050h, 0C0h, 050h, 000h, 050h, 0D0h, 050h, 000h
	. . .
24EA	50 00 

24EC	50 E0 50 00              DB 050h, 0E0h, 050h, 000h, 050h, 0D0h, 050h, 0FDh, 0D0h, 0FFh
	. . .
24F4	D0 FF 

24F6	FF FF FF FF              DB 0FFh, 0FFh, 0FFh, 0FFh, 0FFh, 0FFh, 0FFh, 0FFh, 0FFh, 0FFh
	. . .
24FE	FF FF 

2500	09 09 09 09              DB 009h, 009h, 009h, 009h, 009h, 009h, 009h, 009h, 009h, 009h
	. . .
2508	09 09 

250A	09 09 09 09              DB 009h, 009h, 009h, 009h, 009h, 009h, 009h, 009h, 009h, 009h
	. . .
2512	09 09 

2514	09 09 09 09              DB 009h, 009h, 009h, 009h, 009h, 009h, 009h, 009h, 01Bh, 000h
	. . .
251C	1B 00 

251E	00 12 00 00              DB 000h, 012h, 000h, 000h, 000h, 000h, 02Dh, 000h, 000h, 009h
	. . .
2526	00 09 

2528	00 00 09 00              DB 000h, 000h, 009h, 000h, 000h, 024h, 024h, 024h, 024h, 000h
	. . .
2530	24 00 

2532	00 00 00 00              DB 000h, 000h, 000h, 000h, 000h, 009h, 036h, 03Fh, 024h, 012h
	. . .
253A	24 12 

253C	00 24 24 24              DB 000h, 024h, 024h, 024h, 024h, 024h, 024h, 009h, 000h, 000h
	. . .
2544	00 00 

2546	09 00 00 09              DB 009h, 000h, 000h, 009h, 000h, 000h, 024h, 000h, 02Dh, 000h
	. . .
254E	2D 00 

2550	00 00 00 09              DB 000h, 000h, 000h, 009h, 01Bh, 000h, 000h, 012h, 000h, 000h
	. . .
2558	00 00 

255A	00 00 00 00              DB 000h, 000h, 000h, 000h, 000h, 009h, 000h, 02Dh, 009h, 000h
	. . .
2562	09 00 

2564	2D 09 00 00              DB 02Dh, 009h, 000h, 000h, 024h, 000h, 02Dh, 000h, 000h, 000h
	. . .
256C	00 00 

256E	00 09 1B 00              DB 000h, 009h, 01Bh, 000h, 000h, 012h, 000h, 000h, 000h, 000h
	. . .
2576	00 00 

2578	00 00 00 09              DB 000h, 000h, 000h, 009h, 000h, 02Dh, 009h, 000h, 02Dh, 009h
	. . .
2580	2D 09 

2582	00 00 24 00              DB 000h, 000h, 024h, 000h, 000h, 000h, 000h, 000h, 000h, 009h
	. . .
258A	00 09 

258C	1B 00 00 12              DB 01Bh, 000h, 000h, 012h, 000h, 000h, 000h, 000h, 000h, 000h
	. . .
2594	00 00 

2596	00 09 00 00              DB 000h, 009h, 000h, 000h, 009h, 000h, 000h, 009h, 000h, 000h
	. . .
259E	00 00 

25A0	24 24 24 24              DB 024h, 024h, 024h, 024h, 024h, 024h, 024h, 009h, 01Bh, 000h
	. . .
25A8	1B 00 

25AA	00 24 24 24              DB 000h, 024h, 024h, 024h, 024h, 000h, 000h, 000h, 000h, 009h
	. . .
25B2	00 09 

25B4	00 00 09 00              DB 000h, 000h, 009h, 000h, 000h, 009h, 009h, 009h, 009h, 009h
	. . .
25BC	09 09 

25BE	09 09 00 00              DB 009h, 009h, 000h, 000h, 000h, 009h, 01Bh, 000h, 000h, 000h
	. . .
25C6	00 00 

25C8	00 12 00 2D              DB 000h, 012h, 000h, 02Dh, 000h, 000h, 000h, 009h, 009h, 009h
	. . .
25D0	09 09 

25D2	09 00 00 09              DB 009h, 000h, 000h, 009h, 000h, 000h, 000h, 000h, 02Dh, 009h
	. . .
25DA	2D 09 

25DC	00 00 00 09              DB 000h, 000h, 000h, 009h, 01Bh, 000h, 000h, 000h, 000h, 012h
	. . .
25E4	00 12 

25E6	00 00 00 00              DB 000h, 000h, 000h, 000h, 000h, 000h, 000h, 000h, 000h, 000h
	. . .
25EE	00 00 

25F0	00 09 00 00              DB 000h, 009h, 000h, 000h, 000h, 000h, 000h, 009h, 000h, 000h
	. . .
25F8	00 00 

25FA	00 09 1B 00              DB 000h, 009h, 01Bh, 000h, 000h, 000h, 02Dh, 012h, 000h, 000h
	. . .
2602	00 00 

2604	00 00 00 00              DB 000h, 000h, 000h, 000h, 000h, 024h, 024h, 000h, 000h, 000h
	. . .
260C	00 00 

260E	00 00 00 00              DB 000h, 000h, 000h, 000h, 000h, 009h, 000h, 000h, 000h, 009h
	. . .
2616	00 09 

2618	1B 00 00 00              DB 01Bh, 000h, 000h, 000h, 000h, 024h, 024h, 024h, 024h, 024h
	. . .
2620	24 24 

2622	24 12 00 00              DB 024h, 012h, 000h, 000h, 000h, 000h, 000h, 000h, 000h, 024h
	. . .
262A	00 24 

262C	24 24 24 09              DB 024h, 024h, 024h, 009h, 000h, 000h, 02Dh, 009h, 01Bh, 000h
	. . .
2634	1B 00 

2636	00 00 00 09              DB 000h, 000h, 000h, 009h, 009h, 000h, 000h, 000h, 000h, 012h
	. . .
263E	00 12 

2640	00 00 09 09              DB 000h, 000h, 009h, 009h, 009h, 000h, 000h, 009h, 000h, 000h
	. . .
2648	00 00 

264A	00 09 00 00              DB 000h, 009h, 000h, 000h, 02Dh, 009h, 01Bh, 000h, 000h, 000h
	. . .
2652	00 00 

2654	00 09 09 00              DB 000h, 009h, 009h, 000h, 000h, 000h, 000h, 012h, 000h, 000h
	. . .
265C	00 00 

265E	09 00 09 00              DB 009h, 000h, 009h, 000h, 02Dh, 009h, 000h, 000h, 000h, 009h
	. . .
2666	00 09 

2668	00 00 00 09              DB 000h, 000h, 000h, 009h, 01Bh, 000h, 000h, 024h, 024h, 009h
	. . .
2670	24 09 

2672	09 00 00 00              DB 009h, 000h, 000h, 000h, 000h, 012h, 000h, 000h, 009h, 02Dh
	. . .
267A	09 2D 

267C	09 00 2D 09              DB 009h, 000h, 02Dh, 009h, 000h, 000h, 000h, 009h, 000h, 000h
	. . .
2684	00 00 

2686	00 09 1B 00              DB 000h, 009h, 01Bh, 000h, 000h, 009h, 009h, 009h, 009h, 000h
	. . .
268E	09 00 

2690	00 00 00 12              DB 000h, 000h, 000h, 012h, 000h, 000h, 009h, 000h, 009h, 000h
	. . .
2698	09 00 

269A	00 09 00 00              DB 000h, 009h, 000h, 000h, 02Dh, 009h, 000h, 000h, 000h, 009h
	. . .
26A2	00 09 

26A4	1B 00 00 09              DB 01Bh, 000h, 000h, 009h, 000h, 000h, 009h, 000h, 000h, 000h
	. . .
26AC	00 00 

26AE	00 12 00 00              DB 000h, 012h, 000h, 000h, 009h, 009h, 009h, 000h, 000h, 009h
	. . .
26B6	00 09 

26B8	00 00 00 12              DB 000h, 000h, 000h, 012h, 000h, 000h, 000h, 009h, 01Bh, 000h
	. . .
26C0	1B 00 

26C2	00 09 00 00              DB 000h, 009h, 000h, 000h, 009h, 000h, 000h, 000h, 000h, 024h
	. . .
26CA	00 24 

26CC	24 24 24 24              DB 024h, 024h, 024h, 024h, 024h, 024h, 024h, 024h, 000h, 000h
	. . .
26D4	00 00 

26D6	00 12 00 00              DB 000h, 012h, 000h, 000h, 000h, 009h, 01Bh, 000h, 000h, 009h
	. . .
26DE	00 09 

26E0	00 2D 09 00              DB 000h, 02Dh, 009h, 000h, 000h, 000h, 000h, 009h, 000h, 000h
	. . .
26E8	00 00 

26EA	00 00 00 00              DB 000h, 000h, 000h, 000h, 000h, 000h, 000h, 000h, 000h, 012h
	. . .
26F2	00 12 

26F4	00 00 2D 09              DB 000h, 000h, 02Dh, 009h, 01Bh, 000h, 000h, 009h, 000h, 02Dh
	. . .
26FC	00 2D 

26FE	09 00 00 00              DB 009h, 000h, 000h, 000h, 000h, 009h, 000h, 000h, 000h, 000h
	. . .
2706	00 00 

2708	00 00 00 00              DB 000h, 000h, 000h, 000h, 000h, 000h, 000h, 012h, 000h, 000h
	. . .
2710	00 00 

2712	00 09 1B 00              DB 000h, 009h, 01Bh, 000h, 000h, 009h, 000h, 000h, 009h, 000h
	. . .
271A	09 00 

271C	00 00 00 09              DB 000h, 000h, 000h, 009h, 000h, 000h, 000h, 000h, 000h, 000h
	. . .
2724	00 00 

2726	00 00 00 00              DB 000h, 000h, 000h, 000h, 000h, 012h, 000h, 000h, 000h, 009h
	. . .
272E	00 09 

2730	1B 00 00 09              DB 01Bh, 000h, 000h, 009h, 009h, 009h, 009h, 000h, 000h, 000h
	. . .
2738	00 00 

273A	00 09 00 2D              DB 000h, 009h, 000h, 02Dh, 009h, 000h, 02Dh, 009h, 000h, 02Dh
	. . .
2742	00 2D 

2744	09 00 00 12              DB 009h, 000h, 000h, 012h, 000h, 000h, 000h, 009h, 01Bh, 000h
	. . .
274C	1B 00 

274E	00 24 24 24              DB 000h, 024h, 024h, 024h, 024h, 024h, 024h, 024h, 024h, 024h
	. . .
2756	24 24 

2758	24 24 24 24              DB 024h, 024h, 024h, 024h, 024h, 024h, 024h, 024h, 024h, 024h
	. . .
2760	24 24 

2762	24 24 24 24              DB 024h, 024h, 024h, 024h, 024h, 009h, 01Bh, 000h, 000h, 012h
	. . .
276A	00 12 

276C	00 00 09 00              DB 000h, 000h, 009h, 000h, 000h, 000h, 000h, 000h, 000h, 000h
	. . .
2774	00 00 

2776	00 00 00 00              DB 000h, 000h, 000h, 000h, 000h, 000h, 000h, 000h, 000h, 02Dh
	. . .
277E	00 2D 

2780	00 00 00 09              DB 000h, 000h, 000h, 009h, 01Bh, 000h, 000h, 012h, 000h, 000h
	. . .
2788	00 00 

278A	09 00 00 00              DB 009h, 000h, 000h, 000h, 000h, 000h, 02Dh, 009h, 009h, 009h
	. . .
2792	09 09 

2794	09 09 00 00              DB 009h, 009h, 000h, 000h, 000h, 000h, 000h, 000h, 000h, 000h
	. . .
279C	00 00 

279E	00 09 1B 00              DB 000h, 009h, 01Bh, 000h, 000h, 012h, 000h, 000h, 009h, 000h
	. . .
27A6	09 00 

27A8	00 00 00 00              DB 000h, 000h, 000h, 000h, 009h, 009h, 000h, 024h, 000h, 009h
	. . .
27B0	00 09 

27B2	09 00 00 00              DB 009h, 000h, 000h, 000h, 000h, 000h, 000h, 000h, 000h, 009h
	. . .
27BA	00 09 

27BC	1B 00 00 12              DB 01Bh, 000h, 000h, 012h, 000h, 02Dh, 009h, 000h, 000h, 000h
	. . .
27C4	00 00 

27C6	00 2D 09 2D              DB 000h, 02Dh, 009h, 02Dh, 000h, 024h, 000h, 02Dh, 009h, 000h
	. . .
27CE	09 00 

27D0	00 00 00 00              DB 000h, 000h, 000h, 000h, 000h, 000h, 02Dh, 009h, 01Bh, 000h
	. . .
27D8	1B 00 

27DA	00 12 00 2D              DB 000h, 012h, 000h, 02Dh, 009h, 000h, 000h, 000h, 02Dh, 009h
	. . .
27E2	2D 09 

27E4	09 00 00 24              DB 009h, 000h, 000h, 024h, 000h, 000h, 009h, 009h, 000h, 000h
	. . .
27EC	00 00 

27EE	00 00 00 00              DB 000h, 000h, 000h, 000h, 000h, 009h, 01Bh, 000h, 000h, 012h
	. . .
27F6	00 12 

27F8	00 00 09 00              DB 000h, 000h, 009h, 000h, 000h, 000h, 000h, 02Dh, 000h, 000h
	. . .
2800	00 00 

2802	00 24 00 00              DB 000h, 024h, 000h, 000h, 02Dh, 009h, 000h, 000h, 000h, 000h
	. . .
280A	00 00 

280C	00 00 00 09              DB 000h, 000h, 000h, 009h, 01Bh, 000h, 000h, 009h, 000h, 000h
	. . .
2814	00 00 

2816	00 00 00 00              DB 000h, 000h, 000h, 000h, 000h, 02Dh, 000h, 000h, 000h, 000h
	. . .
281E	00 00 

2820	00 00 00 09              DB 000h, 000h, 000h, 009h, 000h, 000h, 000h, 024h, 024h, 024h
	. . .
2828	24 24 

282A	24 09 1B 00              DB 024h, 009h, 01Bh, 000h, 000h, 009h, 000h, 000h, 000h, 000h
	. . .
2832	00 00 

2834	00 00 2D 09              DB 000h, 000h, 02Dh, 009h, 000h, 000h, 000h, 024h, 000h, 000h
	. . .
283C	00 00 

283E	00 2D 00 00              DB 000h, 02Dh, 000h, 000h, 000h, 012h, 000h, 000h, 000h, 009h
	. . .
2846	00 09 

2848	1B 00 2D 09              DB 01Bh, 000h, 02Dh, 009h, 000h, 000h, 000h, 000h, 000h, 000h
	. . .
2850	00 00 

2852	00 09 09 00              DB 000h, 009h, 009h, 000h, 000h, 024h, 000h, 000h, 009h, 009h
	. . .
285A	09 09 

285C	00 00 00 12              DB 000h, 000h, 000h, 012h, 000h, 000h, 000h, 009h, 01Bh, 000h
	. . .
2864	1B 00 

2866	2D 09 00 00              DB 02Dh, 009h, 000h, 000h, 000h, 000h, 000h, 000h, 000h, 000h
	. . .
286E	00 00 

2870	09 2D 00 24              DB 009h, 02Dh, 000h, 024h, 000h, 02Dh, 009h, 000h, 000h, 000h
	. . .
2878	00 00 

287A	2D 12 00 00              DB 02Dh, 012h, 000h, 000h, 000h, 009h, 01Bh, 000h, 000h, 009h
	. . .
2882	00 09 

2884	00 00 00 00              DB 000h, 000h, 000h, 000h, 000h, 000h, 000h, 02Dh, 009h, 009h
	. . .
288C	09 09 

288E	00 24 00 09              DB 000h, 024h, 000h, 009h, 009h, 000h, 000h, 000h, 000h, 012h
	. . .
2896	00 12 

2898	00 00 00 09              DB 000h, 000h, 000h, 009h, 01Bh, 000h, 000h, 009h, 000h, 000h
	. . .
28A0	00 00 

28A2	00 00 00 00              DB 000h, 000h, 000h, 000h, 000h, 000h, 02Dh, 009h, 009h, 009h
	. . .
28AA	09 09 

28AC	09 09 00 00              DB 009h, 009h, 000h, 000h, 000h, 000h, 000h, 012h, 000h, 000h
	. . .
28B4	00 00 

28B6	00 09 1B 00              DB 000h, 009h, 01Bh, 000h, 000h, 009h, 000h, 000h, 000h, 000h
	. . .
28BE	00 00 

28C0	00 00 00 00              DB 000h, 000h, 000h, 000h, 000h, 000h, 000h, 000h, 000h, 000h
	. . .
28C8	00 00 

28CA	00 00 00 00              DB 000h, 000h, 000h, 000h, 000h, 012h, 000h, 000h, 02Dh, 009h
	. . .
28D2	2D 09 

28D4	1B 00 00 09              DB 01Bh, 000h, 000h, 009h, 000h, 000h, 000h, 000h, 024h, 024h
	. . .
28DC	24 24 

28DE	24 24 24 24              DB 024h, 024h, 024h, 024h, 024h, 024h, 024h, 024h, 024h, 000h
	. . .
28E6	24 00 

28E8	00 00 00 12              DB 000h, 000h, 000h, 012h, 000h, 000h, 02Dh, 009h, 01Bh, 000h
	. . .
28F0	1B 00 

28F2	00 24 24 24              DB 000h, 024h, 024h, 024h, 024h, 024h, 024h, 000h, 000h, 000h
	. . .
28FA	00 00 

28FC	00 2D 00 00              DB 000h, 02Dh, 000h, 000h, 000h, 000h, 024h, 024h, 024h, 024h
	. . .
2904	24 24 

2906	09 09 00 00              DB 009h, 009h, 000h, 000h, 000h, 009h, 01Bh, 000h, 000h, 000h
	. . .
290E	00 00 

2910	00 00 00 09              DB 000h, 000h, 000h, 009h, 000h, 000h, 000h, 000h, 000h, 000h
	. . .
2918	00 00 

291A	00 00 00 00              DB 000h, 000h, 000h, 000h, 000h, 000h, 000h, 000h, 02Dh, 009h
	. . .
2922	2D 09 

2924	00 00 00 09              DB 000h, 000h, 000h, 009h, 01Bh, 000h, 000h, 000h, 000h, 000h
	. . .
292C	00 00 

292E	00 09 00 00              DB 000h, 009h, 000h, 000h, 000h, 000h, 000h, 000h, 000h, 000h
	. . .
2936	00 00 

2938	00 00 00 00              DB 000h, 000h, 000h, 000h, 000h, 000h, 000h, 009h, 000h, 000h
	. . .
2940	00 00 

2942	00 09 1B 00              DB 000h, 009h, 01Bh, 000h, 000h, 000h, 000h, 000h, 000h, 009h
	. . .
294A	00 09 

294C	00 00 00 00              DB 000h, 000h, 000h, 000h, 000h, 000h, 000h, 000h, 000h, 02Dh
	. . .
2954	00 2D 

2956	00 00 00 00              DB 000h, 000h, 000h, 000h, 000h, 009h, 000h, 000h, 000h, 009h
	. . .
295E	00 09 

2960	1B 00 00 00              DB 01Bh, 000h, 000h, 000h, 000h, 000h, 000h, 009h, 000h, 000h
	. . .
2968	00 00 

296A	00 00 00 00              DB 000h, 000h, 000h, 000h, 000h, 000h, 000h, 02Dh, 000h, 000h
	. . .
2972	00 00 

2974	00 00 00 09              DB 000h, 000h, 000h, 009h, 000h, 000h, 000h, 009h, 01Bh, 000h
	. . .
297C	1B 00 

297E	00 00 00 00              DB 000h, 000h, 000h, 000h, 000h, 009h, 000h, 000h, 000h, 000h
	. . .
2986	00 00 

2988	00 00 00 00              DB 000h, 000h, 000h, 000h, 000h, 000h, 000h, 000h, 000h, 000h
	. . .
2990	00 00 

2992	00 00 00 00              DB 000h, 000h, 000h, 000h, 02Dh, 009h, 009h, 009h, 009h, 009h
	. . .
299A	09 09 

299C	09 09 09 09              DB 009h, 009h, 009h, 009h, 009h, 009h, 009h, 009h, 009h, 009h
	. . .
29A4	09 09 

29A6	09 09 09 09              DB 009h, 009h, 009h, 009h, 009h, 009h, 009h, 009h, 009h, 009h
	. . .
29AE	09 09 

29B0	09 09 09 09              DB 009h, 009h, 009h, 009h, 0FEh, 0FAh, 0FAh, 0DFh, 0DFh, 000h
	. . .
29B8	DF 00 

29BA	FA FA DF DF              DB 0FAh, 0FAh, 0DFh, 0DFh, 000h, 0BAh, 0BAh, 0DFh, 0DFh, 000h
	. . .
29C2	DF 00 

29C4	C6 C6 DF DF              DB 0C6h, 0C6h, 0DFh, 0DFh, 000h, 0BAh, 0BAh, 0FAh, 0FAh, 0DFh
	. . .
29CC	FA DF 

29CE	DF FF FF FF              DB 0DFh, 0FFh, 0FFh, 0FFh, 0FFh, 0FFh, 0FFh, 0FFh, 0FFh, 0FFh
	. . .
29D6	FF FF 

29D8	FF FF FF FF              DB 0FFh, 0FFh, 0FFh, 0FFh, 0FFh, 0FFh, 0FFh, 0FFh, 0FFh, 0FFh
	. . .
29E0	FF FF 

29E2	FF FF FF FF              DB 0FFh, 0FFh, 0FFh, 0FFh, 0FFh, 0FFh, 0FFh, 0FFh, 0FFh, 0FFh
	. . .
29EA	FF FF 

29EC	FF FF FF FF              DB 0FFh, 0FFh, 0FFh, 0FFh, 0FFh, 0FFh, 0FFh, 0FFh, 0FFh, 0FFh
	. . .
29F4	FF FF 

29F6	FF FF FF FF              DB 0FFh, 0FFh, 0FFh, 0FFh, 0FFh, 0FFh, 0FFh, 0FFh, 0FFh, 0FFh
	. . .
29FE	FF FF 

2A00	09 09 09 09              DB 009h, 009h, 009h, 009h, 009h, 009h, 009h, 009h, 009h, 009h
	. . .
2A08	09 09 

2A0A	09 09 09 09              DB 009h, 009h, 009h, 009h, 009h, 009h, 009h, 009h, 009h, 009h
	. . .
2A12	09 09 

2A14	09 09 09 09              DB 009h, 009h, 009h, 009h, 009h, 009h, 009h, 009h, 01Bh, 000h
	. . .
2A1C	1B 00 

2A1E	00 00 00 00              DB 000h, 000h, 000h, 000h, 009h, 000h, 02Dh, 009h, 000h, 000h
	. . .
2A26	00 00 

2A28	00 00 00 00              DB 000h, 000h, 000h, 000h, 000h, 000h, 000h, 000h, 000h, 000h
	. . .
2A30	00 00 

2A32	00 00 00 00              DB 000h, 000h, 000h, 000h, 000h, 009h, 036h, 03Fh, 024h, 024h
	. . .
2A3A	24 24 

2A3C	24 24 24 24              DB 024h, 024h, 024h, 024h, 024h, 009h, 000h, 000h, 000h, 000h
	. . .
2A44	00 00 

2A46	24 24 24 24              DB 024h, 024h, 024h, 024h, 024h, 024h, 024h, 000h, 000h, 000h
	. . .
2A4E	00 00 

2A50	00 00 00 09              DB 000h, 000h, 000h, 009h, 01Bh, 000h, 000h, 012h, 000h, 000h
	. . .
2A58	00 00 

2A5A	09 00 00 09              DB 009h, 000h, 000h, 009h, 000h, 000h, 024h, 024h, 000h, 000h
	. . .
2A62	00 00 

2A64	00 00 12 00              DB 000h, 000h, 012h, 000h, 009h, 009h, 009h, 000h, 000h, 024h
	. . .
2A6C	00 24 

2A6E	24 09 1B 00              DB 024h, 009h, 01Bh, 000h, 000h, 012h, 000h, 000h, 009h, 000h
	. . .
2A76	09 00 

2A78	00 09 00 00              DB 000h, 009h, 000h, 000h, 009h, 009h, 009h, 009h, 000h, 000h
	. . .
2A80	00 00 

2A82	12 00 24 24              DB 012h, 000h, 024h, 024h, 009h, 000h, 000h, 009h, 009h, 009h
	. . .
2A8A	09 09 

2A8C	1B 00 2D 12              DB 01Bh, 000h, 02Dh, 012h, 000h, 000h, 009h, 000h, 000h, 009h
	. . .
2A94	00 09 

2A96	00 00 09 00              DB 000h, 000h, 009h, 000h, 000h, 009h, 000h, 000h, 012h, 000h
	. . .
2A9E	12 00 

2AA0	00 00 09 00              DB 000h, 000h, 009h, 000h, 000h, 024h, 024h, 009h, 01Bh, 000h
	. . .
2AA8	1B 00 

2AAA	00 12 00 2D              DB 000h, 012h, 000h, 02Dh, 009h, 000h, 000h, 009h, 009h, 009h
	. . .
2AB2	09 09 

2AB4	09 00 00 09              DB 009h, 000h, 000h, 009h, 000h, 000h, 012h, 000h, 000h, 02Dh
	. . .
2ABC	00 2D 

2ABE	09 00 00 12              DB 009h, 000h, 000h, 012h, 000h, 009h, 01Bh, 000h, 000h, 012h
	. . .
2AC6	00 12 

2AC8	00 00 09 00              DB 000h, 000h, 009h, 000h, 000h, 024h, 024h, 024h, 009h, 000h
	. . .
2AD0	09 00 

2AD2	2D 09 00 00              DB 02Dh, 009h, 000h, 000h, 012h, 000h, 000h, 000h, 009h, 000h
	. . .
2ADA	09 00 

2ADC	00 12 00 09              DB 000h, 012h, 000h, 009h, 01Bh, 000h, 000h, 012h, 000h, 000h
	. . .
2AE4	00 00 

2AE6	09 00 00 00              DB 009h, 000h, 000h, 000h, 000h, 000h, 009h, 009h, 009h, 009h
	. . .
2AEE	09 09 

2AF0	00 00 12 00              DB 000h, 000h, 012h, 000h, 000h, 024h, 009h, 000h, 000h, 012h
	. . .
2AF8	00 12 

2AFA	2D 09 1B 00              DB 02Dh, 009h, 01Bh, 000h, 000h, 012h, 000h, 000h, 009h, 000h
	. . .
2B02	09 00 

2B04	00 00 00 00              DB 000h, 000h, 000h, 000h, 024h, 009h, 009h, 009h, 000h, 000h
	. . .
2B0C	00 00 

2B0E	12 00 00 09              DB 012h, 000h, 000h, 009h, 009h, 000h, 000h, 012h, 000h, 009h
	. . .
2B16	00 09 

2B18	1B 00 00 24              DB 01Bh, 000h, 000h, 024h, 024h, 024h, 009h, 000h, 000h, 000h
	. . .
2B20	00 00 

2B22	00 00 2D 09              DB 000h, 000h, 02Dh, 009h, 009h, 009h, 000h, 000h, 012h, 000h
	. . .
2B2A	12 00 

2B2C	00 12 00 00              DB 000h, 012h, 000h, 000h, 000h, 012h, 000h, 009h, 01Bh, 000h
	. . .
2B34	1B 00 

2B36	00 09 09 09              DB 000h, 009h, 009h, 009h, 009h, 009h, 009h, 009h, 000h, 000h
	. . .
2B3E	00 00 

2B40	00 24 09 09              DB 000h, 024h, 009h, 009h, 000h, 02Dh, 012h, 000h, 02Dh, 012h
	. . .
2B48	2D 12 

2B4A	00 00 00 12              DB 000h, 000h, 000h, 012h, 000h, 009h, 01Bh, 000h, 02Dh, 009h
	. . .
2B52	2D 09 

2B54	09 00 00 00              DB 009h, 000h, 000h, 000h, 000h, 009h, 02Dh, 000h, 000h, 02Dh
	. . .
2B5C	00 2D 

2B5E	09 09 00 00              DB 009h, 009h, 000h, 000h, 012h, 000h, 000h, 024h, 024h, 024h
	. . .
2B66	24 24 

2B68	24 12 00 09              DB 024h, 012h, 000h, 009h, 01Bh, 000h, 000h, 009h, 009h, 000h
	. . .
2B70	09 00 

2B72	00 09 2D 09              DB 000h, 009h, 02Dh, 009h, 009h, 000h, 000h, 000h, 024h, 009h
	. . .
2B7A	24 09 

2B7C	00 00 12 00              DB 000h, 000h, 012h, 000h, 000h, 009h, 009h, 009h, 009h, 012h
	. . .
2B84	09 12 

2B86	00 09 1B 00              DB 000h, 009h, 01Bh, 000h, 000h, 024h, 024h, 024h, 024h, 009h
	. . .
2B8E	24 09 

2B90	00 00 09 2D              DB 000h, 000h, 009h, 02Dh, 000h, 000h, 000h, 009h, 000h, 000h
	. . .
2B98	00 00 

2B9A	12 00 00 09              DB 012h, 000h, 000h, 009h, 000h, 000h, 02Dh, 000h, 000h, 009h
	. . .
2BA2	00 09 

2BA4	1B 00 00 00              DB 01Bh, 000h, 000h, 000h, 000h, 000h, 000h, 009h, 009h, 02Dh
	. . .
2BAC	09 2D 

2BAE	09 09 09 00              DB 009h, 009h, 009h, 000h, 000h, 024h, 024h, 024h, 012h, 000h
	. . .
2BB6	12 00 

2BB8	00 09 00 00              DB 000h, 009h, 000h, 000h, 02Dh, 000h, 02Dh, 009h, 01Bh, 000h
	. . .
2BC0	1B 00 

2BC2	00 24 24 24              DB 000h, 024h, 024h, 024h, 024h, 009h, 009h, 000h, 000h, 000h
	. . .
2BCA	00 00 

2BCC	09 2D 00 00              DB 009h, 02Dh, 000h, 000h, 000h, 000h, 012h, 000h, 000h, 009h
	. . .
2BD4	00 09 

2BD6	09 09 09 09              DB 009h, 009h, 009h, 009h, 009h, 009h, 01Bh, 000h, 000h, 009h
	. . .
2BDE	00 09 

2BE0	09 00 00 09              DB 009h, 000h, 000h, 009h, 009h, 009h, 009h, 02Dh, 009h, 009h
	. . .
2BE8	09 09 

2BEA	09 00 00 00              DB 009h, 000h, 000h, 000h, 024h, 024h, 024h, 024h, 024h, 024h
	. . .
2BF2	24 24 

2BF4	24 24 24 09              DB 024h, 024h, 024h, 009h, 01Bh, 000h, 000h, 009h, 009h, 000h
	. . .
2BFC	09 00 

2BFE	2D 09 09 09              DB 02Dh, 009h, 009h, 009h, 009h, 000h, 000h, 000h, 009h, 000h
	. . .
2C06	09 00 

2C08	00 00 12 00              DB 000h, 000h, 012h, 000h, 000h, 02Dh, 000h, 000h, 000h, 000h
	. . .
2C10	00 00 

2C12	00 09 1B 00              DB 000h, 009h, 01Bh, 000h, 000h, 009h, 009h, 009h, 009h, 009h
	. . .
2C1A	09 09 

2C1C	09 09 09 09              DB 009h, 009h, 009h, 009h, 009h, 000h, 009h, 000h, 000h, 000h
	. . .
2C24	00 00 

2C26	12 00 00 00              DB 012h, 000h, 000h, 000h, 02Dh, 000h, 000h, 000h, 000h, 009h
	. . .
2C2E	00 09 

2C30	1B 00 00 24              DB 01Bh, 000h, 000h, 024h, 024h, 024h, 024h, 024h, 024h, 024h
	. . .
2C38	24 24 

2C3A	24 24 24 24              DB 024h, 024h, 024h, 024h, 009h, 000h, 000h, 000h, 012h, 000h
	. . .
2C42	12 00 

2C44	00 00 00 00              DB 000h, 000h, 000h, 000h, 000h, 000h, 000h, 009h, 01Bh, 000h
	. . .
2C4C	1B 00 

2C4E	00 09 09 09              DB 000h, 009h, 009h, 009h, 009h, 000h, 000h, 009h, 009h, 009h
	. . .
2C56	09 09 

2C58	09 2D 09 09              DB 009h, 02Dh, 009h, 009h, 000h, 000h, 012h, 000h, 000h, 000h
	. . .
2C60	00 00 

2C62	00 00 00 00              DB 000h, 000h, 000h, 000h, 000h, 009h, 01Bh, 000h, 000h, 009h
	. . .
2C6A	00 09 

2C6C	00 00 09 00              DB 000h, 000h, 009h, 000h, 000h, 009h, 000h, 000h, 000h, 000h
	. . .
2C74	00 00 

2C76	00 09 00 2D              DB 000h, 009h, 000h, 02Dh, 012h, 000h, 000h, 000h, 000h, 000h
	. . .
2C7E	00 00 

2C80	00 24 24 09              DB 000h, 024h, 024h, 009h, 01Bh, 000h, 000h, 009h, 000h, 000h
	. . .
2C88	00 00 

2C8A	09 00 2D 09              DB 009h, 000h, 02Dh, 009h, 000h, 000h, 024h, 024h, 024h, 009h
	. . .
2C92	24 09 

2C94	00 2D 12 00              DB 000h, 02Dh, 012h, 000h, 000h, 000h, 000h, 000h, 024h, 024h
	. . .
2C9C	24 24 

2C9E	00 09 1B 00              DB 000h, 009h, 01Bh, 000h, 000h, 009h, 000h, 000h, 009h, 000h
	. . .
2CA6	09 00 

2CA8	00 09 00 00              DB 000h, 009h, 000h, 000h, 009h, 000h, 000h, 009h, 000h, 000h
	. . .
2CB0	00 00 

2CB2	12 00 00 00              DB 012h, 000h, 000h, 000h, 000h, 024h, 024h, 000h, 000h, 009h
	. . .
2CBA	00 09 

2CBC	1B 00 00 09              DB 01Bh, 000h, 000h, 009h, 000h, 02Dh, 009h, 000h, 000h, 009h
	. . .
2CC4	00 09 

2CC6	00 00 09 00              DB 000h, 000h, 009h, 000h, 000h, 009h, 000h, 000h, 012h, 000h
	. . .
2CCE	12 00 

2CD0	00 00 24 24              DB 000h, 000h, 024h, 024h, 012h, 000h, 000h, 009h, 01Bh, 000h
	. . .
2CD8	1B 00 

2CDA	00 09 00 00              DB 000h, 009h, 000h, 000h, 009h, 000h, 000h, 009h, 000h, 000h
	. . .
2CE2	00 00 

2CE4	09 00 00 09              DB 009h, 000h, 000h, 009h, 000h, 000h, 012h, 000h, 000h, 024h
	. . .
2CEC	00 24 

2CEE	24 00 12 00              DB 024h, 000h, 012h, 000h, 02Dh, 009h, 01Bh, 000h, 000h, 009h
	. . .
2CF6	00 09 

2CF8	00 00 09 00              DB 000h, 000h, 009h, 000h, 000h, 009h, 000h, 02Dh, 009h, 000h
	. . .
2D00	09 00 

2D02	2D 09 00 00              DB 02Dh, 009h, 000h, 000h, 012h, 000h, 024h, 024h, 000h, 000h
	. . .
2D0A	00 00 

2D0C	12 00 2D 09              DB 012h, 000h, 02Dh, 009h, 01Bh, 000h, 000h, 024h, 024h, 024h
	. . .
2D14	24 24 

2D16	09 00 2D 09              DB 009h, 000h, 02Dh, 009h, 000h, 000h, 009h, 000h, 000h, 009h
	. . .
2D1E	00 09 

2D20	00 00 12 00              DB 000h, 000h, 012h, 000h, 009h, 000h, 000h, 000h, 012h, 000h
	. . .
2D28	12 00 

2D2A	00 09 1B 00              DB 000h, 009h, 01Bh, 000h, 000h, 009h, 000h, 000h, 009h, 000h
	. . .
2D32	09 00 

2D34	00 09 00 00              DB 000h, 009h, 000h, 000h, 009h, 000h, 000h, 009h, 000h, 000h
	. . .
2D3C	00 00 

2D3E	12 2D 09 00              DB 012h, 02Dh, 009h, 000h, 000h, 000h, 012h, 000h, 000h, 009h
	. . .
2D46	00 09 

2D48	1B 00 2D 09              DB 01Bh, 000h, 02Dh, 009h, 000h, 000h, 009h, 000h, 000h, 009h
	. . .
2D50	00 09 

2D52	00 00 00 00              DB 000h, 000h, 000h, 000h, 000h, 009h, 000h, 000h, 012h, 000h
	. . .
2D5A	12 00 

2D5C	09 00 00 2D              DB 009h, 000h, 000h, 02Dh, 012h, 000h, 000h, 009h, 01Bh, 000h
	. . .
2D64	1B 00 

2D66	00 09 00 00              DB 000h, 009h, 000h, 000h, 009h, 000h, 02Dh, 009h, 000h, 000h
	. . .
2D6E	00 00 

2D70	24 24 24 24              DB 024h, 024h, 024h, 024h, 024h, 024h, 024h, 024h, 009h, 000h
	. . .
2D78	09 00 

2D7A	00 00 12 00              DB 000h, 000h, 012h, 000h, 000h, 009h, 01Bh, 000h, 000h, 009h
	. . .
2D82	00 09 

2D84	00 00 09 00              DB 000h, 000h, 009h, 000h, 000h, 009h, 000h, 000h, 009h, 000h
	. . .
2D8C	09 00 

2D8E	00 00 00 00              DB 000h, 000h, 000h, 000h, 012h, 000h, 009h, 000h, 000h, 02Dh
	. . .
2D96	00 2D 

2D98	12 00 00 09              DB 012h, 000h, 000h, 009h, 01Bh, 000h, 000h, 009h, 000h, 000h
	. . .
2DA0	00 00 

2DA2	24 24 24 09              DB 024h, 024h, 024h, 009h, 000h, 000h, 009h, 000h, 000h, 009h
	. . .
2DAA	00 09 

2DAC	00 00 12 2D              DB 000h, 000h, 012h, 02Dh, 009h, 000h, 000h, 000h, 012h, 000h
	. . .
2DB4	12 00 

2DB6	00 09 1B 00              DB 000h, 009h, 01Bh, 000h, 000h, 009h, 000h, 000h, 009h, 009h
	. . .
2DBE	09 09 

2DC0	09 09 00 00              DB 009h, 009h, 000h, 000h, 009h, 000h, 000h, 009h, 000h, 000h
	. . .
2DC8	00 00 

2DCA	12 00 09 00              DB 012h, 000h, 009h, 000h, 000h, 000h, 012h, 000h, 000h, 009h
	. . .
2DD2	00 09 

2DD4	1B 00 00 09              DB 01Bh, 000h, 000h, 009h, 000h, 000h, 009h, 009h, 009h, 009h
	. . .
2DDC	09 09 

2DDE	00 2D 09 00              DB 000h, 02Dh, 009h, 000h, 02Dh, 009h, 000h, 000h, 012h, 000h
	. . .
2DE6	12 00 

2DE8	24 24 00 00              DB 024h, 024h, 000h, 000h, 012h, 000h, 02Dh, 009h, 01Bh, 000h
	. . .
2DF0	1B 00 

2DF2	00 09 00 00              DB 000h, 009h, 000h, 000h, 009h, 02Dh, 009h, 000h, 000h, 000h
	. . .
2DFA	00 00 

2DFC	09 00 00 09              DB 009h, 000h, 000h, 009h, 000h, 000h, 012h, 000h, 000h, 024h
	. . .
2E04	00 24 

2E06	24 00 12 00              DB 024h, 000h, 012h, 000h, 02Dh, 009h, 01Bh, 000h, 02Dh, 009h
	. . .
2E0E	2D 09 

2E10	00 00 09 09              DB 000h, 000h, 009h, 009h, 000h, 000h, 024h, 024h, 009h, 000h
	. . .
2E18	09 00 

2E1A	00 09 00 2D              DB 000h, 009h, 000h, 02Dh, 012h, 000h, 000h, 000h, 024h, 024h
	. . .
2E22	24 24 

2E24	12 00 00 09              DB 012h, 000h, 000h, 009h, 01Bh, 000h, 000h, 009h, 000h, 000h
	. . .
2E2C	00 00 

2E2E	09 09 00 24              DB 009h, 009h, 000h, 024h, 024h, 009h, 009h, 000h, 000h, 009h
	. . .
2E36	00 09 

2E38	00 2D 12 00              DB 000h, 02Dh, 012h, 000h, 000h, 000h, 000h, 024h, 024h, 000h
	. . .
2E40	24 00 

2E42	00 09 1B 00              DB 000h, 009h, 01Bh, 000h, 000h, 024h, 024h, 024h, 024h, 024h
	. . .
2E4A	24 24 

2E4C	24 24 09 09              DB 024h, 024h, 009h, 009h, 009h, 000h, 000h, 009h, 000h, 000h
	. . .
2E54	00 00 

2E56	12 00 00 00              DB 012h, 000h, 000h, 000h, 000h, 000h, 024h, 024h, 000h, 009h
	. . .
2E5E	00 09 

2E60	1B 00 00 09              DB 01Bh, 000h, 000h, 009h, 000h, 02Dh, 009h, 009h, 000h, 000h
	. . .
2E68	00 00 

2E6A	09 2D 09 00              DB 009h, 02Dh, 009h, 000h, 000h, 009h, 000h, 000h, 012h, 000h
	. . .
2E72	12 00 

2E74	00 00 00 00              DB 000h, 000h, 000h, 000h, 000h, 024h, 024h, 009h, 01Bh, 000h
	. . .
2E7C	1B 00 

2E7E	00 09 00 00              DB 000h, 009h, 000h, 000h, 009h, 009h, 000h, 000h, 000h, 000h
	. . .
2E86	00 00 

2E88	00 00 2D 09              DB 000h, 000h, 02Dh, 009h, 000h, 000h, 012h, 000h, 000h, 000h
	. . .
2E90	00 00 

2E92	00 00 00 00              DB 000h, 000h, 000h, 000h, 000h, 009h, 009h, 009h, 009h, 009h
	. . .
2E9A	09 09 

2E9C	09 09 09 09              DB 009h, 009h, 009h, 009h, 009h, 009h, 009h, 009h, 009h, 009h
	. . .
2EA4	09 09 

2EA6	09 09 09 09              DB 009h, 009h, 009h, 009h, 009h, 009h, 009h, 009h, 009h, 009h
	. . .
2EAE	09 09 

2EB0	09 09 09 09              DB 009h, 009h, 009h, 009h, 0FEh, 0FAh, 0FAh, 0DFh, 0DFh, 0BAh
	. . .
2EB8	DF BA 

2EBA	BA 00 FA FA              DB 0BAh, 000h, 0FAh, 0FAh, 0DFh, 0DFh, 0BAh, 0BAh, 000h, 0BAh
	. . .
2EC2	00 BA 

2EC4	BA 00 A5 A5              DB 0BAh, 000h, 0A5h, 0A5h, 000h, 0DFh, 0DFh, 000h, 0FAh, 0FAh
	. . .
2ECC	FA FA 

2ECE	DF DF BA BA              DB 0DFh, 0DFh, 0BAh, 0BAh, 000h, 0FAh, 0FAh, 0DFh, 0DFh, 0BAh
	. . .
2ED6	DF BA 

2ED8	BA 00 BA BA              DB 0BAh, 000h, 0BAh, 0BAh, 000h, 0A5h, 0A5h, 000h, 0BAh, 0BAh
	. . .
2EE0	BA BA 

2EE2	00 C6 C6 00              DB 000h, 0C6h, 0C6h, 000h, 0A5h, 0A5h, 000h, 093h, 093h, 093h
	. . .
2EEA	93 93 

2EEC	00 DF DF 00              DB 000h, 0DFh, 0DFh, 000h, 0FFh, 0FFh, 000h, 000h, 000h, 000h
	. . .
2EF4	00 00 

2EF6	00 00 00 00              DB 000h, 000h, 000h, 000h, 000h, 000h, 000h, 000h, 000h, 000h
	. . .
2EFE	00 00 

2F00	09 09 09 09              DB 009h, 009h, 009h, 009h, 009h, 009h, 009h, 009h, 009h, 009h
	. . .
2F08	09 09 

2F0A	09 09 09 09              DB 009h, 009h, 009h, 009h, 009h, 009h, 009h, 009h, 009h, 009h
	. . .
2F12	09 09 

2F14	09 09 09 09              DB 009h, 009h, 009h, 009h, 009h, 009h, 009h, 009h, 01Bh, 000h
	. . .
2F1C	1B 00 

2F1E	00 09 09 09              DB 000h, 009h, 009h, 009h, 009h, 009h, 009h, 009h, 009h, 009h
	. . .
2F26	09 09 

2F28	09 09 09 09              DB 009h, 009h, 009h, 009h, 009h, 009h, 009h, 009h, 009h, 009h
	. . .
2F30	09 09 

2F32	09 09 09 00              DB 009h, 009h, 009h, 000h, 000h, 009h, 036h, 03Fh, 024h, 009h
	. . .
2F3A	24 09 

2F3C	09 09 00 00              DB 009h, 009h, 000h, 000h, 009h, 009h, 009h, 009h, 009h, 009h
	. . .
2F44	09 09 

2F46	09 09 2D 2D              DB 009h, 009h, 02Dh, 02Dh, 02Dh, 009h, 009h, 009h, 009h, 009h
	. . .
2F4E	09 09 

2F50	09 00 00 09              DB 009h, 000h, 000h, 009h, 01Bh, 000h, 000h, 009h, 009h, 009h
	. . .
2F58	09 09 

2F5A	00 00 09 09              DB 000h, 000h, 009h, 009h, 000h, 000h, 024h, 024h, 024h, 024h
	. . .
2F62	24 24 

2F64	24 24 24 24              DB 024h, 024h, 024h, 024h, 024h, 024h, 024h, 024h, 024h, 024h
	. . .
2F6C	24 24 

2F6E	24 09 1B 00              DB 024h, 009h, 01Bh, 000h, 000h, 009h, 009h, 009h, 000h, 02Dh
	. . .
2F76	00 2D 

2F78	09 09 00 00              DB 009h, 009h, 000h, 000h, 009h, 009h, 009h, 009h, 009h, 009h
	. . .
2F80	09 09 

2F82	09 09 09 09              DB 009h, 009h, 009h, 009h, 009h, 009h, 009h, 009h, 02Dh, 009h
	. . .
2F8A	2D 09 

2F8C	1B 00 00 09              DB 01Bh, 000h, 000h, 009h, 009h, 009h, 000h, 000h, 009h, 009h
	. . .
2F94	09 09 

2F96	00 2D 09 09              DB 000h, 02Dh, 009h, 009h, 009h, 009h, 009h, 009h, 009h, 009h
	. . .
2F9E	09 09 

2FA0	09 09 09 09              DB 009h, 009h, 009h, 009h, 000h, 000h, 000h, 009h, 01Bh, 000h
	. . .
2FA8	1B 00 

2FAA	00 09 2D 09              DB 000h, 009h, 02Dh, 009h, 000h, 000h, 009h, 009h, 000h, 000h
	. . .
2FB2	00 00 

2FB4	09 09 00 00              DB 009h, 009h, 000h, 000h, 000h, 000h, 000h, 009h, 009h, 000h
	. . .
2FBC	09 00 

2FBE	00 00 00 09              DB 000h, 000h, 000h, 009h, 009h, 009h, 01Bh, 000h, 000h, 009h
	. . .
2FC6	00 09 

2FC8	09 09 00 2D              DB 009h, 009h, 000h, 02Dh, 009h, 009h, 000h, 000h, 009h, 02Dh
	. . .
2FD0	09 2D 

2FD2	00 00 09 09              DB 000h, 000h, 009h, 009h, 000h, 000h, 000h, 000h, 009h, 009h
	. . .
2FDA	09 09 

2FDC	09 09 09 09              DB 009h, 009h, 009h, 009h, 01Bh, 000h, 000h, 009h, 009h, 009h
	. . .
2FE4	09 09 

2FE6	00 00 09 09              DB 000h, 000h, 009h, 009h, 000h, 000h, 009h, 009h, 000h, 02Dh
	. . .
2FEE	00 2D 

2FF0	09 09 09 09              DB 009h, 009h, 009h, 009h, 009h, 009h, 009h, 009h, 009h, 009h
	. . .
2FF8	09 09 

2FFA	09 09 1B 00              DB 009h, 009h, 01Bh, 000h, 000h, 009h, 009h, 009h, 000h, 000h
	. . .
3002	00 00 

3004	09 09 00 00              DB 009h, 009h, 000h, 000h, 009h, 009h, 000h, 000h, 009h, 009h
	. . .
300C	09 09 

300E	09 09 09 09              DB 009h, 009h, 009h, 009h, 009h, 009h, 009h, 009h, 009h, 009h
	. . .
3016	09 09 

3018	1B 00 00 24              DB 01Bh, 000h, 000h, 024h, 024h, 024h, 024h, 024h, 024h, 024h
	. . .
3020	24 24 

3022	24 24 09 09              DB 024h, 024h, 009h, 009h, 000h, 000h, 024h, 024h, 024h, 024h
	. . .
302A	24 24 

302C	24 24 24 24              DB 024h, 024h, 024h, 024h, 024h, 024h, 009h, 009h, 01Bh, 000h
	. . .
3034	1B 00 

3036	00 09 09 09              DB 000h, 009h, 009h, 009h, 009h, 009h, 009h, 009h, 009h, 000h
	. . .
303E	09 00 

3040	09 09 09 09              DB 009h, 009h, 009h, 009h, 009h, 009h, 009h, 009h, 009h, 009h
	. . .
3048	09 09 

304A	09 09 09 2D              DB 009h, 009h, 009h, 02Dh, 009h, 009h, 01Bh, 000h, 000h, 009h
	. . .
3052	00 09 

3054	09 09 09 09              DB 009h, 009h, 009h, 009h, 009h, 009h, 009h, 02Dh, 009h, 009h
	. . .
305C	09 09 

305E	09 09 09 09              DB 009h, 009h, 009h, 009h, 009h, 009h, 009h, 000h, 000h, 000h
	. . .
3066	00 00 

3068	00 00 09 09              DB 000h, 000h, 009h, 009h, 01Bh, 000h, 000h, 000h, 000h, 000h
	. . .
3070	00 00 

3072	09 09 09 09              DB 009h, 009h, 009h, 009h, 009h, 02Dh, 009h, 02Dh, 000h, 000h
	. . .
307A	00 00 

307C	00 00 00 00              DB 000h, 000h, 000h, 000h, 000h, 000h, 009h, 009h, 009h, 009h
	. . .
3084	09 09 

3086	09 09 1B 09              DB 009h, 009h, 01Bh, 009h, 009h, 009h, 009h, 02Dh, 009h, 009h
	. . .
308E	09 09 

3090	09 00 00 00              DB 009h, 000h, 000h, 000h, 009h, 009h, 000h, 02Dh, 009h, 009h
	. . .
3098	09 09 

309A	09 2D 09 09              DB 009h, 02Dh, 009h, 009h, 009h, 009h, 009h, 009h, 009h, 009h
	. . .
30A2	09 09 

30A4	1B 09 09 09              DB 01Bh, 009h, 009h, 009h, 009h, 000h, 009h, 009h, 000h, 000h
	. . .
30AC	00 00 

30AE	09 00 09 09              DB 009h, 000h, 009h, 009h, 000h, 000h, 009h, 009h, 009h, 009h
	. . .
30B6	09 09 

30B8	09 09 09 09              DB 009h, 009h, 009h, 009h, 009h, 009h, 009h, 009h, 01Bh, 009h
	. . .
30C0	1B 09 

30C2	09 09 09 00              DB 009h, 009h, 009h, 000h, 009h, 000h, 000h, 009h, 009h, 000h
	. . .
30CA	09 00 

30CC	09 09 00 00              DB 009h, 009h, 000h, 000h, 024h, 024h, 024h, 024h, 024h, 024h
	. . .
30D4	24 24 

30D6	24 24 24 24              DB 024h, 024h, 024h, 024h, 024h, 009h, 01Bh, 000h, 000h, 000h
	. . .
30DE	00 00 

30E0	00 00 00 00              DB 000h, 000h, 000h, 000h, 009h, 009h, 009h, 000h, 009h, 009h
	. . .
30E8	09 09 

30EA	09 09 2D 00              DB 009h, 009h, 02Dh, 000h, 000h, 000h, 009h, 009h, 009h, 009h
	. . .
30F2	09 09 

30F4	09 09 00 09              DB 009h, 009h, 000h, 009h, 01Bh, 000h, 000h, 009h, 009h, 009h
	. . .
30FC	09 09 

30FE	09 09 09 09              DB 009h, 009h, 009h, 009h, 000h, 024h, 009h, 009h, 009h, 009h
	. . .
3106	09 09 

3108	09 00 2D 09              DB 009h, 000h, 02Dh, 009h, 009h, 009h, 009h, 009h, 009h, 009h
	. . .
3110	09 09 

3112	00 09 1B 00              DB 000h, 009h, 01Bh, 000h, 000h, 009h, 009h, 009h, 009h, 02Dh
	. . .
311A	09 2D 

311C	09 00 24 09              DB 009h, 000h, 024h, 009h, 009h, 009h, 009h, 009h, 009h, 000h
	. . .
3124	09 00 

3126	2D 09 09 09              DB 02Dh, 009h, 009h, 009h, 000h, 000h, 000h, 000h, 000h, 009h
	. . .
312E	00 09 

3130	1B 00 00 09              DB 01Bh, 000h, 000h, 009h, 009h, 009h, 009h, 000h, 000h, 024h
	. . .
3138	00 24 

313A	09 09 00 00              DB 009h, 009h, 000h, 000h, 000h, 009h, 009h, 009h, 009h, 009h
	. . .
3142	09 09 

3144	09 00 00 00              DB 009h, 000h, 000h, 000h, 009h, 009h, 02Dh, 009h, 01Bh, 000h
	. . .
314C	1B 00 

314E	2D 09 09 09              DB 02Dh, 009h, 009h, 009h, 009h, 000h, 024h, 009h, 009h, 009h
	. . .
3156	09 09 

3158	00 09 00 09              DB 000h, 009h, 000h, 009h, 009h, 009h, 009h, 009h, 000h, 000h
	. . .
3160	00 00 

3162	09 00 2D 09              DB 009h, 000h, 02Dh, 009h, 02Dh, 009h, 01Bh, 000h, 02Dh, 009h
	. . .
316A	2D 09 

316C	09 00 00 24              DB 009h, 000h, 000h, 024h, 009h, 009h, 009h, 000h, 000h, 009h
	. . .
3174	00 09 

3176	2D 09 09 09              DB 02Dh, 009h, 009h, 009h, 000h, 000h, 000h, 009h, 009h, 000h
	. . .
317E	09 00 

3180	00 09 00 09              DB 000h, 009h, 000h, 009h, 01Bh, 000h, 02Dh, 009h, 009h, 000h
	. . .
3188	09 00 

318A	2D 09 09 09              DB 02Dh, 009h, 009h, 009h, 000h, 000h, 009h, 009h, 02Dh, 009h
	. . .
3192	2D 09 

3194	09 00 00 00              DB 009h, 000h, 000h, 000h, 009h, 009h, 009h, 000h, 000h, 009h
	. . .
319C	00 09 

319E	00 09 1B 00              DB 000h, 009h, 01Bh, 000h, 000h, 009h, 009h, 000h, 02Dh, 009h
	. . .
31A6	2D 09 

31A8	09 00 00 09              DB 009h, 000h, 000h, 009h, 009h, 009h, 000h, 009h, 009h, 000h
	. . .
31B0	09 00 

31B2	00 09 09 2D              DB 000h, 009h, 009h, 02Dh, 009h, 000h, 000h, 000h, 000h, 009h
	. . .
31BA	00 09 

31BC	1B 00 00 09              DB 01Bh, 000h, 000h, 009h, 009h, 000h, 000h, 009h, 009h, 000h
	. . .
31C4	09 00 

31C6	09 09 09 09              DB 009h, 009h, 009h, 009h, 000h, 009h, 009h, 000h, 000h, 009h
	. . .
31CE	00 09 

31D0	09 2D 09 09              DB 009h, 02Dh, 009h, 009h, 009h, 009h, 009h, 009h, 01Bh, 000h
	. . .
31D8	1B 00 

31DA	00 09 09 00              DB 000h, 009h, 009h, 000h, 000h, 000h, 000h, 000h, 009h, 009h
	. . .
31E2	09 09 

31E4	09 09 00 09              DB 009h, 009h, 000h, 009h, 009h, 000h, 000h, 009h, 009h, 009h
	. . .
31EC	09 09 

31EE	09 09 09 09              DB 009h, 009h, 009h, 009h, 009h, 009h, 01Bh, 000h, 000h, 009h
	. . .
31F6	00 09 

31F8	09 09 09 09              DB 009h, 009h, 009h, 009h, 009h, 009h, 009h, 009h, 009h, 009h
	. . .
3200	09 09 

3202	00 09 09 00              DB 000h, 009h, 009h, 000h, 000h, 024h, 024h, 024h, 024h, 024h
	. . .
320A	24 24 

320C	24 24 24 09              DB 024h, 024h, 024h, 009h, 01Bh, 000h, 000h, 024h, 024h, 024h
	. . .
3214	24 24 

3216	24 24 24 24              DB 024h, 024h, 024h, 024h, 024h, 024h, 024h, 024h, 024h, 009h
	. . .
321E	24 09 

3220	09 09 09 09              DB 009h, 009h, 009h, 009h, 009h, 009h, 009h, 009h, 009h, 009h
	. . .
3228	09 09 

322A	00 09 1B 00              DB 000h, 009h, 01Bh, 000h, 000h, 009h, 009h, 000h, 009h, 009h
	. . .
3232	09 09 

3234	09 09 09 00              DB 009h, 009h, 009h, 000h, 009h, 009h, 009h, 009h, 009h, 000h
	. . .
323C	09 00 

323E	00 00 00 00              DB 000h, 000h, 000h, 000h, 009h, 009h, 009h, 009h, 000h, 009h
	. . .
3246	00 09 

3248	1B 09 09 09              DB 01Bh, 009h, 009h, 009h, 009h, 000h, 009h, 009h, 02Dh, 02Dh
	. . .
3250	2D 2D 

3252	09 00 2D 09              DB 009h, 000h, 02Dh, 009h, 009h, 009h, 009h, 000h, 000h, 009h
	. . .
325A	00 09 

325C	09 2D 09 09              DB 009h, 02Dh, 009h, 009h, 009h, 009h, 000h, 009h, 01Bh, 000h
	. . .
3264	1B 00 

3266	00 09 09 00              DB 000h, 009h, 009h, 000h, 009h, 009h, 009h, 009h, 009h, 000h
	. . .
326E	09 00 

3270	00 00 09 09              DB 000h, 000h, 009h, 009h, 009h, 000h, 000h, 009h, 009h, 000h
	. . .
3278	09 00 

327A	00 09 09 09              DB 000h, 009h, 009h, 009h, 02Dh, 009h, 01Bh, 000h, 02Dh, 009h
	. . .
3282	2D 09 

3284	09 00 09 09              DB 009h, 000h, 009h, 009h, 009h, 009h, 009h, 000h, 000h, 000h
	. . .
328C	00 00 

328E	09 09 09 00              DB 009h, 009h, 009h, 000h, 000h, 009h, 009h, 009h, 000h, 000h
	. . .
3296	00 00 

3298	09 09 00 09              DB 009h, 009h, 000h, 009h, 01Bh, 000h, 000h, 009h, 009h, 000h
	. . .
32A0	09 00 

32A2	00 00 00 00              DB 000h, 000h, 000h, 000h, 000h, 000h, 000h, 000h, 000h, 009h
	. . .
32AA	00 09 

32AC	09 00 2D 09              DB 009h, 000h, 02Dh, 009h, 009h, 02Dh, 009h, 02Dh, 009h, 009h
	. . .
32B4	09 09 

32B6	00 09 1B 00              DB 000h, 009h, 01Bh, 000h, 000h, 009h, 009h, 009h, 009h, 02Dh
	. . .
32BE	09 2D 

32C0	09 09 09 09              DB 009h, 009h, 009h, 009h, 02Dh, 009h, 000h, 009h, 009h, 000h
	. . .
32C8	09 00 

32CA	00 09 09 2D              DB 000h, 009h, 009h, 02Dh, 009h, 000h, 000h, 000h, 000h, 009h
	. . .
32D2	00 09 

32D4	1B 00 00 09              DB 01Bh, 000h, 000h, 009h, 009h, 009h, 009h, 009h, 009h, 009h
	. . .
32DC	09 09 

32DE	09 09 09 09              DB 009h, 009h, 009h, 009h, 000h, 009h, 009h, 000h, 000h, 009h
	. . .
32E6	00 09 

32E8	09 09 09 09              DB 009h, 009h, 009h, 009h, 009h, 009h, 009h, 009h, 01Bh, 000h
	. . .
32F0	1B 00 

32F2	00 24 24 24              DB 000h, 024h, 024h, 024h, 024h, 024h, 024h, 024h, 024h, 024h
	. . .
32FA	24 24 

32FC	24 24 24 09              DB 024h, 024h, 024h, 009h, 009h, 000h, 000h, 009h, 009h, 009h
	. . .
3304	09 09 

3306	09 09 09 09              DB 009h, 009h, 009h, 009h, 009h, 009h, 01Bh, 000h, 02Dh, 009h
	. . .
330E	2D 09 

3310	09 09 09 09              DB 009h, 009h, 009h, 009h, 009h, 009h, 009h, 009h, 009h, 009h
	. . .
3318	09 09 

331A	09 09 09 00              DB 009h, 009h, 009h, 000h, 000h, 024h, 024h, 024h, 024h, 024h
	. . .
3322	24 24 

3324	24 24 24 09              DB 024h, 024h, 024h, 009h, 01Bh, 000h, 02Dh, 009h, 009h, 009h
	. . .
332C	09 09 

332E	09 09 09 09              DB 009h, 009h, 009h, 009h, 009h, 009h, 009h, 009h, 009h, 009h
	. . .
3336	09 09 

3338	09 09 09 09              DB 009h, 009h, 009h, 009h, 009h, 009h, 009h, 009h, 009h, 009h
	. . .
3340	09 09 

3342	00 09 1B 00              DB 000h, 009h, 01Bh, 000h, 02Dh, 009h, 009h, 009h, 009h, 009h
	. . .
334A	09 09 

334C	00 00 00 00              DB 000h, 000h, 000h, 000h, 000h, 000h, 000h, 000h, 000h, 009h
	. . .
3354	00 09 

3356	09 09 09 09              DB 009h, 009h, 009h, 009h, 009h, 009h, 009h, 009h, 02Dh, 009h
	. . .
335E	2D 09 

3360	1B 00 00 09              DB 01Bh, 000h, 000h, 009h, 009h, 009h, 009h, 009h, 02Dh, 009h
	. . .
3368	2D 09 

336A	09 09 09 09              DB 009h, 009h, 009h, 009h, 009h, 009h, 000h, 000h, 000h, 000h
	. . .
3372	00 00 

3374	00 00 00 00              DB 000h, 000h, 000h, 000h, 000h, 000h, 000h, 009h, 01Bh, 000h
	. . .
337C	1B 00 

337E	00 00 00 00              DB 000h, 000h, 000h, 000h, 000h, 000h, 000h, 009h, 009h, 009h
	. . .
3386	09 09 

3388	09 09 09 09              DB 009h, 009h, 009h, 009h, 009h, 009h, 009h, 009h, 009h, 009h
	. . .
3390	09 09 

3392	09 09 09 09              DB 009h, 009h, 009h, 009h, 009h, 009h, 009h, 009h, 009h, 009h
	. . .
339A	09 09 

339C	09 09 09 09              DB 009h, 009h, 009h, 009h, 009h, 009h, 009h, 009h, 009h, 009h
	. . .
33A4	09 09 

33A6	09 09 09 09              DB 009h, 009h, 009h, 009h, 009h, 009h, 009h, 009h, 009h, 009h
	. . .
33AE	09 09 

33B0	09 09 09 09              DB 009h, 009h, 009h, 009h, 0FEh, 0BAh, 0BAh, 0BAh, 0FAh, 0FAh
	. . .
33B8	FA FA 

33BA	FA 00 BA BA              DB 0FAh, 000h, 0BAh, 0BAh, 0BAh, 0FAh, 0FAh, 0FAh, 000h, 0BAh
	. . .
33C2	00 BA 

33C4	BA DF DF FA              DB 0BAh, 0DFh, 0DFh, 0FAh, 0FAh, 0DFh, 0DFh, 0BAh, 0BAh, 000h
	. . .
33CC	BA 00 

33CE	BA BA BA FA              DB 0BAh, 0BAh, 0BAh, 0FAh, 0FAh, 0FAh, 000h, 0BAh, 0BAh, 0BAh
	. . .
33D6	BA BA 

33D8	FA FA FA 00              DB 0FAh, 0FAh, 0FAh, 000h, 0C6h, 0C6h, 0DFh, 0DFh, 0FAh, 0FAh
	. . .
33E0	FA FA 

33E2	DF DF C6 C6              DB 0DFh, 0DFh, 0C6h, 0C6h, 000h, 0FFh, 000h, 000h, 000h, 000h
	. . .
33EA	00 00 

33EC	00 00 00 00              DB 000h, 000h, 000h, 000h, 000h, 000h, 000h, 000h, 000h, 000h
	. . .
33F4	00 00 

33F6	00 00 00 00              DB 000h, 000h, 000h, 000h, 000h, 000h, 000h, 000h, 000h, 000h
	. . .
33FE	00 00 

3400	09 09 09 09              DB 009h, 009h, 009h, 009h, 009h, 009h, 009h, 009h, 009h, 009h
	. . .
3408	09 09 

340A	09 09 09 09              DB 009h, 009h, 009h, 009h, 009h, 009h, 009h, 009h, 009h, 009h
	. . .
3412	09 09 

3414	09 09 09 09              DB 009h, 009h, 009h, 009h, 009h, 009h, 009h, 009h, 01Bh, 000h
	. . .
341C	1B 00 

341E	00 09 00 2D              DB 000h, 009h, 000h, 02Dh, 009h, 000h, 000h, 009h, 000h, 000h
	. . .
3426	00 00 

3428	09 00 00 09              DB 009h, 000h, 000h, 009h, 000h, 000h, 009h, 000h, 000h, 009h
	. . .
3430	00 09 

3432	00 2D 09 00              DB 000h, 02Dh, 009h, 000h, 000h, 009h, 036h, 03Fh, 024h, 009h
	. . .
343A	24 09 

343C	00 00 09 00              DB 000h, 000h, 009h, 000h, 000h, 009h, 000h, 02Dh, 009h, 000h
	. . .
3444	09 00 

3446	00 09 00 00              DB 000h, 009h, 000h, 000h, 009h, 000h, 000h, 009h, 000h, 000h
	. . .
344E	00 00 

3450	09 00 00 09              DB 009h, 000h, 000h, 009h, 01Bh, 000h, 000h, 009h, 000h, 000h
	. . .
3458	00 00 

345A	09 00 00 09              DB 009h, 000h, 000h, 009h, 000h, 000h, 009h, 000h, 02Dh, 009h
	. . .
3462	2D 09 

3464	00 00 09 00              DB 000h, 000h, 009h, 000h, 000h, 009h, 000h, 000h, 009h, 000h
	. . .
346C	09 00 

346E	00 09 1B 00              DB 000h, 009h, 01Bh, 000h, 000h, 024h, 024h, 024h, 009h, 000h
	. . .
3476	09 00 

3478	00 09 00 00              DB 000h, 009h, 000h, 000h, 009h, 000h, 000h, 009h, 000h, 000h
	. . .
3480	00 00 

3482	09 00 2D 09              DB 009h, 000h, 02Dh, 009h, 000h, 000h, 009h, 000h, 02Dh, 009h
	. . .
348A	2D 09 

348C	1B 00 00 09              DB 01Bh, 000h, 000h, 009h, 000h, 000h, 009h, 000h, 000h, 024h
	. . .
3494	00 24 

3496	24 24 09 00              DB 024h, 024h, 009h, 000h, 000h, 024h, 024h, 024h, 024h, 024h
	. . .
349E	24 24 

34A0	24 09 00 00              DB 024h, 009h, 000h, 000h, 009h, 000h, 000h, 009h, 01Bh, 000h
	. . .
34A8	1B 00 

34AA	00 09 00 00              DB 000h, 009h, 000h, 000h, 009h, 000h, 02Dh, 009h, 000h, 000h
	. . .
34B2	00 00 

34B4	09 00 00 09              DB 009h, 000h, 000h, 009h, 000h, 000h, 009h, 000h, 000h, 009h
	. . .
34BC	00 09 

34BE	00 00 09 00              DB 000h, 000h, 009h, 000h, 000h, 009h, 01Bh, 000h, 000h, 009h
	. . .
34C6	00 09 

34C8	00 00 09 00              DB 000h, 000h, 009h, 000h, 000h, 009h, 000h, 000h, 009h, 000h
	. . .
34D0	09 00 

34D2	00 09 00 00              DB 000h, 009h, 000h, 000h, 009h, 000h, 000h, 009h, 000h, 000h
	. . .
34DA	00 00 

34DC	24 24 24 09              DB 024h, 024h, 024h, 009h, 01Bh, 000h, 000h, 009h, 000h, 000h
	. . .
34E4	00 00 

34E6	09 00 00 09              DB 009h, 000h, 000h, 009h, 000h, 02Dh, 009h, 000h, 000h, 009h
	. . .
34EE	00 09 

34F0	00 2D 09 00              DB 000h, 02Dh, 009h, 000h, 000h, 009h, 000h, 000h, 009h, 000h
	. . .
34F8	09 00 

34FA	00 09 1B 00              DB 000h, 009h, 01Bh, 000h, 000h, 009h, 000h, 000h, 024h, 024h
	. . .
3502	24 24 

3504	24 09 00 00              DB 024h, 009h, 000h, 000h, 009h, 000h, 000h, 009h, 000h, 000h
	. . .
350C	00 00 

350E	09 00 00 09              DB 009h, 000h, 000h, 009h, 000h, 000h, 009h, 000h, 000h, 009h
	. . .
3516	00 09 

3518	1B 00 00 09              DB 01Bh, 000h, 000h, 009h, 000h, 000h, 009h, 000h, 000h, 009h
	. . .
3520	00 09 

3522	00 00 09 00              DB 000h, 000h, 009h, 000h, 000h, 009h, 000h, 000h, 009h, 000h
	. . .
352A	09 00 

352C	2D 09 00 00              DB 02Dh, 009h, 000h, 000h, 009h, 000h, 000h, 009h, 01Bh, 000h
	. . .
3534	1B 00 

3536	00 09 00 00              DB 000h, 009h, 000h, 000h, 009h, 000h, 000h, 009h, 000h, 000h
	. . .
353E	00 00 

3540	09 00 00 09              DB 009h, 000h, 000h, 009h, 000h, 000h, 009h, 000h, 000h, 009h
	. . .
3548	00 09 

354A	00 00 09 00              DB 000h, 000h, 009h, 000h, 000h, 009h, 01Bh, 000h, 02Dh, 009h
	. . .
3552	2D 09 

3554	00 2D 09 00              DB 000h, 02Dh, 009h, 000h, 000h, 024h, 024h, 024h, 024h, 024h
	. . .
355C	24 24 

355E	24 24 24 24              DB 024h, 024h, 024h, 024h, 024h, 024h, 024h, 024h, 024h, 024h
	. . .
3566	24 24 

3568	09 00 00 09              DB 009h, 000h, 000h, 009h, 01Bh, 000h, 02Dh, 009h, 000h, 000h
	. . .
3570	00 00 

3572	09 00 00 09              DB 009h, 000h, 000h, 009h, 000h, 000h, 02Dh, 000h, 000h, 009h
	. . .
357A	00 09 

357C	00 00 09 00              DB 000h, 000h, 009h, 000h, 000h, 009h, 000h, 000h, 009h, 000h
	. . .
3584	09 00 

3586	00 09 1B 00              DB 000h, 009h, 01Bh, 000h, 000h, 009h, 000h, 000h, 009h, 000h
	. . .
358E	09 00 

3590	00 09 00 00              DB 000h, 009h, 000h, 000h, 009h, 000h, 02Dh, 009h, 000h, 000h
	. . .
3598	00 00 

359A	09 00 00 09              DB 009h, 000h, 000h, 009h, 000h, 000h, 009h, 000h, 02Dh, 009h
	. . .
35A2	2D 09 

35A4	1B 00 00 09              DB 01Bh, 000h, 000h, 009h, 000h, 000h, 02Dh, 000h, 000h, 009h
	. . .
35AC	00 09 

35AE	00 00 09 00              DB 000h, 000h, 009h, 000h, 000h, 009h, 000h, 000h, 009h, 000h
	. . .
35B6	09 00 

35B8	00 09 00 2D              DB 000h, 009h, 000h, 02Dh, 009h, 000h, 02Dh, 009h, 01Bh, 000h
	. . .
35C0	1B 00 

35C2	00 09 00 00              DB 000h, 009h, 000h, 000h, 009h, 000h, 000h, 009h, 000h, 000h
	. . .
35CA	00 00 

35CC	24 24 24 09              DB 024h, 024h, 024h, 009h, 000h, 000h, 024h, 024h, 024h, 009h
	. . .
35D4	24 09 

35D6	00 00 09 00              DB 000h, 000h, 009h, 000h, 000h, 009h, 01Bh, 000h, 000h, 009h
	. . .
35DE	00 09 

35E0	00 00 09 00              DB 000h, 000h, 009h, 000h, 02Dh, 009h, 000h, 000h, 009h, 000h
	. . .
35E8	09 00 

35EA	00 09 00 00              DB 000h, 009h, 000h, 000h, 009h, 000h, 000h, 009h, 000h, 000h
	. . .
35F2	00 00 

35F4	09 00 00 09              DB 009h, 000h, 000h, 009h, 01Bh, 000h, 000h, 009h, 000h, 000h
	. . .
35FC	00 00 

35FE	09 00 00 09              DB 009h, 000h, 000h, 009h, 000h, 000h, 009h, 000h, 000h, 009h
	. . .
3606	00 09 

3608	00 00 09 00              DB 000h, 000h, 009h, 000h, 000h, 009h, 000h, 000h, 009h, 000h
	. . .
3610	09 00 

3612	00 09 1B 00              DB 000h, 009h, 01Bh, 000h, 000h, 009h, 000h, 02Dh, 009h, 000h
	. . .
361A	09 00 

361C	00 09 00 00              DB 000h, 009h, 000h, 000h, 009h, 000h, 02Dh, 009h, 000h, 000h
	. . .
3624	00 00 

3626	09 00 00 09              DB 009h, 000h, 000h, 009h, 000h, 000h, 024h, 024h, 024h, 009h
	. . .
362E	24 09 

3630	1B 00 00 09              DB 01Bh, 000h, 000h, 009h, 000h, 000h, 009h, 000h, 000h, 009h
	. . .
3638	00 09 

363A	00 00 09 00              DB 000h, 000h, 009h, 000h, 000h, 009h, 000h, 000h, 009h, 000h
	. . .
3642	09 00 

3644	2D 09 00 00              DB 02Dh, 009h, 000h, 000h, 009h, 000h, 000h, 009h, 01Bh, 000h
	. . .
364C	1B 00 

364E	00 24 24 24              DB 000h, 024h, 024h, 024h, 024h, 024h, 024h, 009h, 000h, 02Dh
	. . .
3656	00 2D 

3658	09 00 00 24              DB 009h, 000h, 000h, 024h, 024h, 024h, 009h, 000h, 02Dh, 009h
	. . .
3660	2D 09 

3662	00 00 09 00              DB 000h, 000h, 009h, 000h, 000h, 009h, 01Bh, 000h, 000h, 009h
	. . .
366A	00 09 

366C	00 00 09 00              DB 000h, 000h, 009h, 000h, 000h, 009h, 000h, 02Dh, 009h, 000h
	. . .
3674	09 00 

3676	00 09 00 00              DB 000h, 009h, 000h, 000h, 009h, 000h, 000h, 009h, 000h, 000h
	. . .
367E	00 00 

3680	09 00 00 09              DB 009h, 000h, 000h, 009h, 01Bh, 000h, 000h, 009h, 000h, 000h
	. . .
3688	00 00 

368A	09 00 00 09              DB 009h, 000h, 000h, 009h, 000h, 000h, 009h, 000h, 000h, 009h
	. . .
3692	00 09 

3694	00 00 09 00              DB 000h, 000h, 009h, 000h, 000h, 024h, 024h, 024h, 009h, 000h
	. . .
369C	09 00 

369E	00 09 1B 00              DB 000h, 009h, 01Bh, 000h, 000h, 009h, 000h, 02Dh, 009h, 000h
	. . .
36A6	09 00 

36A8	00 09 00 00              DB 000h, 009h, 000h, 000h, 009h, 000h, 000h, 009h, 000h, 000h
	. . .
36B0	00 00 

36B2	09 00 00 09              DB 009h, 000h, 000h, 009h, 000h, 000h, 009h, 000h, 000h, 009h
	. . .
36BA	00 09 

36BC	1B 00 2D 09              DB 01Bh, 000h, 02Dh, 009h, 000h, 000h, 009h, 000h, 02Dh, 009h
	. . .
36C4	2D 09 

36C6	00 00 24 24              DB 000h, 000h, 024h, 024h, 024h, 009h, 000h, 02Dh, 009h, 000h
	. . .
36CE	09 00 

36D0	00 09 00 00              DB 000h, 009h, 000h, 000h, 009h, 000h, 000h, 009h, 01Bh, 000h
	. . .
36D8	1B 00 

36DA	00 09 00 00              DB 000h, 009h, 000h, 000h, 009h, 000h, 02Dh, 009h, 000h, 000h
	. . .
36E2	00 00 

36E4	09 00 00 09              DB 009h, 000h, 000h, 009h, 000h, 000h, 009h, 000h, 000h, 009h
	. . .
36EC	00 09 

36EE	00 00 09 00              DB 000h, 000h, 009h, 000h, 02Dh, 009h, 01Bh, 000h, 000h, 009h
	. . .
36F6	00 09 

36F8	00 00 09 00              DB 000h, 000h, 009h, 000h, 000h, 009h, 000h, 000h, 009h, 000h
	. . .
3700	09 00 

3702	00 09 00 00              DB 000h, 009h, 000h, 000h, 009h, 000h, 000h, 009h, 000h, 02Dh
	. . .
370A	00 2D 

370C	09 00 2D 09              DB 009h, 000h, 02Dh, 009h, 01Bh, 000h, 000h, 009h, 000h, 000h
	. . .
3714	00 00 

3716	09 00 00 09              DB 009h, 000h, 000h, 009h, 000h, 000h, 02Dh, 000h, 000h, 009h
	. . .
371E	00 09 

3720	00 00 24 24              DB 000h, 000h, 024h, 024h, 024h, 009h, 000h, 000h, 009h, 000h
	. . .
3728	09 00 

372A	00 09 1B 00              DB 000h, 009h, 01Bh, 000h, 000h, 024h, 024h, 024h, 009h, 000h
	. . .
3732	09 00 

3734	00 09 00 00              DB 000h, 009h, 000h, 000h, 009h, 000h, 000h, 009h, 000h, 000h
	. . .
373C	00 00 

373E	09 00 00 09              DB 009h, 000h, 000h, 009h, 000h, 000h, 009h, 000h, 000h, 009h
	. . .
3746	00 09 

3748	1B 00 00 09              DB 01Bh, 000h, 000h, 009h, 000h, 000h, 009h, 000h, 000h, 009h
	. . .
3750	00 09 

3752	00 00 09 00              DB 000h, 000h, 009h, 000h, 000h, 009h, 000h, 000h, 009h, 000h
	. . .
375A	09 00 

375C	00 09 00 00              DB 000h, 009h, 000h, 000h, 009h, 000h, 000h, 009h, 01Bh, 000h
	. . .
3764	1B 00 

3766	00 09 00 00              DB 000h, 009h, 000h, 000h, 009h, 000h, 000h, 009h, 000h, 000h
	. . .
376E	00 00 

3770	09 00 2D 09              DB 009h, 000h, 02Dh, 009h, 000h, 000h, 009h, 000h, 000h, 009h
	. . .
3778	00 09 

377A	00 00 24 24              DB 000h, 000h, 024h, 024h, 024h, 009h, 01Bh, 000h, 000h, 009h
	. . .
3782	00 09 

3784	00 00 09 00              DB 000h, 000h, 009h, 000h, 000h, 024h, 024h, 024h, 009h, 000h
	. . .
378C	09 00 

378E	00 09 00 00              DB 000h, 009h, 000h, 000h, 009h, 000h, 000h, 009h, 000h, 02Dh
	. . .
3796	00 2D 

3798	09 00 00 09              DB 009h, 000h, 000h, 009h, 01Bh, 000h, 000h, 009h, 000h, 02Dh
	. . .
37A0	00 2D 

37A2	09 00 00 09              DB 009h, 000h, 000h, 009h, 000h, 02Dh, 009h, 000h, 000h, 009h
	. . .
37AA	00 09 

37AC	00 00 09 00              DB 000h, 000h, 009h, 000h, 000h, 009h, 000h, 000h, 009h, 000h
	. . .
37B4	09 00 

37B6	00 09 1B 00              DB 000h, 009h, 01Bh, 000h, 000h, 009h, 000h, 000h, 009h, 000h
	. . .
37BE	09 00 

37C0	00 09 00 00              DB 000h, 009h, 000h, 000h, 009h, 000h, 000h, 009h, 000h, 02Dh
	. . .
37C8	00 2D 

37CA	09 00 2D 09              DB 009h, 000h, 02Dh, 009h, 000h, 000h, 009h, 000h, 000h, 009h
	. . .
37D2	00 09 

37D4	1B 00 2D 09              DB 01Bh, 000h, 02Dh, 009h, 000h, 000h, 009h, 000h, 000h, 009h
	. . .
37DC	00 09 

37DE	00 00 09 00              DB 000h, 000h, 009h, 000h, 000h, 009h, 000h, 000h, 009h, 000h
	. . .
37E6	09 00 

37E8	2D 09 00 00              DB 02Dh, 009h, 000h, 000h, 009h, 000h, 000h, 009h, 01Bh, 000h
	. . .
37F0	1B 00 

37F2	2D 09 00 00              DB 02Dh, 009h, 000h, 000h, 009h, 000h, 02Dh, 009h, 000h, 000h
	. . .
37FA	00 00 

37FC	09 00 00 09              DB 009h, 000h, 000h, 009h, 000h, 000h, 009h, 000h, 000h, 024h
	. . .
3804	00 24 

3806	24 24 09 00              DB 024h, 024h, 009h, 000h, 000h, 009h, 01Bh, 000h, 000h, 009h
	. . .
380E	00 09 

3810	00 00 24 24              DB 000h, 000h, 024h, 024h, 024h, 009h, 000h, 000h, 024h, 024h
	. . .
3818	24 24 

381A	24 24 24 24              DB 024h, 024h, 024h, 024h, 024h, 024h, 024h, 009h, 000h, 000h
	. . .
3822	00 00 

3824	09 00 00 09              DB 009h, 000h, 000h, 009h, 01Bh, 000h, 000h, 009h, 02Dh, 000h
	. . .
382C	2D 00 

382E	09 00 00 09              DB 009h, 000h, 000h, 009h, 000h, 000h, 009h, 000h, 000h, 009h
	. . .
3836	00 09 

3838	00 00 09 00              DB 000h, 000h, 009h, 000h, 000h, 009h, 000h, 000h, 009h, 000h
	. . .
3840	09 00 

3842	00 09 1B 00              DB 000h, 009h, 01Bh, 000h, 000h, 009h, 02Dh, 000h, 009h, 000h
	. . .
384A	09 00 

384C	00 09 00 00              DB 000h, 009h, 000h, 000h, 009h, 000h, 02Dh, 009h, 000h, 000h
	. . .
3854	00 00 

3856	09 00 00 09              DB 009h, 000h, 000h, 009h, 000h, 000h, 009h, 000h, 02Dh, 009h
	. . .
385E	2D 09 

3860	1B 00 00 09              DB 01Bh, 000h, 000h, 009h, 000h, 000h, 009h, 000h, 000h, 009h
	. . .
3868	00 09 

386A	00 00 09 00              DB 000h, 000h, 009h, 000h, 02Dh, 009h, 000h, 000h, 009h, 000h
	. . .
3872	09 00 

3874	00 09 00 00              DB 000h, 009h, 000h, 000h, 009h, 000h, 000h, 009h, 01Bh, 000h
	. . .
387C	1B 00 

387E	00 09 00 00              DB 000h, 009h, 000h, 000h, 009h, 000h, 000h, 009h, 000h, 000h
	. . .
3886	00 00 

3888	09 00 00 09              DB 009h, 000h, 000h, 009h, 000h, 000h, 009h, 000h, 000h, 009h
	. . .
3890	00 09 

3892	00 00 09 00              DB 000h, 000h, 009h, 000h, 000h, 009h, 009h, 009h, 009h, 009h
	. . .
389A	09 09 

389C	09 09 09 09              DB 009h, 009h, 009h, 009h, 009h, 009h, 009h, 009h, 009h, 009h
	. . .
38A4	09 09 

38A6	09 09 09 09              DB 009h, 009h, 009h, 009h, 009h, 009h, 009h, 009h, 009h, 009h
	. . .
38AE	09 09 

38B0	09 09 09 09              DB 009h, 009h, 009h, 009h, 0FEh, 0FAh, 0DFh, 000h, 0DFh, 0C6h
	. . .
38B8	DF C6 

38BA	00 FA DF 00              DB 000h, 0FAh, 0DFh, 000h, 0DFh, 0C6h, 000h, 0FAh, 0DFh, 0C6h
	. . .
38C2	DF C6 

38C4	00 FA DF C6              DB 000h, 0FAh, 0DFh, 0C6h, 000h, 0DFh, 0C6h, 000h, 0BAh, 0C6h
	. . .
38CC	BA C6 

38CE	00 DF C6 00              DB 000h, 0DFh, 0C6h, 000h, 0BAh, 0C6h, 000h, 0BAh, 0BAh, 0BAh
	. . .
38D6	BA BA 

38D8	00 DF DF DF              DB 000h, 0DFh, 0DFh, 0DFh, 000h, 0FAh, 0FAh, 0FAh, 000h, 0DFh
	. . .
38E0	00 DF 

38E2	DF DF 00 BA              DB 0DFh, 0DFh, 000h, 0BAh, 0BAh, 0BAh, 000h, 0DFh, 0DFh, 0DFh
	. . .
38EA	DF DF 

38EC	00 FA FA FA              DB 000h, 0FAh, 0FAh, 0FAh, 000h, 000h, 000h, 0FFh, 0FFh, 000h
	. . .
38F4	FF 00 

38F6	00 00 00 00              DB 000h, 000h, 000h, 000h, 000h, 000h, 000h, 000h, 000h, 000h
	. . .
38FE	00 00 

3900	09 09 09 09              DB 009h, 009h, 009h, 009h, 009h, 009h, 009h, 009h, 009h, 009h
	. . .
3908	09 09 

390A	09 09 09 09              DB 009h, 009h, 009h, 009h, 009h, 009h, 009h, 009h, 009h, 009h
	. . .
3912	09 09 

3914	09 09 09 09              DB 009h, 009h, 009h, 009h, 009h, 009h, 009h, 009h, 01Bh, 000h
	. . .
391C	1B 00 

391E	00 00 00 00              DB 000h, 000h, 000h, 000h, 000h, 000h, 000h, 000h, 000h, 000h
	. . .
3926	00 00 

3928	00 00 00 00              DB 000h, 000h, 000h, 000h, 000h, 000h, 000h, 000h, 009h, 000h
	. . .
3930	09 00 

3932	00 00 00 00              DB 000h, 000h, 000h, 000h, 000h, 009h, 036h, 03Fh, 024h, 024h
	. . .
393A	24 24 

393C	24 24 00 00              DB 024h, 024h, 000h, 000h, 000h, 02Dh, 02Dh, 000h, 000h, 000h
	. . .
3944	00 00 

3946	00 00 24 24              DB 000h, 000h, 024h, 024h, 000h, 000h, 009h, 000h, 000h, 000h
	. . .
394E	00 00 

3950	00 00 00 09              DB 000h, 000h, 000h, 009h, 01Bh, 000h, 000h, 000h, 000h, 000h
	. . .
3958	00 00 

395A	24 00 00 2D              DB 024h, 000h, 000h, 02Dh, 02Dh, 000h, 000h, 000h, 000h, 000h
	. . .
3962	00 00 

3964	24 00 00 00              DB 024h, 000h, 000h, 000h, 009h, 000h, 024h, 024h, 024h, 024h
	. . .
396C	24 24 

396E	24 09 1B 00              DB 024h, 009h, 01Bh, 000h, 000h, 000h, 000h, 000h, 000h, 024h
	. . .
3976	00 24 

3978	00 00 00 00              DB 000h, 000h, 000h, 000h, 000h, 000h, 000h, 000h, 024h, 024h
	. . .
3980	24 24 

3982	00 00 09 00              DB 000h, 000h, 009h, 000h, 009h, 009h, 000h, 000h, 000h, 009h
	. . .
398A	00 09 

398C	1B 00 00 00              DB 01Bh, 000h, 000h, 000h, 000h, 000h, 000h, 000h, 024h, 024h
	. . .
3994	24 24 

3996	24 24 24 24              DB 024h, 024h, 024h, 024h, 024h, 024h, 024h, 000h, 000h, 000h
	. . .
399E	00 00 

39A0	09 00 00 09              DB 009h, 000h, 000h, 009h, 000h, 000h, 000h, 009h, 01Bh, 000h
	. . .
39A8	1B 00 

39AA	00 00 00 00              DB 000h, 000h, 000h, 000h, 000h, 000h, 000h, 000h, 012h, 000h
	. . .
39B2	12 00 

39B4	00 00 00 00              DB 000h, 000h, 000h, 000h, 000h, 000h, 000h, 000h, 009h, 000h
	. . .
39BC	09 00 

39BE	00 09 00 00              DB 000h, 009h, 000h, 000h, 024h, 009h, 01Bh, 000h, 000h, 000h
	. . .
39C6	00 00 

39C8	00 00 00 00              DB 000h, 000h, 000h, 000h, 000h, 000h, 012h, 000h, 000h, 000h
	. . .
39D0	00 00 

39D2	00 00 00 00              DB 000h, 000h, 000h, 000h, 000h, 000h, 009h, 000h, 000h, 009h
	. . .
39DA	00 09 

39DC	00 2D 09 09              DB 000h, 02Dh, 009h, 009h, 01Bh, 000h, 000h, 000h, 000h, 000h
	. . .
39E4	00 00 

39E6	00 00 00 00              DB 000h, 000h, 000h, 000h, 024h, 024h, 024h, 024h, 024h, 024h
	. . .
39EE	24 24 

39F0	24 24 24 24              DB 024h, 024h, 024h, 024h, 024h, 024h, 024h, 009h, 000h, 000h
	. . .
39F8	00 00 

39FA	24 09 1B 00              DB 024h, 009h, 01Bh, 000h, 000h, 000h, 000h, 000h, 000h, 000h
	. . .
3A02	00 00 

3A04	00 00 12 00              DB 000h, 000h, 012h, 000h, 000h, 000h, 000h, 000h, 000h, 000h
	. . .
3A0C	00 00 

3A0E	00 00 09 00              DB 000h, 000h, 009h, 000h, 000h, 009h, 000h, 000h, 000h, 009h
	. . .
3A16	00 09 

3A18	1B 00 00 00              DB 01Bh, 000h, 000h, 000h, 000h, 000h, 000h, 000h, 024h, 024h
	. . .
3A20	24 24 

3A22	24 24 00 00              DB 024h, 024h, 000h, 000h, 000h, 000h, 000h, 02Dh, 000h, 000h
	. . .
3A2A	00 00 

3A2C	09 00 00 09              DB 009h, 000h, 000h, 009h, 000h, 000h, 000h, 009h, 01Bh, 000h
	. . .
3A34	1B 00 

3A36	00 00 00 00              DB 000h, 000h, 000h, 000h, 000h, 024h, 000h, 000h, 000h, 000h
	. . .
3A3E	00 00 

3A40	24 00 00 00              DB 024h, 000h, 000h, 000h, 000h, 02Dh, 000h, 000h, 009h, 000h
	. . .
3A48	09 00 

3A4A	00 09 00 00              DB 000h, 009h, 000h, 000h, 000h, 009h, 01Bh, 000h, 000h, 000h
	. . .
3A52	00 00 

3A54	00 00 24 00              DB 000h, 000h, 024h, 000h, 000h, 02Dh, 02Dh, 000h, 000h, 024h
	. . .
3A5C	00 24 

3A5E	00 00 00 2D              DB 000h, 000h, 000h, 02Dh, 000h, 000h, 009h, 000h, 000h, 009h
	. . .
3A66	00 09 

3A68	00 00 00 09              DB 000h, 000h, 000h, 009h, 01Bh, 000h, 000h, 000h, 000h, 024h
	. . .
3A70	00 24 

3A72	00 00 00 2D              DB 000h, 000h, 000h, 02Dh, 02Dh, 000h, 000h, 000h, 024h, 000h
	. . .
3A7A	24 00 

3A7C	00 2D 00 00              DB 000h, 02Dh, 000h, 000h, 009h, 000h, 000h, 009h, 000h, 000h
	. . .
3A84	00 00 

3A86	00 09 1B 00              DB 000h, 009h, 01Bh, 000h, 000h, 000h, 024h, 000h, 000h, 000h
	. . .
3A8E	00 00 

3A90	00 2D 2D 00              DB 000h, 02Dh, 02Dh, 000h, 000h, 000h, 000h, 024h, 000h, 02Dh
	. . .
3A98	00 2D 

3A9A	00 00 09 00              DB 000h, 000h, 009h, 000h, 000h, 009h, 000h, 000h, 000h, 009h
	. . .
3AA2	00 09 

3AA4	1B 00 00 24              DB 01Bh, 000h, 000h, 024h, 000h, 000h, 000h, 000h, 000h, 02Dh
	. . .
3AAC	00 2D 

3AAE	2D 00 00 00              DB 02Dh, 000h, 000h, 000h, 000h, 000h, 024h, 000h, 000h, 000h
	. . .
3AB6	00 00 

3AB8	09 00 00 09              DB 009h, 000h, 000h, 009h, 000h, 000h, 000h, 009h, 01Bh, 000h
	. . .
3AC0	1B 00 

3AC2	00 12 00 00              DB 000h, 012h, 000h, 000h, 000h, 000h, 02Dh, 000h, 000h, 02Dh
	. . .
3ACA	00 2D 

3ACC	00 00 00 00              DB 000h, 000h, 000h, 000h, 000h, 012h, 000h, 000h, 009h, 000h
	. . .
3AD4	09 00 

3AD6	00 09 00 00              DB 000h, 009h, 000h, 000h, 000h, 009h, 01Bh, 000h, 000h, 012h
	. . .
3ADE	00 12 

3AE0	00 00 00 2D              DB 000h, 000h, 000h, 02Dh, 000h, 000h, 000h, 000h, 02Dh, 000h
	. . .
3AE8	2D 00 

3AEA	00 00 00 12              DB 000h, 000h, 000h, 012h, 000h, 000h, 009h, 000h, 000h, 009h
	. . .
3AF2	00 09 

3AF4	00 00 00 09              DB 000h, 000h, 000h, 009h, 01Bh, 000h, 000h, 024h, 024h, 024h
	. . .
3AFC	24 24 

3AFE	24 24 24 24              DB 024h, 024h, 024h, 024h, 024h, 024h, 024h, 024h, 024h, 024h
	. . .
3B06	24 24 

3B08	24 24 00 00              DB 024h, 024h, 000h, 000h, 009h, 000h, 000h, 009h, 000h, 000h
	. . .
3B10	00 00 

3B12	00 09 1B 00              DB 000h, 009h, 01Bh, 000h, 000h, 012h, 000h, 000h, 000h, 02Dh
	. . .
3B1A	00 2D 

3B1C	00 00 00 00              DB 000h, 000h, 000h, 000h, 02Dh, 000h, 000h, 000h, 000h, 012h
	. . .
3B24	00 12 

3B26	00 00 09 00              DB 000h, 000h, 009h, 000h, 000h, 009h, 000h, 000h, 000h, 009h
	. . .
3B2E	00 09 

3B30	1B 00 00 12              DB 01Bh, 000h, 000h, 012h, 000h, 000h, 000h, 000h, 02Dh, 000h
	. . .
3B38	2D 00 

3B3A	00 2D 00 00              DB 000h, 02Dh, 000h, 000h, 000h, 000h, 000h, 012h, 000h, 000h
	. . .
3B42	00 00 

3B44	09 00 00 24              DB 009h, 000h, 000h, 024h, 024h, 024h, 024h, 009h, 01Bh, 000h
	. . .
3B4C	1B 00 

3B4E	00 24 00 00              DB 000h, 024h, 000h, 000h, 000h, 000h, 000h, 02Dh, 02Dh, 000h
	. . .
3B56	2D 00 

3B58	00 00 00 00              DB 000h, 000h, 000h, 000h, 024h, 000h, 000h, 000h, 009h, 000h
	. . .
3B60	09 00 

3B62	00 09 00 00              DB 000h, 009h, 000h, 000h, 000h, 009h, 01Bh, 000h, 000h, 000h
	. . .
3B6A	00 00 

3B6C	24 00 00 00              DB 024h, 000h, 000h, 000h, 000h, 02Dh, 02Dh, 000h, 000h, 000h
	. . .
3B74	00 00 

3B76	00 24 00 2D              DB 000h, 024h, 000h, 02Dh, 000h, 000h, 009h, 000h, 000h, 009h
	. . .
3B7E	00 09 

3B80	00 00 00 09              DB 000h, 000h, 000h, 009h, 01Bh, 000h, 000h, 000h, 000h, 024h
	. . .
3B88	00 24 

3B8A	00 00 00 2D              DB 000h, 000h, 000h, 02Dh, 02Dh, 000h, 000h, 000h, 024h, 000h
	. . .
3B92	24 00 

3B94	00 2D 00 00              DB 000h, 02Dh, 000h, 000h, 009h, 000h, 000h, 009h, 000h, 000h
	. . .
3B9C	00 00 

3B9E	00 09 1B 00              DB 000h, 009h, 01Bh, 000h, 000h, 000h, 000h, 000h, 024h, 000h
	. . .
3BA6	24 00 

3BA8	00 2D 2D 00              DB 000h, 02Dh, 02Dh, 000h, 000h, 024h, 000h, 000h, 000h, 02Dh
	. . .
3BB0	00 2D 

3BB2	00 00 09 00              DB 000h, 000h, 009h, 000h, 000h, 009h, 000h, 000h, 000h, 009h
	. . .
3BBA	00 09 

3BBC	1B 00 00 00              DB 01Bh, 000h, 000h, 000h, 000h, 000h, 000h, 024h, 000h, 000h
	. . .
3BC4	00 00 

3BC6	00 00 24 00              DB 000h, 000h, 024h, 000h, 000h, 000h, 000h, 02Dh, 000h, 000h
	. . .
3BCE	00 00 

3BD0	09 00 00 09              DB 009h, 000h, 000h, 009h, 000h, 000h, 000h, 009h, 01Bh, 000h
	. . .
3BD8	1B 00 

3BDA	00 00 00 00              DB 000h, 000h, 000h, 000h, 000h, 000h, 024h, 024h, 024h, 024h
	. . .
3BE2	24 24 

3BE4	00 00 00 00              DB 000h, 000h, 000h, 000h, 000h, 02Dh, 000h, 000h, 009h, 000h
	. . .
3BEC	09 00 

3BEE	00 09 00 00              DB 000h, 009h, 000h, 000h, 000h, 009h, 01Bh, 000h, 000h, 000h
	. . .
3BF6	00 00 

3BF8	00 00 00 00              DB 000h, 000h, 000h, 000h, 000h, 000h, 012h, 000h, 000h, 000h
	. . .
3C00	00 00 

3C02	00 00 00 00              DB 000h, 000h, 000h, 000h, 000h, 000h, 009h, 000h, 000h, 009h
	. . .
3C0A	00 09 

3C0C	00 00 00 09              DB 000h, 000h, 000h, 009h, 01Bh, 000h, 000h, 000h, 000h, 000h
	. . .
3C14	00 00 

3C16	00 00 00 00              DB 000h, 000h, 000h, 000h, 012h, 000h, 000h, 000h, 000h, 000h
	. . .
3C1E	00 00 

3C20	00 00 00 00              DB 000h, 000h, 000h, 000h, 009h, 000h, 000h, 009h, 000h, 000h
	. . .
3C28	00 00 

3C2A	00 09 1B 00              DB 000h, 009h, 01Bh, 000h, 000h, 000h, 000h, 000h, 000h, 000h
	. . .
3C32	00 00 

3C34	00 00 24 24              DB 000h, 000h, 024h, 024h, 024h, 024h, 024h, 024h, 024h, 024h
	. . .
3C3C	24 24 

3C3E	24 24 24 24              DB 024h, 024h, 024h, 024h, 024h, 009h, 000h, 000h, 000h, 009h
	. . .
3C46	00 09 

3C48	1B 00 00 D0              DB 01Bh, 000h, 000h, 0D0h, 000h, 000h, 000h, 000h, 000h, 000h
	. . .
3C50	00 00 

3C52	12 00 00 00              DB 012h, 000h, 000h, 000h, 000h, 000h, 000h, 000h, 000h, 000h
	. . .
3C5A	00 00 

3C5C	09 00 00 09              DB 009h, 000h, 000h, 009h, 000h, 000h, 000h, 009h, 01Bh, 000h
	. . .
3C64	1B 00 

3C66	00 D0 00 00              DB 000h, 0D0h, 000h, 000h, 000h, 000h, 000h, 000h, 012h, 000h
	. . .
3C6E	12 00 

3C70	00 00 00 00              DB 000h, 000h, 000h, 000h, 000h, 000h, 000h, 000h, 009h, 000h
	. . .
3C78	09 00 

3C7A	00 09 00 00              DB 000h, 009h, 000h, 000h, 000h, 009h, 01Bh, 000h, 000h, 024h
	. . .
3C82	00 24 

3C84	24 24 24 24              DB 024h, 024h, 024h, 024h, 024h, 024h, 024h, 024h, 024h, 024h
	. . .
3C8C	24 24 

3C8E	24 24 24 00              DB 024h, 024h, 024h, 000h, 000h, 000h, 009h, 000h, 000h, 009h
	. . .
3C96	00 09 

3C98	00 00 00 09              DB 000h, 000h, 000h, 009h, 01Bh, 000h, 000h, 024h, 024h, 000h
	. . .
3CA0	24 00 

3CA2	00 00 00 00              DB 000h, 000h, 000h, 000h, 000h, 000h, 000h, 000h, 000h, 000h
	. . .
3CAA	00 00 

3CAC	24 24 00 00              DB 024h, 024h, 000h, 000h, 009h, 000h, 000h, 009h, 000h, 000h
	. . .
3CB4	00 00 

3CB6	00 09 1B 00              DB 000h, 009h, 01Bh, 000h, 000h, 024h, 024h, 024h, 000h, 000h
	. . .
3CBE	00 00 

3CC0	00 2D 2D 00              DB 000h, 02Dh, 02Dh, 000h, 000h, 000h, 000h, 000h, 024h, 000h
	. . .
3CC8	24 00 

3CCA	00 00 09 00              DB 000h, 000h, 009h, 000h, 000h, 009h, 000h, 000h, 024h, 009h
	. . .
3CD2	24 09 

3CD4	1B 00 00 24              DB 01Bh, 000h, 000h, 024h, 024h, 000h, 000h, 000h, 000h, 02Dh
	. . .
3CDC	00 2D 

3CDE	2D 00 00 00              DB 02Dh, 000h, 000h, 000h, 000h, 000h, 024h, 024h, 000h, 000h
	. . .
3CE6	00 00 

3CE8	09 00 00 09              DB 009h, 000h, 000h, 009h, 000h, 02Dh, 009h, 009h, 01Bh, 000h
	. . .
3CF0	1B 00 

3CF2	00 24 24 24              DB 000h, 024h, 024h, 024h, 000h, 000h, 000h, 02Dh, 02Dh, 000h
	. . .
3CFA	2D 00 

3CFC	00 00 00 00              DB 000h, 000h, 000h, 000h, 024h, 000h, 000h, 000h, 009h, 000h
	. . .
3D04	09 00 

3D06	00 09 00 00              DB 000h, 009h, 000h, 000h, 024h, 009h, 01Bh, 000h, 000h, 024h
	. . .
3D0E	00 24 

3D10	24 00 00 00              DB 024h, 000h, 000h, 000h, 000h, 02Dh, 02Dh, 000h, 000h, 000h
	. . .
3D18	00 00 

3D1A	00 00 24 24              DB 000h, 000h, 024h, 024h, 000h, 000h, 009h, 000h, 000h, 009h
	. . .
3D22	00 09 

3D24	00 00 00 09              DB 000h, 000h, 000h, 009h, 01Bh, 000h, 000h, 024h, 024h, 024h
	. . .
3D2C	24 24 

3D2E	00 00 00 2D              DB 000h, 000h, 000h, 02Dh, 02Dh, 000h, 000h, 000h, 000h, 000h
	. . .
3D36	00 00 

3D38	24 00 00 00              DB 024h, 000h, 000h, 000h, 009h, 000h, 009h, 009h, 000h, 000h
	. . .
3D40	00 00 

3D42	00 09 1B 00              DB 000h, 009h, 01Bh, 000h, 000h, 024h, 024h, 000h, 000h, 000h
	. . .
3D4A	00 00 

3D4C	00 00 00 00              DB 000h, 000h, 000h, 000h, 000h, 000h, 000h, 000h, 024h, 024h
	. . .
3D54	24 24 

3D56	00 00 09 00              DB 000h, 000h, 009h, 000h, 024h, 024h, 024h, 024h, 024h, 009h
	. . .
3D5E	24 09 

3D60	1B 00 00 24              DB 01Bh, 000h, 000h, 024h, 024h, 024h, 024h, 024h, 024h, 024h
	. . .
3D68	24 24 

3D6A	24 24 24 24              DB 024h, 024h, 024h, 024h, 024h, 024h, 024h, 000h, 000h, 000h
	. . .
3D72	00 00 

3D74	09 00 00 00              DB 009h, 000h, 000h, 000h, 000h, 000h, 000h, 009h, 01Bh, 000h
	. . .
3D7C	1B 00 

3D7E	00 00 00 00              DB 000h, 000h, 000h, 000h, 000h, 000h, 000h, 000h, 000h, 000h
	. . .
3D86	00 00 

3D88	00 00 00 00              DB 000h, 000h, 000h, 000h, 000h, 000h, 000h, 000h, 009h, 000h
	. . .
3D90	09 00 

3D92	00 00 00 00              DB 000h, 000h, 000h, 000h, 000h, 009h, 009h, 009h, 009h, 009h
	. . .
3D9A	09 09 

3D9C	09 09 09 09              DB 009h, 009h, 009h, 009h, 009h, 009h, 009h, 009h, 009h, 009h
	. . .
3DA4	09 09 

3DA6	09 09 09 09              DB 009h, 009h, 009h, 009h, 009h, 009h, 009h, 009h, 009h, 009h
	. . .
3DAE	09 09 

3DB0	09 09 09 09              DB 009h, 009h, 009h, 009h, 0FEh, 0BAh, 0BAh, 0DFh, 0DFh, 0BAh
	. . .
3DB8	DF BA 

3DBA	BA DF DF FA              DB 0BAh, 0DFh, 0DFh, 0FAh, 0FAh, 0BAh, 0BAh, 0DFh, 0DFh, 0BAh
	. . .
3DC2	DF BA 

3DC4	BA FA FA DF              DB 0BAh, 0FAh, 0FAh, 0DFh, 0DFh, 0BAh, 0BAh, 0BAh, 0BAh, 0A5h
	. . .
3DCC	BA A5 

3DCE	A5 DF DF DF              DB 0A5h, 0DFh, 0DFh, 0DFh, 0DFh, 0A5h, 0A5h, 0FAh, 0FAh, 0BAh
	. . .
3DD6	FA BA 

3DD8	BA A5 A5 DF              DB 0BAh, 0A5h, 0A5h, 0DFh, 0DFh, 0FAh, 0FAh, 0BAh, 0BAh, 0A5h
	. . .
3DE0	BA A5 

3DE2	A5 DF DF BA              DB 0A5h, 0DFh, 0DFh, 0BAh, 0BAh, 0FAh, 0FAh, 0DFh, 0DFh, 0C6h
	. . .
3DEA	DF C6 

3DEC	C6 DF DF BA              DB 0C6h, 0DFh, 0DFh, 0BAh, 0BAh, 0C6h, 0C6h, 000h, 0FFh, 000h
	. . .
3DF4	FF 00 

3DF6	00 00 00 00              DB 000h, 000h, 000h, 000h, 000h, 000h, 000h, 000h, 000h, 000h
	. . .
3DFE	00 00 

3E00	09 09 09 09              DB 009h, 009h, 009h, 009h, 009h, 009h, 009h, 009h, 009h, 009h
	. . .
3E08	09 09 

3E0A	09 09 09 09              DB 009h, 009h, 009h, 009h, 009h, 009h, 009h, 009h, 009h, 009h
	. . .
3E12	09 09 

3E14	09 09 09 09              DB 009h, 009h, 009h, 009h, 009h, 009h, 009h, 009h, 01Bh, 000h
	. . .
3E1C	1B 00 

3E1E	00 00 00 00              DB 000h, 000h, 000h, 000h, 000h, 000h, 000h, 000h, 000h, 000h
	. . .
3E26	00 00 

3E28	00 00 00 00              DB 000h, 000h, 000h, 000h, 000h, 000h, 000h, 000h, 000h, 000h
	. . .
3E30	00 00 

3E32	00 00 00 00              DB 000h, 000h, 000h, 000h, 000h, 009h, 036h, 03Fh, 024h, 024h
	. . .
3E3A	24 24 

3E3C	24 24 24 24              DB 024h, 024h, 024h, 024h, 024h, 024h, 024h, 024h, 024h, 024h
	. . .
3E44	24 24 

3E46	24 24 24 24              DB 024h, 024h, 024h, 024h, 024h, 024h, 024h, 024h, 024h, 024h
	. . .
3E4E	24 24 

3E50	24 24 24 09              DB 024h, 024h, 024h, 009h, 01Bh, 000h, 000h, 012h, 000h, 000h
	. . .
3E58	00 00 

3E5A	00 12 00 00              DB 000h, 012h, 000h, 000h, 000h, 000h, 000h, 000h, 000h, 000h
	. . .
3E62	00 00 

3E64	00 00 00 00              DB 000h, 000h, 000h, 000h, 000h, 000h, 000h, 000h, 000h, 000h
	. . .
3E6C	00 00 

3E6E	00 09 1B 00              DB 000h, 009h, 01Bh, 000h, 000h, 012h, 012h, 000h, 02Dh, 012h
	. . .
3E76	2D 12 

3E78	00 00 2D 09              DB 000h, 000h, 02Dh, 009h, 009h, 009h, 009h, 009h, 009h, 009h
	. . .
3E80	09 09 

3E82	09 09 09 09              DB 009h, 009h, 009h, 009h, 009h, 009h, 009h, 000h, 000h, 009h
	. . .
3E8A	00 09 

3E8C	1B 00 00 12              DB 01Bh, 000h, 000h, 012h, 012h, 012h, 000h, 024h, 024h, 000h
	. . .
3E94	24 00 

3E96	00 09 2D 00              DB 000h, 009h, 02Dh, 000h, 000h, 000h, 000h, 02Dh, 009h, 000h
	. . .
3E9E	09 00 

3EA0	00 09 00 00              DB 000h, 009h, 000h, 000h, 009h, 000h, 000h, 009h, 01Bh, 000h
	. . .
3EA8	1B 00 

3EAA	00 12 00 12              DB 000h, 012h, 000h, 012h, 012h, 000h, 024h, 024h, 000h, 000h
	. . .
3EB2	00 00 

3EB4	09 09 00 00              DB 009h, 009h, 000h, 000h, 000h, 02Dh, 009h, 000h, 02Dh, 009h
	. . .
3EBC	2D 09 

3EBE	00 00 09 00              DB 000h, 000h, 009h, 000h, 000h, 009h, 01Bh, 000h, 000h, 012h
	. . .
3EC6	00 12 

3EC8	00 00 12 12              DB 000h, 000h, 012h, 012h, 000h, 024h, 024h, 000h, 000h, 009h
	. . .
3ED0	00 09 

3ED2	09 00 00 00              DB 009h, 000h, 000h, 000h, 009h, 000h, 000h, 009h, 000h, 02Dh
	. . .
3EDA	00 2D 

3EDC	09 00 00 09              DB 009h, 000h, 000h, 009h, 01Bh, 000h, 000h, 000h, 02Dh, 000h
	. . .
3EE4	2D 00 

3EE6	00 12 12 00              DB 000h, 012h, 012h, 000h, 024h, 024h, 000h, 02Dh, 009h, 000h
	. . .
3EEE	09 00 

3EF0	00 00 09 00              DB 000h, 000h, 009h, 000h, 000h, 009h, 000h, 000h, 009h, 000h
	. . .
3EF8	09 00 

3EFA	00 09 1B 00              DB 000h, 009h, 01Bh, 000h, 000h, 012h, 000h, 000h, 000h, 000h
	. . .
3F02	00 00 

3F04	12 12 00 24              DB 012h, 012h, 000h, 024h, 024h, 000h, 000h, 000h, 000h, 000h
	. . .
3F0C	00 00 

3F0E	09 00 2D 09              DB 009h, 000h, 02Dh, 009h, 000h, 000h, 009h, 000h, 000h, 009h
	. . .
3F16	00 09 

3F18	1B 00 2D 12              DB 01Bh, 000h, 02Dh, 012h, 000h, 000h, 000h, 000h, 000h, 012h
	. . .
3F20	00 12 

3F22	12 00 24 24              DB 012h, 000h, 024h, 024h, 000h, 000h, 000h, 000h, 009h, 000h
	. . .
3F2A	09 00 

3F2C	00 09 00 00              DB 000h, 009h, 000h, 000h, 009h, 000h, 000h, 009h, 01Bh, 000h
	. . .
3F34	1B 00 

3F36	2D 12 00 00              DB 02Dh, 012h, 000h, 000h, 000h, 02Dh, 000h, 000h, 012h, 012h
	. . .
3F3E	12 12 

3F40	00 24 24 00              DB 000h, 024h, 024h, 000h, 000h, 000h, 009h, 000h, 000h, 009h
	. . .
3F48	00 09 

3F4A	00 00 09 00              DB 000h, 000h, 009h, 000h, 000h, 009h, 01Bh, 000h, 000h, 024h
	. . .
3F52	00 24 

3F54	24 24 12 00              DB 024h, 024h, 012h, 000h, 000h, 000h, 000h, 012h, 012h, 000h
	. . .
3F5C	12 00 

3F5E	24 24 00 00              DB 024h, 024h, 000h, 000h, 000h, 000h, 000h, 009h, 000h, 02Dh
	. . .
3F66	00 2D 

3F68	09 00 00 09              DB 009h, 000h, 000h, 009h, 01Bh, 000h, 000h, 000h, 02Dh, 000h
	. . .
3F70	2D 00 

3F72	12 00 2D 00              DB 012h, 000h, 02Dh, 000h, 000h, 000h, 012h, 012h, 000h, 024h
	. . .
3F7A	00 24 

3F7C	24 00 00 00              DB 024h, 000h, 000h, 000h, 000h, 009h, 000h, 000h, 009h, 000h
	. . .
3F84	09 00 

3F86	00 09 1B 00              DB 000h, 009h, 01Bh, 000h, 000h, 012h, 000h, 000h, 024h, 024h
	. . .
3F8E	24 24 

3F90	12 00 00 00              DB 012h, 000h, 000h, 000h, 000h, 012h, 012h, 000h, 024h, 024h
	. . .
3F98	24 24 

3F9A	00 00 00 09              DB 000h, 000h, 000h, 009h, 000h, 000h, 009h, 000h, 000h, 009h
	. . .
3FA2	00 09 

3FA4	1B 00 00 12              DB 01Bh, 000h, 000h, 012h, 000h, 000h, 000h, 02Dh, 012h, 000h
	. . .
3FAC	12 00 

3FAE	00 00 00 00              DB 000h, 000h, 000h, 000h, 012h, 012h, 000h, 024h, 024h, 000h
	. . .
3FB6	24 00 

3FB8	00 00 00 00              DB 000h, 000h, 000h, 000h, 009h, 000h, 000h, 009h, 01Bh, 000h
	. . .
3FC0	1B 00 

3FC2	00 12 00 00              DB 000h, 012h, 000h, 000h, 000h, 000h, 012h, 000h, 000h, 000h
	. . .
3FCA	00 00 

3FCC	00 00 00 12              DB 000h, 000h, 000h, 012h, 012h, 000h, 024h, 024h, 000h, 000h
	. . .
3FD4	00 00 

3FD6	00 2D 09 00              DB 000h, 02Dh, 009h, 000h, 000h, 009h, 01Bh, 000h, 000h, 012h
	. . .
3FDE	00 12 

3FE0	00 00 12 00              DB 000h, 000h, 012h, 000h, 012h, 000h, 02Dh, 000h, 000h, 000h
	. . .
3FE8	00 00 

3FEA	00 00 12 12              DB 000h, 000h, 012h, 012h, 000h, 024h, 024h, 000h, 000h, 000h
	. . .
3FF2	00 00 

3FF4	09 00 00 09              DB 009h, 000h, 000h, 009h, 01Bh, 000h, 000h, 000h, 02Dh, 000h
	. . .
3FFC	2D 00 

3FFE	12 00 00 00              DB 012h, 000h, 000h, 000h, 012h, 000h, 02Dh, 000h, 000h, 000h
	. . .
4006	00 00 

4008	00 12 12 00              DB 000h, 012h, 012h, 000h, 024h, 024h, 000h, 000h, 000h, 000h
	. . .
4010	00 00 

4012	00 09 1B 00              DB 000h, 009h, 01Bh, 000h, 000h, 012h, 000h, 000h, 012h, 000h
	. . .
401A	12 00 

401C	00 00 00 00              DB 000h, 000h, 000h, 000h, 012h, 000h, 02Dh, 000h, 000h, 000h
	. . .
4024	00 00 

4026	12 12 00 24              DB 012h, 012h, 000h, 024h, 024h, 000h, 000h, 000h, 000h, 009h
	. . .
402E	00 09 

4030	1B 00 00 12              DB 01Bh, 000h, 000h, 012h, 000h, 000h, 012h, 000h, 000h, 000h
	. . .
4038	00 00 

403A	00 2D 00 00              DB 000h, 02Dh, 000h, 000h, 012h, 000h, 000h, 000h, 000h, 012h
	. . .
4042	00 12 

4044	12 00 24 24              DB 012h, 000h, 024h, 024h, 000h, 000h, 000h, 009h, 01Bh, 000h
	. . .
404C	1B 00 

404E	2D 12 00 00              DB 02Dh, 012h, 000h, 000h, 000h, 02Dh, 000h, 000h, 000h, 000h
	. . .
4056	00 00 

4058	00 00 00 2D              DB 000h, 000h, 000h, 02Dh, 000h, 000h, 000h, 000h, 012h, 012h
	. . .
4060	12 12 

4062	00 24 24 00              DB 000h, 024h, 024h, 000h, 000h, 009h, 01Bh, 000h, 000h, 012h
	. . .
406A	00 12 

406C	00 00 00 00              DB 000h, 000h, 000h, 000h, 000h, 000h, 000h, 000h, 000h, 000h
	. . .
4074	00 00 

4076	00 00 00 00              DB 000h, 000h, 000h, 000h, 000h, 000h, 000h, 012h, 012h, 000h
	. . .
407E	12 00 

4080	00 12 00 09              DB 000h, 012h, 000h, 009h, 01Bh, 000h, 000h, 024h, 024h, 024h
	. . .
4088	24 24 

408A	24 24 24 24              DB 024h, 024h, 024h, 024h, 024h, 024h, 024h, 024h, 024h, 024h
	. . .
4092	24 24 

4094	24 24 24 24              DB 024h, 024h, 024h, 024h, 024h, 024h, 024h, 024h, 024h, 024h
	. . .
409C	24 24 

409E	24 09 1B 00              DB 024h, 009h, 01Bh, 000h, 000h, 012h, 000h, 000h, 000h, 000h
	. . .
40A6	00 00 

40A8	00 00 00 00              DB 000h, 000h, 000h, 000h, 000h, 02Dh, 000h, 000h, 000h, 000h
	. . .
40B0	00 00 

40B2	00 12 00 00              DB 000h, 012h, 000h, 000h, 000h, 000h, 012h, 000h, 000h, 009h
	. . .
40BA	00 09 

40BC	1B 00 00 12              DB 01Bh, 000h, 000h, 012h, 000h, 000h, 0C2h, 0C2h, 012h, 000h
	. . .
40C4	12 00 

40C6	2D 00 12 00              DB 02Dh, 000h, 012h, 000h, 02Dh, 000h, 000h, 000h, 012h, 012h
	. . .
40CE	12 12 

40D0	00 00 24 24              DB 000h, 000h, 024h, 024h, 000h, 000h, 000h, 009h, 01Bh, 000h
	. . .
40D8	1B 00 

40DA	2D 12 00 00              DB 02Dh, 012h, 000h, 000h, 02Dh, 000h, 012h, 000h, 012h, 000h
	. . .
40E2	12 00 

40E4	12 00 00 00              DB 012h, 000h, 000h, 000h, 000h, 012h, 012h, 000h, 000h, 024h
	. . .
40EC	00 24 

40EE	24 00 00 00              DB 024h, 000h, 000h, 000h, 000h, 009h, 01Bh, 000h, 000h, 012h
	. . .
40F6	00 12 

40F8	00 00 12 00              DB 000h, 000h, 012h, 000h, 02Dh, 000h, 012h, 000h, 000h, 02Dh
	. . .
4100	00 2D 

4102	00 00 12 12              DB 000h, 000h, 012h, 012h, 000h, 000h, 024h, 024h, 000h, 000h
	. . .
410A	00 00 

410C	00 00 00 09              DB 000h, 000h, 000h, 009h, 01Bh, 000h, 000h, 000h, 02Dh, 000h
	. . .
4114	2D 00 

4116	12 00 00 00              DB 012h, 000h, 000h, 000h, 000h, 000h, 000h, 000h, 000h, 012h
	. . .
411E	00 12 

4120	12 00 00 24              DB 012h, 000h, 000h, 024h, 024h, 000h, 000h, 000h, 009h, 000h
	. . .
4128	09 00 

412A	00 09 1B 00              DB 000h, 009h, 01Bh, 000h, 000h, 000h, 02Dh, 000h, 012h, 000h
	. . .
4132	12 00 

4134	2D 00 12 00              DB 02Dh, 000h, 012h, 000h, 000h, 000h, 012h, 012h, 000h, 000h
	. . .
413C	00 00 

413E	24 24 00 00              DB 024h, 024h, 000h, 000h, 000h, 000h, 009h, 000h, 000h, 009h
	. . .
4146	00 09 

4148	1B 00 00 12              DB 01Bh, 000h, 000h, 012h, 000h, 000h, 000h, 000h, 012h, 000h
	. . .
4150	12 00 

4152	2D 00 00 12              DB 02Dh, 000h, 000h, 012h, 012h, 000h, 000h, 024h, 024h, 000h
	. . .
415A	24 00 

415C	00 00 00 00              DB 000h, 000h, 000h, 000h, 009h, 000h, 000h, 009h, 01Bh, 000h
	. . .
4164	1B 00 

4166	2D 12 00 00              DB 02Dh, 012h, 000h, 000h, 000h, 000h, 012h, 000h, 000h, 000h
	. . .
416E	00 00 

4170	12 12 00 00              DB 012h, 012h, 000h, 000h, 024h, 024h, 000h, 000h, 000h, 009h
	. . .
4178	00 09 

417A	00 2D 09 00              DB 000h, 02Dh, 009h, 000h, 000h, 009h, 01Bh, 000h, 000h, 024h
	. . .
4182	00 24 

4184	24 24 24 24              DB 024h, 024h, 024h, 024h, 000h, 000h, 000h, 012h, 012h, 000h
	. . .
418C	12 00 

418E	00 24 24 00              DB 000h, 024h, 024h, 000h, 000h, 000h, 000h, 009h, 000h, 000h
	. . .
4196	00 00 

4198	09 00 00 09              DB 009h, 000h, 000h, 009h, 01Bh, 000h, 000h, 012h, 000h, 000h
	. . .
41A0	00 00 

41A2	00 00 00 00              DB 000h, 000h, 000h, 000h, 012h, 012h, 000h, 000h, 024h, 024h
	. . .
41AA	24 24 

41AC	00 00 00 00              DB 000h, 000h, 000h, 000h, 02Dh, 009h, 000h, 000h, 009h, 000h
	. . .
41B4	09 00 

41B6	00 09 1B 00              DB 000h, 009h, 01Bh, 000h, 000h, 000h, 02Dh, 000h, 000h, 000h
	. . .
41BE	00 00 

41C0	00 12 12 00              DB 000h, 012h, 012h, 000h, 000h, 024h, 024h, 000h, 000h, 000h
	. . .
41C8	00 00 

41CA	00 00 00 09              DB 000h, 000h, 000h, 009h, 000h, 000h, 009h, 000h, 000h, 009h
	. . .
41D2	00 09 

41D4	1B 00 00 12              DB 01Bh, 000h, 000h, 012h, 000h, 000h, 000h, 000h, 012h, 012h
	. . .
41DC	12 12 

41DE	00 00 24 24              DB 000h, 000h, 024h, 024h, 000h, 000h, 009h, 000h, 000h, 000h
	. . .
41E6	00 00 

41E8	00 09 00 00              DB 000h, 009h, 000h, 000h, 009h, 000h, 000h, 009h, 01Bh, 000h
	. . .
41F0	1B 00 

41F2	00 2D 00 00              DB 000h, 02Dh, 000h, 000h, 000h, 012h, 012h, 000h, 000h, 024h
	. . .
41FA	00 24 

41FC	24 00 2D 09              DB 024h, 000h, 02Dh, 009h, 009h, 000h, 000h, 000h, 000h, 009h
	. . .
4204	00 09 

4206	00 2D 09 00              DB 000h, 02Dh, 009h, 000h, 000h, 009h, 01Bh, 000h, 02Dh, 012h
	. . .
420E	2D 12 

4210	00 00 12 12              DB 000h, 000h, 012h, 012h, 000h, 000h, 024h, 024h, 000h, 000h
	. . .
4218	00 00 

421A	09 09 00 2D              DB 009h, 009h, 000h, 02Dh, 009h, 000h, 02Dh, 009h, 000h, 000h
	. . .
4222	00 00 

4224	09 00 00 09              DB 009h, 000h, 000h, 009h, 01Bh, 000h, 000h, 012h, 000h, 012h
	. . .
422C	00 12 

422E	12 00 00 24              DB 012h, 000h, 000h, 024h, 024h, 000h, 02Dh, 009h, 02Dh, 000h
	. . .
4236	2D 00 

4238	00 00 09 00              DB 000h, 000h, 009h, 000h, 000h, 009h, 000h, 000h, 009h, 000h
	. . .
4240	09 00 

4242	00 09 1B 00              DB 000h, 009h, 01Bh, 000h, 000h, 012h, 012h, 012h, 000h, 000h
	. . .
424A	00 00 

424C	00 12 00 00              DB 000h, 012h, 000h, 000h, 000h, 009h, 009h, 009h, 009h, 009h
	. . .
4254	09 09 

4256	09 09 09 09              DB 009h, 009h, 009h, 009h, 009h, 009h, 009h, 000h, 000h, 009h
	. . .
425E	00 09 

4260	1B 00 00 12              DB 01Bh, 000h, 000h, 012h, 012h, 000h, 000h, 000h, 02Dh, 012h
	. . .
4268	2D 12 

426A	00 00 00 00              DB 000h, 000h, 000h, 000h, 000h, 000h, 000h, 000h, 000h, 000h
	. . .
4272	00 00 

4274	00 00 00 00              DB 000h, 000h, 000h, 000h, 000h, 000h, 000h, 009h, 01Bh, 000h
	. . .
427C	1B 00 

427E	00 24 24 24              DB 000h, 024h, 024h, 024h, 024h, 024h, 024h, 024h, 024h, 024h
	. . .
4286	24 24 

4288	24 24 24 24              DB 024h, 024h, 024h, 024h, 024h, 024h, 024h, 024h, 024h, 024h
	. . .
4290	24 24 

4292	24 24 24 24              DB 024h, 024h, 024h, 024h, 024h, 009h, 009h, 009h, 009h, 009h
	. . .
429A	09 09 

429C	09 09 09 09              DB 009h, 009h, 009h, 009h, 009h, 009h, 009h, 009h, 009h, 009h
	. . .
42A4	09 09 

42A6	09 09 09 09              DB 009h, 009h, 009h, 009h, 009h, 009h, 009h, 009h, 009h, 009h
	. . .
42AE	09 09 

42B0	09 09 09 09              DB 009h, 009h, 009h, 009h, 0FEh, 0BAh, 0BAh, 0BAh, 0DFh, 0DFh
	. . .
42B8	DF DF 

42BA	DF 00 FA FA              DB 0DFh, 000h, 0FAh, 0FAh, 0FAh, 0DFh, 0DFh, 0DFh, 000h, 0FAh
	. . .
42C2	00 FA 

42C4	DF FA FA DF              DB 0DFh, 0FAh, 0FAh, 0DFh, 0DFh, 0DFh, 000h, 0FAh, 0FAh, 0FAh
	. . .
42CC	FA FA 

42CE	DF DF DF 00              DB 0DFh, 0DFh, 0DFh, 000h, 0BAh, 0BAh, 0BAh, 000h, 0BAh, 0BAh
	. . .
42D6	BA BA 

42D8	BA 00 DF DF              DB 0BAh, 000h, 0DFh, 0DFh, 0DFh, 000h, 0DFh, 0DFh, 0DFh, 000h
	. . .
42E0	DF 00 

42E2	FA FA FA 00              DB 0FAh, 0FAh, 0FAh, 000h, 0DFh, 0DFh, 0DFh, 000h, 0BAh, 0BAh
	. . .
42EA	BA BA 

42EC	BA FA FA DF              DB 0BAh, 0FAh, 0FAh, 0DFh, 0DFh, 0DFh, 000h, 000h, 0FFh, 000h
	. . .
42F4	FF 00 

42F6	00 00 00 00              DB 000h, 000h, 000h, 000h, 000h, 000h, 000h, 000h, 000h, 000h
	. . .
42FE	00 00 

4300	09 09 09 09              DB 009h, 009h, 009h, 009h, 009h, 009h, 009h, 009h, 009h, 009h
	. . .
4308	09 09 

430A	09 09 09 09              DB 009h, 009h, 009h, 009h, 009h, 009h, 009h, 009h, 009h, 009h
	. . .
4312	09 09 

4314	09 09 09 09              DB 009h, 009h, 009h, 009h, 009h, 009h, 009h, 009h, 01Bh, 000h
	. . .
431C	1B 00 

431E	00 24 24 24              DB 000h, 024h, 024h, 024h, 024h, 024h, 024h, 024h, 024h, 012h
	. . .
4326	24 12 

4328	00 24 24 24              DB 000h, 024h, 024h, 024h, 009h, 000h, 000h, 024h, 024h, 024h
	. . .
4330	24 24 

4332	24 24 24 12              DB 024h, 024h, 024h, 012h, 000h, 009h, 036h, 03Fh, 024h, 000h
	. . .
433A	24 00 

433C	00 2D 09 00              DB 000h, 02Dh, 009h, 000h, 000h, 000h, 000h, 012h, 000h, 009h
	. . .
4344	00 09 

4346	00 00 09 00              DB 000h, 000h, 009h, 000h, 000h, 009h, 000h, 000h, 000h, 000h
	. . .
434E	00 00 

4350	00 12 00 09              DB 000h, 012h, 000h, 009h, 01Bh, 000h, 000h, 009h, 000h, 000h
	. . .
4358	00 00 

435A	09 00 00 00              DB 009h, 000h, 000h, 000h, 000h, 012h, 02Dh, 009h, 000h, 000h
	. . .
4362	00 00 

4364	09 00 00 09              DB 009h, 000h, 000h, 009h, 02Dh, 000h, 000h, 000h, 000h, 012h
	. . .
436C	00 12 

436E	00 09 1B 00              DB 000h, 009h, 01Bh, 000h, 000h, 009h, 000h, 000h, 012h, 000h
	. . .
4376	12 00 

4378	00 00 00 12              DB 000h, 000h, 000h, 012h, 000h, 009h, 000h, 02Dh, 009h, 000h
	. . .
4380	09 00 

4382	00 09 00 2D              DB 000h, 009h, 000h, 02Dh, 000h, 000h, 000h, 024h, 024h, 009h
	. . .
438A	24 09 

438C	1B 00 00 24              DB 01Bh, 000h, 000h, 024h, 024h, 024h, 012h, 000h, 000h, 024h
	. . .
4394	00 24 

4396	24 24 24 09              DB 024h, 024h, 024h, 009h, 000h, 000h, 009h, 000h, 000h, 009h
	. . .
439E	00 09 

43A0	00 00 00 00              DB 000h, 000h, 000h, 000h, 000h, 012h, 000h, 009h, 01Bh, 000h
	. . .
43A8	1B 00 

43AA	00 09 00 00              DB 000h, 009h, 000h, 000h, 012h, 000h, 024h, 000h, 009h, 000h
	. . .
43B2	09 00 

43B4	00 09 00 00              DB 000h, 009h, 000h, 000h, 009h, 000h, 000h, 009h, 02Dh, 02Dh
	. . .
43BC	2D 2D 

43BE	00 00 2D 12              DB 000h, 000h, 02Dh, 012h, 000h, 009h, 01Bh, 000h, 000h, 009h
	. . .
43C6	00 09 

43C8	00 00 24 24              DB 000h, 000h, 024h, 024h, 000h, 000h, 009h, 000h, 000h, 024h
	. . .
43D0	00 24 

43D2	24 24 24 24              DB 024h, 024h, 024h, 024h, 024h, 009h, 000h, 000h, 000h, 000h
	. . .
43DA	00 00 

43DC	00 12 2D 09              DB 000h, 012h, 02Dh, 009h, 01Bh, 000h, 000h, 009h, 000h, 000h
	. . .
43E4	00 00 

43E6	09 09 00 00              DB 009h, 009h, 000h, 000h, 009h, 000h, 000h, 000h, 012h, 000h
	. . .
43EE	12 00 

43F0	00 12 00 09              DB 000h, 012h, 000h, 009h, 000h, 000h, 000h, 000h, 000h, 012h
	. . .
43F8	00 12 

43FA	00 09 1B 00              DB 000h, 009h, 01Bh, 000h, 02Dh, 009h, 000h, 02Dh, 009h, 009h
	. . .
4402	09 09 

4404	00 2D 09 00              DB 000h, 02Dh, 009h, 000h, 000h, 000h, 012h, 000h, 02Dh, 012h
	. . .
440C	2D 12 

440E	00 09 00 00              DB 000h, 009h, 000h, 000h, 024h, 024h, 024h, 012h, 000h, 009h
	. . .
4416	00 09 

4418	1B 00 00 09              DB 01Bh, 000h, 000h, 009h, 000h, 000h, 024h, 009h, 000h, 000h
	. . .
4420	00 00 

4422	09 00 00 00              DB 009h, 000h, 000h, 000h, 012h, 000h, 000h, 012h, 000h, 009h
	. . .
442A	00 09 

442C	00 00 09 00              DB 000h, 000h, 009h, 000h, 000h, 012h, 000h, 009h, 01Bh, 000h
	. . .
4434	1B 00 

4436	00 09 00 00              DB 000h, 009h, 000h, 000h, 000h, 009h, 000h, 000h, 009h, 000h
	. . .
443E	09 00 

4440	00 00 12 00              DB 000h, 000h, 012h, 000h, 000h, 012h, 02Dh, 009h, 000h, 02Dh
	. . .
4448	00 2D 

444A	09 00 00 12              DB 009h, 000h, 000h, 012h, 000h, 009h, 01Bh, 000h, 000h, 024h
	. . .
4452	00 24 

4454	24 24 00 09              DB 024h, 024h, 000h, 009h, 000h, 000h, 024h, 024h, 024h, 024h
	. . .
445C	24 24 

445E	12 00 00 12              DB 012h, 000h, 000h, 012h, 000h, 009h, 000h, 000h, 009h, 000h
	. . .
4466	09 00 

4468	00 09 00 09              DB 000h, 009h, 000h, 009h, 01Bh, 000h, 000h, 000h, 012h, 000h
	. . .
4470	12 00 

4472	00 09 00 00              DB 000h, 009h, 000h, 000h, 012h, 000h, 02Dh, 000h, 012h, 000h
	. . .
447A	12 00 

447C	24 00 00 09              DB 024h, 000h, 000h, 009h, 000h, 000h, 009h, 000h, 000h, 009h
	. . .
4484	00 09 

4486	00 09 1B 00              DB 000h, 009h, 01Bh, 000h, 000h, 000h, 012h, 000h, 000h, 009h
	. . .
448E	00 09 

4490	00 00 12 00              DB 000h, 000h, 012h, 000h, 000h, 000h, 012h, 000h, 009h, 000h
	. . .
4498	09 00 

449A	00 09 00 00              DB 000h, 009h, 000h, 000h, 009h, 000h, 02Dh, 009h, 000h, 009h
	. . .
44A2	00 09 

44A4	1B 00 00 00              DB 01Bh, 000h, 000h, 000h, 012h, 000h, 000h, 024h, 024h, 024h
	. . .
44AC	24 24 

44AE	12 00 00 00              DB 012h, 000h, 000h, 000h, 012h, 000h, 009h, 000h, 000h, 024h
	. . .
44B6	00 24 

44B8	24 24 09 00              DB 024h, 024h, 009h, 000h, 02Dh, 009h, 000h, 009h, 01Bh, 000h
	. . .
44C0	1B 00 

44C2	00 2D 12 00              DB 000h, 02Dh, 012h, 000h, 000h, 009h, 000h, 000h, 012h, 000h
	. . .
44CA	12 00 

44CC	00 00 12 2D              DB 000h, 000h, 012h, 02Dh, 009h, 000h, 000h, 012h, 000h, 000h
	. . .
44D4	00 00 

44D6	00 00 00 09              DB 000h, 000h, 000h, 009h, 000h, 009h, 01Bh, 000h, 000h, 000h
	. . .
44DE	00 00 

44E0	12 00 2D 09              DB 012h, 000h, 02Dh, 009h, 000h, 000h, 012h, 000h, 000h, 000h
	. . .
44E8	00 00 

44EA	12 00 09 00              DB 012h, 000h, 009h, 000h, 000h, 024h, 024h, 024h, 024h, 024h
	. . .
44F2	24 24 

44F4	24 09 00 09              DB 024h, 009h, 000h, 009h, 01Bh, 000h, 000h, 000h, 012h, 000h
	. . .
44FC	12 00 

44FE	00 09 00 00              DB 000h, 009h, 000h, 000h, 024h, 024h, 024h, 024h, 012h, 000h
	. . .
4506	12 00 

4508	09 00 00 12              DB 009h, 000h, 000h, 012h, 000h, 009h, 000h, 02Dh, 000h, 000h
	. . .
4510	00 00 

4512	00 09 1B 00              DB 000h, 009h, 01Bh, 000h, 000h, 000h, 024h, 024h, 024h, 009h
	. . .
451A	24 09 

451C	00 00 00 12              DB 000h, 000h, 000h, 012h, 000h, 024h, 024h, 024h, 024h, 024h
	. . .
4524	24 24 

4526	24 12 00 09              DB 024h, 012h, 000h, 009h, 000h, 000h, 000h, 02Dh, 000h, 009h
	. . .
452E	00 09 

4530	1B 00 00 00              DB 01Bh, 000h, 000h, 000h, 009h, 000h, 000h, 009h, 000h, 000h
	. . .
4538	00 00 

453A	00 12 00 09              DB 000h, 012h, 000h, 009h, 000h, 000h, 000h, 000h, 000h, 012h
	. . .
4542	00 12 

4544	00 09 00 00              DB 000h, 009h, 000h, 000h, 000h, 000h, 000h, 009h, 01Bh, 000h
	. . .
454C	1B 00 

454E	00 00 09 00              DB 000h, 000h, 009h, 000h, 000h, 009h, 000h, 000h, 000h, 012h
	. . .
4556	00 12 

4558	00 09 00 00              DB 000h, 009h, 000h, 000h, 000h, 000h, 000h, 012h, 02Dh, 009h
	. . .
4560	2D 09 

4562	00 00 24 24              DB 000h, 000h, 024h, 024h, 024h, 009h, 01Bh, 000h, 000h, 000h
	. . .
456A	00 00 

456C	09 00 00 24              DB 009h, 000h, 000h, 024h, 012h, 000h, 02Dh, 012h, 000h, 009h
	. . .
4574	00 09 

4576	00 00 24 24              DB 000h, 000h, 024h, 024h, 024h, 012h, 000h, 009h, 000h, 000h
	. . .
457E	00 00 

4580	09 00 00 09              DB 009h, 000h, 000h, 009h, 01Bh, 000h, 000h, 000h, 009h, 000h
	. . .
4588	09 00 

458A	00 00 12 00              DB 000h, 000h, 012h, 000h, 000h, 012h, 000h, 009h, 000h, 000h
	. . .
4592	00 00 

4594	09 00 00 12              DB 009h, 000h, 000h, 012h, 000h, 009h, 000h, 02Dh, 009h, 000h
	. . .
459C	09 00 

459E	00 09 1B 00              DB 000h, 009h, 01Bh, 000h, 000h, 02Dh, 009h, 000h, 000h, 000h
	. . .
45A6	00 00 

45A8	12 00 24 00              DB 012h, 000h, 024h, 000h, 000h, 009h, 000h, 02Dh, 009h, 000h
	. . .
45B0	09 00 

45B2	00 12 00 09              DB 000h, 012h, 000h, 009h, 000h, 000h, 009h, 000h, 000h, 009h
	. . .
45BA	00 09 

45BC	1B 00 00 24              DB 01Bh, 000h, 000h, 024h, 009h, 000h, 000h, 02Dh, 012h, 000h
	. . .
45C4	12 00 

45C6	09 00 00 09              DB 009h, 000h, 000h, 009h, 000h, 000h, 009h, 000h, 000h, 024h
	. . .
45CE	00 24 

45D0	24 24 24 24              DB 024h, 024h, 024h, 024h, 009h, 000h, 02Dh, 009h, 01Bh, 000h
	. . .
45D8	1B 00 

45DA	00 09 09 00              DB 000h, 009h, 009h, 000h, 000h, 000h, 012h, 000h, 009h, 000h
	. . .
45E2	09 00 

45E4	2D 09 00 00              DB 02Dh, 009h, 000h, 000h, 024h, 012h, 000h, 009h, 000h, 000h
	. . .
45EC	00 00 

45EE	00 00 00 00              DB 000h, 000h, 000h, 000h, 000h, 009h, 01Bh, 000h, 000h, 009h
	. . .
45F6	00 09 

45F8	2D 00 00 00              DB 02Dh, 000h, 000h, 000h, 012h, 000h, 009h, 000h, 000h, 009h
	. . .
4600	00 09 

4602	00 00 00 12              DB 000h, 000h, 000h, 012h, 000h, 009h, 000h, 000h, 000h, 02Dh
	. . .
460A	00 2D 

460C	00 00 00 09              DB 000h, 000h, 000h, 009h, 01Bh, 000h, 000h, 009h, 000h, 000h
	. . .
4614	00 00 

4616	24 24 00 00              DB 024h, 024h, 000h, 000h, 009h, 000h, 000h, 009h, 000h, 000h
	. . .
461E	00 00 

4620	00 12 2D 09              DB 000h, 012h, 02Dh, 009h, 000h, 000h, 000h, 000h, 000h, 000h
	. . .
4628	00 00 

462A	00 09 1B 00              DB 000h, 009h, 01Bh, 000h, 000h, 009h, 000h, 000h, 009h, 000h
	. . .
4632	09 00 

4634	00 00 09 00              DB 000h, 000h, 009h, 000h, 000h, 009h, 000h, 000h, 000h, 012h
	. . .
463C	00 12 

463E	00 24 24 24              DB 000h, 024h, 024h, 024h, 024h, 024h, 024h, 000h, 000h, 009h
	. . .
4646	00 09 

4648	1B 00 00 09              DB 01Bh, 000h, 000h, 009h, 000h, 000h, 009h, 000h, 000h, 02Dh
	. . .
4650	00 2D 

4652	09 00 00 24              DB 009h, 000h, 000h, 024h, 024h, 024h, 024h, 000h, 000h, 012h
	. . .
465A	00 12 

465C	00 09 00 00              DB 000h, 009h, 000h, 000h, 009h, 000h, 000h, 009h, 01Bh, 000h
	. . .
4664	1B 00 

4666	2D 09 00 00              DB 02Dh, 009h, 000h, 000h, 009h, 000h, 000h, 02Dh, 009h, 000h
	. . .
466E	09 00 

4670	00 00 12 00              DB 000h, 000h, 012h, 000h, 009h, 000h, 000h, 012h, 000h, 009h
	. . .
4678	00 09 

467A	00 2D 09 00              DB 000h, 02Dh, 009h, 000h, 000h, 009h, 01Bh, 000h, 000h, 009h
	. . .
4682	00 09 

4684	00 00 12 00              DB 000h, 000h, 012h, 000h, 000h, 000h, 009h, 000h, 000h, 000h
	. . .
468C	00 00 

468E	12 00 09 00              DB 012h, 000h, 009h, 000h, 02Dh, 012h, 000h, 009h, 000h, 000h
	. . .
4696	00 00 

4698	09 00 00 09              DB 009h, 000h, 000h, 009h, 01Bh, 000h, 000h, 009h, 000h, 000h
	. . .
46A0	00 00 

46A2	24 24 24 00              DB 024h, 024h, 024h, 000h, 009h, 000h, 000h, 000h, 012h, 02Dh
	. . .
46AA	12 2D 

46AC	09 00 00 12              DB 009h, 000h, 000h, 012h, 02Dh, 009h, 000h, 000h, 009h, 000h
	. . .
46B4	09 00 

46B6	00 09 1B 00              DB 000h, 009h, 01Bh, 000h, 000h, 009h, 000h, 000h, 009h, 009h
	. . .
46BE	09 09 

46C0	00 00 09 00              DB 000h, 000h, 009h, 000h, 000h, 000h, 012h, 000h, 009h, 000h
	. . .
46C8	09 00 

46CA	00 12 00 09              DB 000h, 012h, 000h, 009h, 000h, 000h, 024h, 024h, 024h, 009h
	. . .
46D2	24 09 

46D4	1B 00 00 24              DB 01Bh, 000h, 000h, 024h, 024h, 024h, 009h, 000h, 000h, 000h
	. . .
46DC	00 00 

46DE	24 24 24 24              DB 024h, 024h, 024h, 024h, 012h, 000h, 024h, 024h, 024h, 012h
	. . .
46E6	24 12 

46E8	2D 09 00 00              DB 02Dh, 009h, 000h, 000h, 012h, 000h, 000h, 009h, 01Bh, 000h
	. . .
46F0	1B 00 

46F2	00 12 00 00              DB 000h, 012h, 000h, 000h, 009h, 02Dh, 000h, 000h, 012h, 000h
	. . .
46FA	12 00 

46FC	00 00 12 00              DB 000h, 000h, 012h, 000h, 000h, 012h, 000h, 012h, 000h, 009h
	. . .
4704	00 09 

4706	00 00 12 00              DB 000h, 000h, 012h, 000h, 000h, 009h, 01Bh, 000h, 000h, 012h
	. . .
470E	00 12 

4710	00 00 09 00              DB 000h, 000h, 009h, 000h, 000h, 000h, 012h, 000h, 000h, 02Dh
	. . .
4718	00 2D 

471A	12 00 00 12              DB 012h, 000h, 000h, 012h, 000h, 012h, 000h, 009h, 000h, 000h
	. . .
4722	00 00 

4724	12 00 2D 09              DB 012h, 000h, 02Dh, 009h, 01Bh, 000h, 000h, 012h, 000h, 000h
	. . .
472C	00 00 

472E	24 24 24 24              DB 024h, 024h, 024h, 024h, 012h, 000h, 000h, 02Dh, 012h, 000h
	. . .
4736	12 00 

4738	00 12 00 12              DB 000h, 012h, 000h, 012h, 000h, 009h, 000h, 000h, 012h, 000h
	. . .
4740	12 00 

4742	00 09 1B 00              DB 000h, 009h, 01Bh, 000h, 000h, 009h, 000h, 000h, 02Dh, 009h
	. . .
474A	2D 09 

474C	00 00 12 00              DB 000h, 000h, 012h, 000h, 000h, 000h, 012h, 000h, 000h, 012h
	. . .
4754	00 12 

4756	00 24 24 24              DB 000h, 024h, 024h, 024h, 024h, 024h, 024h, 000h, 000h, 009h
	. . .
475E	00 09 

4760	1B 00 00 09              DB 01Bh, 000h, 000h, 009h, 000h, 000h, 000h, 009h, 000h, 000h
	. . .
4768	00 00 

476A	24 24 24 24              DB 024h, 024h, 024h, 024h, 024h, 024h, 024h, 000h, 000h, 009h
	. . .
4772	00 09 

4774	00 00 00 00              DB 000h, 000h, 000h, 000h, 000h, 02Dh, 000h, 009h, 01Bh, 000h
	. . .
477C	1B 00 

477E	00 24 24 24              DB 000h, 024h, 024h, 024h, 024h, 009h, 000h, 000h, 012h, 000h
	. . .
4786	12 00 

4788	00 00 00 00              DB 000h, 000h, 000h, 000h, 000h, 02Dh, 000h, 009h, 000h, 000h
	. . .
4790	00 00 

4792	2D 00 00 00              DB 02Dh, 000h, 000h, 000h, 000h, 009h, 009h, 009h, 009h, 009h
	. . .
479A	09 09 

479C	09 09 09 09              DB 009h, 009h, 009h, 009h, 009h, 009h, 009h, 009h, 009h, 009h
	. . .
47A4	09 09 

47A6	09 09 09 09              DB 009h, 009h, 009h, 009h, 009h, 009h, 009h, 009h, 009h, 009h
	. . .
47AE	09 09 

47B0	09 09 09 09              DB 009h, 009h, 009h, 009h, 0FEh, 000h, 000h, 0FAh, 0FAh, 0FAh
	. . .
47B8	FA FA 

47BA	FA BA BA BA              DB 0FAh, 0BAh, 0BAh, 0BAh, 0BAh, 0BAh, 0BAh, 0FAh, 0FAh, 0FAh
	. . .
47C2	FA FA 

47C4	FA FA FA DF              DB 0FAh, 0FAh, 0FAh, 0DFh, 0DFh, 0DFh, 0DFh, 0DFh, 000h, 0FAh
	. . .
47CC	00 FA 

47CE	FA FA FA BA              DB 0FAh, 0FAh, 0FAh, 0BAh, 0BAh, 0BAh, 0BAh, 0FAh, 0FAh, 0FAh
	. . .
47D6	FA FA 

47D8	FA DF DF DF              DB 0FAh, 0DFh, 0DFh, 0DFh, 0DFh, 000h, 0FAh, 0FAh, 0DFh, 0DFh
	. . .
47E0	DF DF 

47E2	FA FA DF DF              DB 0FAh, 0FAh, 0DFh, 0DFh, 0FAh, 0FAh, 0BAh, 0BAh, 0FAh, 0FAh
	. . .
47EA	FA FA 

47EC	BA BA 00 DF              DB 0BAh, 0BAh, 000h, 0DFh, 0FAh, 0BAh, 0FAh, 0FFh, 0FFh, 000h
	. . .
47F4	FF 00 

47F6	00 00 00 00              DB 000h, 000h, 000h, 000h, 000h, 000h, 000h, 000h, 000h, 000h
	. . .
47FE	00 00 

4800	09 09 09 09              DB 009h, 009h, 009h, 009h, 009h, 009h, 009h, 009h, 009h, 009h
	. . .
4808	09 09 

480A	09 09 09 09              DB 009h, 009h, 009h, 009h, 009h, 009h, 009h, 009h, 009h, 009h
	. . .
4812	09 09 

4814	09 09 09 09              DB 009h, 009h, 009h, 009h, 009h, 009h, 009h, 009h, 01Bh, 000h
	. . .
481C	1B 00 

481E	00 12 00 00              DB 000h, 012h, 000h, 000h, 000h, 000h, 02Dh, 000h, 000h, 000h
	. . .
4826	00 00 

4828	00 00 12 00              DB 000h, 000h, 012h, 000h, 024h, 024h, 024h, 024h, 009h, 000h
	. . .
4830	09 00 

4832	00 09 00 00              DB 000h, 009h, 000h, 000h, 000h, 009h, 036h, 03Fh, 024h, 012h
	. . .
483A	24 12 

483C	00 24 24 24              DB 000h, 024h, 024h, 024h, 024h, 024h, 024h, 009h, 000h, 000h
	. . .
4844	00 00 

4846	12 00 09 09              DB 012h, 000h, 009h, 009h, 000h, 000h, 009h, 000h, 02Dh, 009h
	. . .
484E	2D 09 

4850	00 00 00 09              DB 000h, 000h, 000h, 009h, 01Bh, 000h, 000h, 012h, 000h, 009h
	. . .
4858	00 09 

485A	09 09 09 00              DB 009h, 009h, 009h, 000h, 000h, 009h, 000h, 02Dh, 012h, 000h
	. . .
4862	12 00 

4864	09 09 00 00              DB 009h, 009h, 000h, 000h, 009h, 000h, 02Dh, 009h, 000h, 000h
	. . .
486C	00 00 

486E	00 09 1B 00              DB 000h, 009h, 01Bh, 000h, 000h, 012h, 000h, 009h, 02Dh, 009h
	. . .
4876	2D 09 

4878	09 00 00 09              DB 009h, 000h, 000h, 009h, 000h, 02Dh, 012h, 000h, 009h, 02Dh
	. . .
4880	09 2D 

4882	00 00 09 00              DB 000h, 000h, 009h, 000h, 000h, 009h, 000h, 000h, 000h, 009h
	. . .
488A	00 09 

488C	1B 00 00 09              DB 01Bh, 000h, 000h, 009h, 009h, 009h, 009h, 009h, 009h, 000h
	. . .
4894	09 00 

4896	00 09 00 00              DB 000h, 009h, 000h, 000h, 012h, 000h, 009h, 009h, 000h, 000h
	. . .
489E	00 00 

48A0	24 24 24 24              DB 024h, 024h, 024h, 024h, 024h, 024h, 024h, 009h, 01Bh, 000h
	. . .
48A8	1B 00 

48AA	00 24 24 24              DB 000h, 024h, 024h, 024h, 024h, 024h, 024h, 024h, 024h, 024h
	. . .
48B2	24 24 

48B4	24 24 12 00              DB 024h, 024h, 012h, 000h, 024h, 009h, 000h, 000h, 009h, 009h
	. . .
48BC	09 09 

48BE	09 09 09 00              DB 009h, 009h, 009h, 000h, 000h, 009h, 01Bh, 000h, 000h, 000h
	. . .
48C6	00 00 

48C8	00 12 00 2D              DB 000h, 012h, 000h, 02Dh, 000h, 000h, 000h, 009h, 009h, 009h
	. . .
48D0	09 09 

48D2	00 00 00 09              DB 000h, 000h, 000h, 009h, 000h, 000h, 012h, 000h, 02Dh, 000h
	. . .
48DA	2D 00 

48DC	09 00 00 09              DB 009h, 000h, 000h, 009h, 01Bh, 000h, 000h, 000h, 000h, 012h
	. . .
48E4	00 12 

48E6	00 00 00 00              DB 000h, 000h, 000h, 000h, 000h, 024h, 024h, 000h, 000h, 024h
	. . .
48EE	00 24 

48F0	24 09 00 00              DB 024h, 009h, 000h, 000h, 012h, 000h, 000h, 000h, 009h, 000h
	. . .
48F8	09 00 

48FA	00 09 1B 00              DB 000h, 009h, 01Bh, 000h, 000h, 000h, 02Dh, 012h, 000h, 000h
	. . .
4902	00 00 

4904	00 00 00 00              DB 000h, 000h, 000h, 000h, 000h, 024h, 024h, 000h, 000h, 000h
	. . .
490C	00 00 

490E	00 00 12 00              DB 000h, 000h, 012h, 000h, 000h, 000h, 009h, 000h, 000h, 009h
	. . .
4916	00 09 

4918	1B 00 00 00              DB 01Bh, 000h, 000h, 000h, 000h, 024h, 024h, 024h, 024h, 024h
	. . .
4920	24 24 

4922	24 12 00 00              DB 024h, 012h, 000h, 000h, 000h, 000h, 000h, 000h, 000h, 024h
	. . .
492A	00 24 

492C	24 24 12 00              DB 024h, 024h, 012h, 000h, 009h, 000h, 02Dh, 009h, 01Bh, 000h
	. . .
4934	1B 00 

4936	00 00 00 09              DB 000h, 000h, 000h, 009h, 009h, 000h, 000h, 000h, 02Dh, 009h
	. . .
493E	2D 09 

4940	09 09 09 2D              DB 009h, 009h, 009h, 02Dh, 009h, 000h, 000h, 009h, 000h, 000h
	. . .
4948	00 00 

494A	12 00 09 00              DB 012h, 000h, 009h, 000h, 02Dh, 009h, 01Bh, 000h, 000h, 000h
	. . .
4952	00 00 

4954	00 09 00 00              DB 000h, 009h, 000h, 000h, 009h, 000h, 000h, 009h, 009h, 009h
	. . .
495C	09 09 

495E	09 09 09 00              DB 009h, 009h, 009h, 000h, 02Dh, 009h, 000h, 000h, 024h, 024h
	. . .
4966	24 24 

4968	09 00 00 09              DB 009h, 000h, 000h, 009h, 01Bh, 000h, 000h, 024h, 024h, 009h
	. . .
4970	24 09 

4972	00 2D 09 00              DB 000h, 02Dh, 009h, 000h, 000h, 024h, 024h, 024h, 024h, 024h
	. . .
497A	24 24 

497C	09 00 2D 09              DB 009h, 000h, 02Dh, 009h, 000h, 02Dh, 009h, 009h, 009h, 000h
	. . .
4984	09 00 

4986	00 09 1B 00              DB 000h, 009h, 01Bh, 000h, 000h, 009h, 009h, 009h, 000h, 000h
	. . .
498E	00 00 

4990	09 00 00 09              DB 009h, 000h, 000h, 009h, 009h, 009h, 009h, 009h, 02Dh, 000h
	. . .
4998	2D 00 

499A	00 09 00 00              DB 000h, 009h, 000h, 000h, 009h, 009h, 009h, 000h, 000h, 009h
	. . .
49A2	00 09 

49A4	1B 00 00 12              DB 01Bh, 000h, 000h, 012h, 000h, 009h, 000h, 000h, 024h, 024h
	. . .
49AC	24 24 

49AE	24 09 09 09              DB 024h, 009h, 009h, 009h, 009h, 009h, 009h, 000h, 000h, 024h
	. . .
49B6	00 24 

49B8	24 24 24 12              DB 024h, 024h, 024h, 012h, 000h, 012h, 000h, 009h, 01Bh, 000h
	. . .
49C0	1B 00 

49C2	00 12 00 09              DB 000h, 012h, 000h, 009h, 000h, 000h, 009h, 000h, 000h, 024h
	. . .
49CA	00 24 

49CC	24 24 24 24              DB 024h, 024h, 024h, 024h, 024h, 024h, 024h, 009h, 000h, 000h
	. . .
49D4	00 00 

49D6	00 12 2D 12              DB 000h, 012h, 02Dh, 012h, 000h, 009h, 01Bh, 000h, 000h, 012h
	. . .
49DE	00 12 

49E0	2D 09 00 00              DB 02Dh, 009h, 000h, 000h, 009h, 000h, 000h, 009h, 009h, 009h
	. . .
49E8	09 09 

49EA	09 09 09 09              DB 009h, 009h, 009h, 009h, 009h, 009h, 000h, 000h, 000h, 012h
	. . .
49F2	00 12 

49F4	00 12 2D 09              DB 000h, 012h, 02Dh, 009h, 01Bh, 000h, 000h, 012h, 02Dh, 009h
	. . .
49FC	2D 09 

49FE	00 2D 09 00              DB 000h, 02Dh, 009h, 000h, 000h, 009h, 000h, 000h, 012h, 02Dh
	. . .
4A06	12 2D 

4A08	09 00 00 09              DB 009h, 000h, 000h, 009h, 000h, 000h, 02Dh, 012h, 000h, 012h
	. . .
4A10	00 12 

4A12	00 09 1B 00              DB 000h, 009h, 01Bh, 000h, 000h, 012h, 000h, 009h, 000h, 000h
	. . .
4A1A	00 00 

4A1C	09 00 2D 09              DB 009h, 000h, 02Dh, 009h, 000h, 000h, 012h, 000h, 009h, 000h
	. . .
4A24	09 00 

4A26	2D 09 00 00              DB 02Dh, 009h, 000h, 000h, 02Dh, 012h, 000h, 012h, 000h, 009h
	. . .
4A2E	00 09 

4A30	1B 00 00 09              DB 01Bh, 000h, 000h, 009h, 009h, 009h, 009h, 02Dh, 000h, 000h
	. . .
4A38	00 00 

4A3A	00 09 00 2D              DB 000h, 009h, 000h, 02Dh, 012h, 000h, 009h, 000h, 000h, 009h
	. . .
4A42	00 09 

4A44	09 00 00 12              DB 009h, 000h, 000h, 012h, 000h, 012h, 000h, 009h, 01Bh, 000h
	. . .
4A4C	1B 00 

4A4E	00 24 24 24              DB 000h, 024h, 024h, 024h, 024h, 024h, 024h, 024h, 024h, 024h
	. . .
4A56	24 24 

4A58	24 24 24 24              DB 024h, 024h, 024h, 024h, 009h, 000h, 000h, 024h, 009h, 000h
	. . .
4A60	09 00 

4A62	00 24 24 24              DB 000h, 024h, 024h, 024h, 024h, 009h, 01Bh, 000h, 000h, 009h
	. . .
4A6A	00 09 

4A6C	00 00 09 00              DB 000h, 000h, 009h, 000h, 000h, 000h, 009h, 009h, 000h, 000h
	. . .
4A74	00 00 

4A76	12 00 09 00              DB 012h, 000h, 009h, 000h, 000h, 000h, 000h, 000h, 000h, 009h
	. . .
4A7E	00 09 

4A80	09 00 00 09              DB 009h, 000h, 000h, 009h, 01Bh, 000h, 000h, 009h, 000h, 000h
	. . .
4A88	00 00 

4A8A	09 00 00 00              DB 009h, 000h, 000h, 000h, 000h, 009h, 000h, 000h, 012h, 000h
	. . .
4A92	12 00 

4A94	09 00 00 00              DB 009h, 000h, 000h, 000h, 009h, 000h, 000h, 024h, 009h, 000h
	. . .
4A9C	09 00 

4A9E	00 09 1B 00              DB 000h, 009h, 01Bh, 000h, 000h, 009h, 000h, 000h, 024h, 024h
	. . .
4AA6	24 24 

4AA8	24 24 00 09              DB 024h, 024h, 000h, 009h, 000h, 000h, 012h, 000h, 009h, 000h
	. . .
4AB0	09 00 

4AB2	00 00 09 00              DB 000h, 000h, 009h, 000h, 000h, 000h, 009h, 000h, 000h, 009h
	. . .
4ABA	00 09 

4ABC	1B 00 2D 09              DB 01Bh, 000h, 02Dh, 009h, 000h, 02Dh, 009h, 000h, 000h, 012h
	. . .
4AC4	00 12 

4AC6	00 00 00 00              DB 000h, 000h, 000h, 000h, 024h, 024h, 024h, 024h, 024h, 024h
	. . .
4ACE	24 24 

4AD0	24 24 24 00              DB 024h, 024h, 024h, 000h, 009h, 000h, 02Dh, 009h, 01Bh, 000h
	. . .
4AD8	1B 00 

4ADA	00 09 00 00              DB 000h, 009h, 000h, 000h, 009h, 000h, 000h, 012h, 000h, 009h
	. . .
4AE2	00 09 

4AE4	09 09 09 09              DB 009h, 009h, 009h, 009h, 009h, 009h, 000h, 02Dh, 000h, 012h
	. . .
4AEC	00 12 

4AEE	00 2D 09 00              DB 000h, 02Dh, 009h, 000h, 000h, 009h, 01Bh, 000h, 000h, 009h
	. . .
4AF6	00 09 

4AF8	00 00 09 00              DB 000h, 000h, 009h, 000h, 000h, 012h, 000h, 000h, 000h, 000h
	. . .
4B00	00 00 

4B02	00 00 2D 09              DB 000h, 000h, 02Dh, 009h, 000h, 000h, 000h, 012h, 000h, 000h
	. . .
4B0A	00 00 

4B0C	09 00 00 09              DB 009h, 000h, 000h, 009h, 01Bh, 000h, 000h, 009h, 000h, 000h
	. . .
4B14	00 00 

4B16	24 24 24 24              DB 024h, 024h, 024h, 024h, 024h, 024h, 024h, 024h, 024h, 024h
	. . .
4B1E	24 24 

4B20	24 09 00 00              DB 024h, 009h, 000h, 000h, 000h, 012h, 000h, 024h, 009h, 000h
	. . .
4B28	09 00 

4B2A	00 09 1B 00              DB 000h, 009h, 01Bh, 000h, 000h, 009h, 000h, 000h, 000h, 009h
	. . .
4B32	00 09 

4B34	00 00 09 00              DB 000h, 000h, 009h, 000h, 000h, 009h, 000h, 000h, 000h, 009h
	. . .
4B3C	00 09 

4B3E	00 00 00 12              DB 000h, 000h, 000h, 012h, 000h, 009h, 009h, 000h, 000h, 009h
	. . .
4B46	00 09 

4B48	1B 00 00 09              DB 01Bh, 000h, 000h, 009h, 000h, 000h, 02Dh, 009h, 000h, 000h
	. . .
4B50	00 00 

4B52	09 00 00 09              DB 009h, 000h, 000h, 009h, 000h, 000h, 000h, 009h, 000h, 000h
	. . .
4B5A	00 00 

4B5C	24 00 00 09              DB 024h, 000h, 000h, 009h, 009h, 000h, 000h, 009h, 01Bh, 000h
	. . .
4B64	1B 00 

4B66	00 24 24 24              DB 000h, 024h, 024h, 024h, 024h, 009h, 000h, 000h, 009h, 000h
	. . .
4B6E	09 00 

4B70	2D 09 00 00              DB 02Dh, 009h, 000h, 000h, 000h, 009h, 000h, 000h, 009h, 000h
	. . .
4B78	09 00 

4B7A	2D 09 09 00              DB 02Dh, 009h, 009h, 000h, 000h, 009h, 01Bh, 000h, 000h, 009h
	. . .
4B82	00 09 

4B84	00 00 00 09              DB 000h, 000h, 000h, 009h, 000h, 000h, 009h, 000h, 000h, 009h
	. . .
4B8C	00 09 

4B8E	00 00 00 09              DB 000h, 000h, 000h, 009h, 000h, 000h, 009h, 000h, 000h, 009h
	. . .
4B96	00 09 

4B98	09 00 00 09              DB 009h, 000h, 000h, 009h, 01Bh, 000h, 000h, 009h, 000h, 000h
	. . .
4BA0	00 00 

4BA2	00 09 00 2D              DB 000h, 009h, 000h, 02Dh, 009h, 000h, 000h, 009h, 000h, 000h
	. . .
4BAA	00 00 

4BAC	24 09 00 00              DB 024h, 009h, 000h, 000h, 009h, 000h, 000h, 009h, 009h, 000h
	. . .
4BB4	09 00 

4BB6	00 09 1B 00              DB 000h, 009h, 01Bh, 000h, 000h, 009h, 02Dh, 000h, 000h, 009h
	. . .
4BBE	00 09 

4BC0	00 00 09 00              DB 000h, 000h, 009h, 000h, 000h, 009h, 000h, 000h, 009h, 009h
	. . .
4BC8	09 09 

4BCA	00 2D 09 00              DB 000h, 02Dh, 009h, 000h, 000h, 024h, 024h, 024h, 024h, 009h
	. . .
4BD2	24 09 

4BD4	1B 00 00 09              DB 01Bh, 000h, 000h, 009h, 000h, 000h, 000h, 012h, 000h, 000h
	. . .
4BDC	00 00 

4BDE	09 00 00 09              DB 009h, 000h, 000h, 009h, 000h, 02Dh, 009h, 000h, 000h, 000h
	. . .
4BE6	00 00 

4BE8	09 00 00 00              DB 009h, 000h, 000h, 000h, 000h, 012h, 000h, 009h, 01Bh, 000h
	. . .
4BF0	1B 00 

4BF2	00 24 12 00              DB 000h, 024h, 012h, 000h, 000h, 012h, 000h, 000h, 024h, 024h
	. . .
4BFA	24 24 

4BFC	24 09 00 00              DB 024h, 009h, 000h, 000h, 009h, 000h, 000h, 024h, 024h, 024h
	. . .
4C04	24 24 

4C06	24 24 00 12              DB 024h, 024h, 000h, 012h, 000h, 009h, 01Bh, 000h, 000h, 000h
	. . .
4C0E	00 00 

4C10	12 00 00 12              DB 012h, 000h, 000h, 012h, 000h, 000h, 000h, 012h, 000h, 009h
	. . .
4C18	00 09 

4C1A	00 00 09 00              DB 000h, 000h, 009h, 000h, 000h, 012h, 02Dh, 009h, 000h, 000h
	. . .
4C22	00 00 

4C24	00 12 00 09              DB 000h, 012h, 000h, 009h, 01Bh, 000h, 000h, 000h, 012h, 000h
	. . .
4C2C	12 00 

4C2E	00 24 24 24              DB 000h, 024h, 024h, 024h, 024h, 012h, 000h, 009h, 000h, 000h
	. . .
4C36	00 00 

4C38	24 24 24 12              DB 024h, 024h, 024h, 012h, 02Dh, 009h, 000h, 000h, 02Dh, 012h
	. . .
4C40	2D 12 

4C42	00 09 1B 00              DB 000h, 009h, 01Bh, 000h, 000h, 000h, 012h, 000h, 000h, 009h
	. . .
4C4A	00 09 

4C4C	00 00 00 12              DB 000h, 000h, 000h, 012h, 02Dh, 009h, 000h, 000h, 009h, 000h
	. . .
4C54	09 00 

4C56	00 12 00 09              DB 000h, 012h, 000h, 009h, 000h, 000h, 000h, 012h, 02Dh, 009h
	. . .
4C5E	2D 09 

4C60	1B 00 00 00              DB 01Bh, 000h, 000h, 000h, 012h, 02Dh, 000h, 009h, 000h, 000h
	. . .
4C68	00 00 

4C6A	00 12 00 09              DB 000h, 012h, 000h, 009h, 000h, 000h, 009h, 000h, 000h, 012h
	. . .
4C72	00 12 

4C74	00 09 00 00              DB 000h, 009h, 000h, 000h, 000h, 012h, 000h, 009h, 01Bh, 000h
	. . .
4C7C	1B 00 

4C7E	00 00 24 24              DB 000h, 000h, 024h, 024h, 024h, 009h, 000h, 000h, 000h, 012h
	. . .
4C86	00 12 

4C88	00 24 24 24              DB 000h, 024h, 024h, 024h, 009h, 000h, 000h, 012h, 000h, 024h
	. . .
4C90	00 24 

4C92	24 24 24 24              DB 024h, 024h, 024h, 024h, 024h, 009h, 009h, 009h, 009h, 009h
	. . .
4C9A	09 09 

4C9C	09 09 09 09              DB 009h, 009h, 009h, 009h, 009h, 009h, 009h, 009h, 009h, 009h
	. . .
4CA4	09 09 

4CA6	09 09 09 09              DB 009h, 009h, 009h, 009h, 009h, 009h, 009h, 009h, 009h, 009h
	. . .
4CAE	09 09 

4CB0	09 09 09 09              DB 009h, 009h, 009h, 009h, 0FEh, 0BAh, 0BAh, 000h, 0DFh, 0DFh
	. . .
4CB8	DF DF 

4CBA	00 FA DF C6              DB 000h, 0FAh, 0DFh, 0C6h, 000h, 0FAh, 0DFh, 0C6h, 000h, 0FAh
	. . .
4CC2	00 FA 

4CC4	DF C6 00 DF              DB 0DFh, 0C6h, 000h, 0DFh, 0BAh, 0A5h, 000h, 0DFh, 0BAh, 0A5h
	. . .
4CCC	BA A5 

4CCE	00 FA DF C6              DB 000h, 0FAh, 0DFh, 0C6h, 000h, 0DFh, 0BAh, 0A5h, 000h, 0BAh
	. . .
4CD6	00 BA 

4CD8	BA A5 A5 DF              DB 0BAh, 0A5h, 0A5h, 0DFh, 0DFh, 0FAh, 0FAh, 000h, 0FAh, 0DFh
	. . .
4CE0	FA DF 

4CE2	C6 00 FA DF              DB 0C6h, 000h, 0FAh, 0DFh, 0C6h, 000h, 0DFh, 0FAh, 0BAh, 000h
	. . .
4CEA	BA 00 

4CEC	DF FA BA 00              DB 0DFh, 0FAh, 0BAh, 000h, 0FAh, 0DFh, 0C6h, 000h, 0FFh, 000h
	. . .
4CF4	FF 00 

4CF6	00 00 00 00              DB 000h, 000h, 000h, 000h, 000h, 000h, 000h, 000h, 000h, 000h
	. . .
4CFE	00 00 

4D00	09 09 09 09              DB 009h, 009h, 009h, 009h, 009h, 009h, 009h, 009h, 009h, 009h
	. . .
4D08	09 09 

4D0A	09 09 09 09              DB 009h, 009h, 009h, 009h, 009h, 009h, 009h, 009h, 009h, 009h
	. . .
4D12	09 09 

4D14	09 09 09 09              DB 009h, 009h, 009h, 009h, 009h, 009h, 009h, 009h, 01Bh, 000h
	. . .
4D1C	1B 00 

4D1E	00 09 00 00              DB 000h, 009h, 000h, 000h, 000h, 000h, 000h, 000h, 000h, 024h
	. . .
4D26	00 24 

4D28	24 24 24 24              DB 024h, 024h, 024h, 024h, 024h, 024h, 024h, 024h, 024h, 024h
	. . .
4D30	24 24 

4D32	24 09 00 00              DB 024h, 009h, 000h, 000h, 000h, 009h, 036h, 03Fh, 024h, 024h
	. . .
4D3A	24 24 

4D3C	24 24 24 24              DB 024h, 024h, 024h, 024h, 009h, 000h, 000h, 009h, 000h, 000h
	. . .
4D44	00 00 

4D46	09 00 00 09              DB 009h, 000h, 000h, 009h, 000h, 000h, 012h, 000h, 000h, 009h
	. . .
4D4E	00 09 

4D50	00 00 00 09              DB 000h, 000h, 000h, 009h, 01Bh, 000h, 000h, 012h, 000h, 009h
	. . .
4D58	00 09 

4D5A	00 00 09 00              DB 000h, 000h, 009h, 000h, 000h, 009h, 000h, 02Dh, 009h, 000h
	. . .
4D62	09 00 

4D64	00 09 00 00              DB 000h, 009h, 000h, 000h, 012h, 000h, 000h, 009h, 000h, 000h
	. . .
4D6C	00 00 

4D6E	00 09 1B 00              DB 000h, 009h, 01Bh, 000h, 02Dh, 012h, 000h, 009h, 000h, 000h
	. . .
4D76	00 00 

4D78	09 00 00 09              DB 009h, 000h, 000h, 009h, 000h, 000h, 009h, 000h, 000h, 009h
	. . .
4D80	00 09 

4D82	00 00 12 00              DB 000h, 000h, 012h, 000h, 024h, 009h, 000h, 000h, 000h, 009h
	. . .
4D8A	00 09 

4D8C	1B 00 00 12              DB 01Bh, 000h, 000h, 012h, 000h, 009h, 000h, 000h, 009h, 000h
	. . .
4D94	09 00 

4D96	00 09 00 00              DB 000h, 009h, 000h, 000h, 009h, 000h, 000h, 009h, 000h, 000h
	. . .
4D9E	00 00 

4DA0	12 00 09 09              DB 012h, 000h, 009h, 009h, 000h, 000h, 000h, 009h, 01Bh, 000h
	. . .
4DA8	1B 00 

4DAA	00 24 24 09              DB 000h, 024h, 024h, 009h, 000h, 000h, 009h, 000h, 02Dh, 009h
	. . .
4DB2	2D 09 

4DB4	00 00 09 00              DB 000h, 000h, 009h, 000h, 000h, 009h, 000h, 000h, 012h, 02Dh
	. . .
4DBC	12 2D 

4DBE	09 00 00 00              DB 009h, 000h, 000h, 000h, 02Dh, 009h, 01Bh, 000h, 000h, 000h
	. . .
4DC6	00 00 

4DC8	00 09 00 00              DB 000h, 009h, 000h, 000h, 009h, 000h, 000h, 009h, 000h, 000h
	. . .
4DD0	00 00 

4DD2	09 00 00 09              DB 009h, 000h, 000h, 009h, 000h, 000h, 012h, 000h, 009h, 000h
	. . .
4DDA	09 00 

4DDC	00 00 00 09              DB 000h, 000h, 000h, 009h, 01Bh, 000h, 000h, 000h, 000h, 009h
	. . .
4DE4	00 09 

4DE6	00 00 09 00              DB 000h, 000h, 009h, 000h, 000h, 009h, 000h, 000h, 009h, 000h
	. . .
4DEE	09 00 

4DF0	2D 09 00 2D              DB 02Dh, 009h, 000h, 02Dh, 012h, 000h, 009h, 000h, 000h, 000h
	. . .
4DF8	00 00 

4DFA	00 09 1B 00              DB 000h, 009h, 01Bh, 000h, 000h, 024h, 024h, 009h, 000h, 000h
	. . .
4E02	00 00 

4E04	0D 00 00 12              DB 00Dh, 000h, 000h, 012h, 000h, 000h, 009h, 000h, 002h, 009h
	. . .
4E0C	02 09 

4E0E	00 00 00 00              DB 000h, 000h, 000h, 000h, 009h, 02Dh, 02Fh, 000h, 000h, 009h
	. . .
4E16	00 09 

4E18	19 00 00 09              DB 019h, 000h, 000h, 009h, 00Ch, 009h, 000h, 000h, 009h, 000h
	. . .
4E20	09 00 

4E22	00 12 00 00              DB 000h, 012h, 000h, 000h, 009h, 000h, 000h, 009h, 000h, 000h
	. . .
4E2A	00 00 

4E2C	00 00 09 09              DB 000h, 000h, 009h, 009h, 009h, 000h, 000h, 009h, 01Ah, 000h
	. . .
4E34	1A 00 

4E36	00 00 00 29              DB 000h, 000h, 000h, 029h, 000h, 000h, 009h, 000h, 000h, 012h
	. . .
4E3E	00 12 

4E40	00 00 09 00              DB 000h, 000h, 009h, 000h, 002h, 009h, 000h, 000h, 010h, 000h
	. . .
4E48	10 00 

4E4A	24 20 0B 00              DB 024h, 020h, 00Bh, 000h, 000h, 009h, 019h, 000h, 000h, 000h
	. . .
4E52	00 00 

4E54	00 09 00 00              DB 000h, 009h, 000h, 000h, 009h, 000h, 000h, 012h, 000h, 024h
	. . .
4E5C	00 24 

4E5E	09 00 00 09              DB 009h, 000h, 000h, 009h, 000h, 000h, 000h, 000h, 000h, 000h
	. . .
4E66	00 00 

4E68	09 00 00 09              DB 009h, 000h, 000h, 009h, 019h, 000h, 000h, 024h, 020h, 009h
	. . .
4E70	20 09 

4E72	00 00 20 00              DB 000h, 000h, 020h, 000h, 000h, 012h, 000h, 009h, 009h, 000h
	. . .
4E7A	09 00 

4E7C	04 09 00 00              DB 004h, 009h, 000h, 000h, 010h, 000h, 000h, 000h, 019h, 000h
	. . .
4E84	19 00 

4E86	00 09 0D 00              DB 000h, 009h, 00Dh, 000h, 000h, 009h, 009h, 009h, 000h, 000h
	. . .
4E8E	00 00 

4E90	24 24 2D 12              DB 024h, 024h, 02Dh, 012h, 000h, 010h, 000h, 000h, 002h, 009h
	. . .
4E98	02 09 

4E9A	00 00 04 00              DB 000h, 000h, 004h, 000h, 000h, 000h, 00Bh, 000h, 000h, 009h
	. . .
4EA2	00 09 

4EA4	19 00 00 09              DB 019h, 000h, 000h, 009h, 000h, 000h, 000h, 000h, 020h, 000h
	. . .
4EAC	20 00 

4EAE	2D 10 00 10              DB 02Dh, 010h, 000h, 010h, 000h, 000h, 039h, 009h, 000h, 000h
	. . .
4EB6	00 00 

4EB8	04 00 00 00              DB 004h, 000h, 000h, 000h, 009h, 000h, 000h, 008h, 018h, 000h
	. . .
4EC0	18 00 

4EC2	00 09 00 2D              DB 000h, 009h, 000h, 02Dh, 010h, 000h, 024h, 024h, 000h, 012h
	. . .
4ECA	00 12 

4ECC	00 24 20 20              DB 000h, 024h, 020h, 020h, 026h, 024h, 020h, 020h, 010h, 000h
	. . .
4ED4	10 00 

4ED6	00 00 0B 00              DB 000h, 000h, 00Bh, 000h, 000h, 009h, 019h, 000h, 02Dh, 009h
	. . .
4EDE	2D 09 

4EE0	04 00 12 00              DB 004h, 000h, 012h, 000h, 024h, 000h, 000h, 012h, 000h, 012h
	. . .
4EE8	00 12 

4EEA	00 00 10 09              DB 000h, 000h, 010h, 009h, 000h, 000h, 002h, 000h, 020h, 020h
	. . .
4EF2	20 20 

4EF4	20 20 24 09              DB 020h, 020h, 024h, 009h, 018h, 000h, 000h, 009h, 000h, 000h
	. . .
4EFC	00 00 

4EFE	12 00 24 21              DB 012h, 000h, 024h, 021h, 000h, 010h, 00Dh, 010h, 000h, 002h
	. . .
4F06	00 02 

4F08	00 08 01 00              DB 000h, 008h, 001h, 000h, 002h, 029h, 008h, 000h, 000h, 010h
	. . .
4F10	00 10 

4F12	01 0D 0F 00              DB 001h, 00Dh, 00Fh, 000h, 000h, 009h, 011h, 020h, 002h, 001h
	. . .
4F1A	02 01 

4F1C	04 01 00 10              DB 004h, 001h, 000h, 010h, 001h, 010h, 000h, 002h, 000h, 008h
	. . .
4F24	00 08 

4F26	01 00 02 01              DB 001h, 000h, 002h, 001h, 008h, 000h, 000h, 010h, 001h, 009h
	. . .
4F2E	01 09 

4F30	0B 00 00 09              DB 00Bh, 000h, 000h, 009h, 010h, 008h, 000h, 000h, 008h, 001h
	. . .
4F38	08 01 

4F3A	00 10 01 08              DB 000h, 010h, 001h, 008h, 008h, 002h, 000h, 008h, 001h, 028h
	. . .
4F42	01 28 

4F44	02 01 08 00              DB 002h, 001h, 008h, 000h, 010h, 010h, 004h, 008h, 00Bh, 000h
	. . .
4F4C	0B 00 

4F4E	00 11 11 08              DB 000h, 011h, 011h, 008h, 000h, 000h, 008h, 001h, 000h, 010h
	. . .
4F56	00 10 

4F58	01 20 08 02              DB 001h, 020h, 008h, 002h, 000h, 00Ch, 001h, 028h, 002h, 001h
	. . .
4F60	02 01 

4F62	08 00 00 10              DB 008h, 000h, 000h, 010h, 000h, 008h, 00Bh, 000h, 000h, 011h
	. . .
4F6A	00 11 

4F6C	11 08 00 04              DB 011h, 008h, 000h, 004h, 028h, 001h, 000h, 010h, 000h, 000h
	. . .
4F74	00 00 

4F76	08 02 28 09              DB 008h, 002h, 028h, 009h, 001h, 000h, 004h, 021h, 008h, 000h
	. . .
4F7E	08 00 

4F80	10 10 28 08              DB 010h, 010h, 028h, 008h, 01Bh, 000h, 000h, 021h, 005h, 008h
	. . .
4F88	05 08 

4F8A	00 01 09 01              DB 000h, 001h, 009h, 001h, 000h, 010h, 004h, 02Ch, 00Dh, 002h
	. . .
4F92	0D 02 

4F94	28 08 00 00              DB 028h, 008h, 000h, 000h, 002h, 001h, 008h, 000h, 02Ch, 010h
	. . .
4F9C	2C 10 

4F9E	00 08 0B 00              DB 000h, 008h, 00Bh, 000h, 000h, 011h, 011h, 008h, 000h, 001h
	. . .
4FA6	00 01 

4FA8	08 00 00 10              DB 008h, 000h, 000h, 010h, 020h, 028h, 00Dh, 000h, 000h, 008h
	. . .
4FB0	00 08 

4FB2	00 00 33 29              DB 000h, 000h, 033h, 029h, 008h, 000h, 00Ch, 010h, 000h, 008h
	. . .
4FBA	00 08 

4FBC	0B 00 00 10              DB 00Bh, 000h, 000h, 010h, 010h, 008h, 000h, 001h, 008h, 005h
	. . .
4FC4	08 05 

4FC6	10 10 04 04              DB 010h, 010h, 004h, 004h, 008h, 002h, 000h, 00Ch, 000h, 000h
	. . .
4FCE	00 00 

4FD0	06 04 08 00              DB 006h, 004h, 008h, 000h, 010h, 010h, 000h, 008h, 00Bh, 000h
	. . .
4FD8	0B 00 

4FDA	00 11 11 20              DB 000h, 011h, 011h, 020h, 025h, 021h, 004h, 020h, 030h, 020h
	. . .
4FE2	30 20 

4FE4	24 20 08 02              DB 024h, 020h, 008h, 002h, 000h, 00Ah, 000h, 000h, 012h, 001h
	. . .
4FEC	12 01 

4FEE	20 10 00 10              DB 020h, 010h, 000h, 010h, 000h, 008h, 02Ah, 000h, 02Ch, 011h
	. . .
4FF6	2C 11 

4FF8	10 00 08 01              DB 010h, 000h, 008h, 001h, 000h, 028h, 012h, 000h, 009h, 000h
	. . .
5000	09 00 

5002	24 24 24 24              DB 024h, 024h, 024h, 024h, 024h, 000h, 012h, 000h, 000h, 012h
	. . .
500A	00 12 

500C	00 12 00 09              DB 000h, 012h, 000h, 009h, 01Bh, 000h, 000h, 009h, 000h, 000h
	. . .
5014	00 00 

5016	09 00 00 2D              DB 009h, 000h, 000h, 02Dh, 012h, 000h, 009h, 000h, 000h, 012h
	. . .
501E	00 12 

5020	00 09 00 00              DB 000h, 009h, 000h, 000h, 012h, 000h, 000h, 012h, 000h, 012h
	. . .
5028	00 12 

502A	00 09 1B 00              DB 000h, 009h, 01Bh, 000h, 000h, 009h, 000h, 02Dh, 009h, 000h
	. . .
5032	09 00 

5034	00 00 12 00              DB 000h, 000h, 012h, 000h, 009h, 000h, 000h, 012h, 000h, 009h
	. . .
503C	00 09 

503E	00 00 12 00              DB 000h, 000h, 012h, 000h, 000h, 012h, 02Dh, 012h, 000h, 009h
	. . .
5046	00 09 

5048	1B 00 00 09              DB 01Bh, 000h, 000h, 009h, 000h, 000h, 009h, 000h, 000h, 000h
	. . .
5050	00 00 

5052	12 2D 09 00              DB 012h, 02Dh, 009h, 000h, 000h, 012h, 000h, 009h, 000h, 000h
	. . .
505A	00 00 

505C	12 00 00 12              DB 012h, 000h, 000h, 012h, 000h, 012h, 000h, 009h, 01Bh, 000h
	. . .
5064	1B 00 

5066	00 09 09 09              DB 000h, 009h, 009h, 009h, 009h, 000h, 000h, 000h, 012h, 02Dh
	. . .
506E	12 2D 

5070	09 00 2D 12              DB 009h, 000h, 02Dh, 012h, 000h, 009h, 000h, 000h, 012h, 000h
	. . .
5078	12 00 

507A	00 12 00 12              DB 000h, 012h, 000h, 012h, 000h, 009h, 01Bh, 000h, 000h, 024h
	. . .
5082	00 24 

5084	24 24 24 24              DB 024h, 024h, 024h, 024h, 024h, 024h, 012h, 000h, 009h, 000h
	. . .
508C	09 00 

508E	00 12 00 09              DB 000h, 012h, 000h, 009h, 000h, 02Dh, 012h, 000h, 024h, 024h
	. . .
5096	24 24 

5098	24 24 24 09              DB 024h, 024h, 024h, 009h, 01Bh, 000h, 000h, 009h, 000h, 000h
	. . .
50A0	00 00 

50A2	09 00 00 00              DB 009h, 000h, 000h, 000h, 012h, 000h, 009h, 000h, 000h, 012h
	. . .
50AA	00 12 

50AC	2D 09 00 00              DB 02Dh, 009h, 000h, 000h, 012h, 000h, 009h, 000h, 000h, 000h
	. . .
50B4	00 00 

50B6	00 09 1B 00              DB 000h, 009h, 01Bh, 000h, 000h, 009h, 000h, 02Dh, 009h, 000h
	. . .
50BE	09 00 

50C0	00 00 12 00              DB 000h, 000h, 012h, 000h, 009h, 000h, 000h, 012h, 02Dh, 009h
	. . .
50C8	2D 09 

50CA	00 00 12 00              DB 000h, 000h, 012h, 000h, 009h, 000h, 000h, 000h, 000h, 009h
	. . .
50D2	00 09 

50D4	1B 00 00 09              DB 01Bh, 000h, 000h, 009h, 000h, 000h, 009h, 000h, 000h, 02Dh
	. . .
50DC	00 2D 

50DE	12 00 24 24              DB 012h, 000h, 024h, 024h, 024h, 012h, 000h, 009h, 000h, 000h
	. . .
50E6	00 00 

50E8	12 2D 09 00              DB 012h, 02Dh, 009h, 000h, 000h, 000h, 000h, 009h, 01Bh, 000h
	. . .
50F0	1B 00 

50F2	00 24 24 24              DB 000h, 024h, 024h, 024h, 024h, 024h, 000h, 000h, 012h, 000h
	. . .
50FA	12 00 

50FC	09 00 00 09              DB 009h, 000h, 000h, 009h, 000h, 009h, 000h, 000h, 012h, 000h
	. . .
5104	12 00 

5106	09 00 00 2D              DB 009h, 000h, 000h, 02Dh, 000h, 009h, 01Bh, 000h, 000h, 012h
	. . .
510E	00 12 

5110	00 00 2D 09              DB 000h, 000h, 02Dh, 009h, 000h, 000h, 012h, 000h, 009h, 000h
	. . .
5118	09 00 

511A	00 09 00 09              DB 000h, 009h, 000h, 009h, 000h, 000h, 012h, 000h, 009h, 000h
	. . .
5122	09 00 

5124	00 2D 00 09              DB 000h, 02Dh, 000h, 009h, 01Bh, 000h, 000h, 012h, 000h, 000h
	. . .
512C	00 00 

512E	00 09 00 00              DB 000h, 009h, 000h, 000h, 012h, 000h, 009h, 000h, 000h, 009h
	. . .
5136	00 09 

5138	00 24 24 24              DB 000h, 024h, 024h, 024h, 024h, 024h, 009h, 000h, 000h, 000h
	. . .
5140	00 00 

5142	00 09 1B 00              DB 000h, 009h, 01Bh, 000h, 000h, 012h, 000h, 000h, 000h, 009h
	. . .
514A	00 09 

514C	00 00 12 2D              DB 000h, 000h, 012h, 02Dh, 009h, 000h, 02Dh, 009h, 000h, 000h
	. . .
5154	00 00 

5156	00 00 09 00              DB 000h, 000h, 009h, 000h, 009h, 000h, 000h, 000h, 000h, 009h
	. . .
515E	00 09 

5160	1B 00 2D 12              DB 01Bh, 000h, 02Dh, 012h, 000h, 000h, 000h, 009h, 000h, 000h
	. . .
5168	00 00 

516A	12 00 09 00              DB 012h, 000h, 009h, 000h, 000h, 009h, 000h, 000h, 000h, 02Dh
	. . .
5172	00 2D 

5174	09 00 09 00              DB 009h, 000h, 009h, 000h, 000h, 000h, 000h, 009h, 01Bh, 000h
	. . .
517C	1B 00 

517E	2D 12 00 00              DB 02Dh, 012h, 000h, 000h, 02Dh, 009h, 000h, 000h, 024h, 024h
	. . .
5186	24 24 

5188	24 00 00 09              DB 024h, 000h, 000h, 009h, 000h, 000h, 000h, 000h, 009h, 000h
	. . .
5190	09 00 

5192	24 24 24 24              DB 024h, 024h, 024h, 024h, 024h, 009h, 009h, 009h, 009h, 009h
	. . .
519A	09 09 

519C	09 09 09 09              DB 009h, 009h, 009h, 009h, 009h, 009h, 009h, 009h, 009h, 009h
	. . .
51A4	09 09 

51A6	09 09 09 09              DB 009h, 009h, 009h, 009h, 009h, 009h, 009h, 009h, 009h, 009h
	. . .
51AE	09 09 

51B0	09 09 09 09              DB 009h, 009h, 009h, 009h, 0FEh, 0BAh, 0BAh, 0BAh, 0DFh, 0DFh
	. . .
51B8	DF DF 

51BA	DF 00 BA BA              DB 0DFh, 000h, 0BAh, 0BAh, 0BAh, 0DFh, 0DFh, 0DFh, 000h, 0FAh
	. . .
51C2	00 FA 

51C4	DF C6 00 FA              DB 0DFh, 0C6h, 000h, 0FAh, 0DFh, 0C6h, 000h, 0BAh, 0BAh, 0BAh
	. . .
51CC	BA BA 

51CE	DF DF DF 00              DB 0DFh, 0DFh, 0DFh, 000h, 0BAh, 0BAh, 0BAh, 0DFh, 0DFh, 0DFh
	. . .
51D6	DF DF 

51D8	00 FA DF C6              DB 000h, 0FAh, 0DFh, 0C6h, 000h, 0FAh, 0DFh, 0C6h, 000h, 0BAh
	. . .
51E0	00 BA 

51E2	BA DF DF BA              DB 0BAh, 0DFh, 0DFh, 0BAh, 0BAh, 0DFh, 0DFh, 000h, 0FAh, 0DFh
	. . .
51EA	FA DF 

51EC	C6 00 FA DF              DB 0C6h, 000h, 0FAh, 0DFh, 0C6h, 000h, 0FFh, 000h, 000h, 000h
	. . .
51F4	00 00 

51F6	00 00 00 00              DB 000h, 000h, 000h, 000h, 000h, 000h, 000h, 000h, 000h, 000h
	. . .
51FE	00 00 

5200	09 09 09 09              DB 009h, 009h, 009h, 009h, 009h, 009h, 009h, 009h, 009h, 009h
	. . .
5208	09 09 

520A	09 09 09 09              DB 009h, 009h, 009h, 009h, 009h, 009h, 009h, 009h, 009h, 009h
	. . .
5212	09 09 

5214	09 09 09 09              DB 009h, 009h, 009h, 009h, 009h, 009h, 009h, 009h, 01Bh, 000h
	. . .
521C	1B 00 

521E	00 09 09 09              DB 000h, 009h, 009h, 009h, 009h, 009h, 009h, 009h, 009h, 009h
	. . .
5226	09 09 

5228	09 09 09 09              DB 009h, 009h, 009h, 009h, 009h, 009h, 009h, 009h, 009h, 009h
	. . .
5230	09 09 

5232	09 09 09 09              DB 009h, 009h, 009h, 009h, 000h, 009h, 036h, 03Fh, 024h, 009h
	. . .
523A	24 09 

523C	09 09 09 09              DB 009h, 009h, 009h, 009h, 009h, 000h, 000h, 000h, 000h, 000h
	. . .
5244	00 00 

5246	00 09 09 09              DB 000h, 009h, 009h, 009h, 009h, 009h, 009h, 009h, 009h, 009h
	. . .
524E	09 09 

5250	09 09 00 09              DB 009h, 009h, 000h, 009h, 01Bh, 000h, 000h, 009h, 009h, 02Dh
	. . .
5258	09 2D 

525A	09 09 09 2D              DB 009h, 009h, 009h, 02Dh, 009h, 02Dh, 009h, 009h, 000h, 009h
	. . .
5262	00 09 

5264	09 09 09 09              DB 009h, 009h, 009h, 009h, 009h, 000h, 024h, 024h, 009h, 009h
	. . .
526C	09 09 

526E	00 09 1B 00              DB 000h, 009h, 01Bh, 000h, 000h, 009h, 009h, 02Dh, 009h, 009h
	. . .
5276	09 09 

5278	09 00 09 09              DB 009h, 000h, 009h, 009h, 009h, 009h, 000h, 000h, 009h, 009h
	. . .
5280	09 09 

5282	09 09 09 00              DB 009h, 009h, 009h, 000h, 009h, 000h, 009h, 009h, 000h, 009h
	. . .
528A	00 09 

528C	1B 00 00 09              DB 01Bh, 000h, 000h, 009h, 009h, 009h, 009h, 009h, 000h, 000h
	. . .
5294	00 00 

5296	09 09 09 09              DB 009h, 009h, 009h, 009h, 009h, 02Dh, 009h, 009h, 009h, 009h
	. . .
529E	09 09 

52A0	09 00 09 00              DB 009h, 000h, 009h, 000h, 009h, 009h, 000h, 009h, 01Bh, 000h
	. . .
52A8	1B 00 

52AA	00 09 09 09              DB 000h, 009h, 009h, 009h, 009h, 009h, 000h, 009h, 009h, 009h
	. . .
52B2	09 09 

52B4	09 09 09 00              DB 009h, 009h, 009h, 000h, 000h, 000h, 009h, 009h, 009h, 000h
	. . .
52BC	09 00 

52BE	09 00 09 09              DB 009h, 000h, 009h, 009h, 000h, 009h, 01Bh, 000h, 000h, 009h
	. . .
52C6	00 09 

52C8	09 09 09 09              DB 009h, 009h, 009h, 009h, 000h, 009h, 009h, 009h, 009h, 009h
	. . .
52D0	09 09 

52D2	09 09 09 00              DB 009h, 009h, 009h, 000h, 009h, 009h, 009h, 000h, 009h, 000h
	. . .
52DA	09 00 

52DC	09 09 00 09              DB 009h, 009h, 000h, 009h, 01Bh, 000h, 000h, 009h, 009h, 009h
	. . .
52E4	09 09 

52E6	09 00 00 09              DB 009h, 000h, 000h, 009h, 009h, 009h, 009h, 02Dh, 009h, 009h
	. . .
52EE	09 09 

52F0	09 00 00 2D              DB 009h, 000h, 000h, 02Dh, 009h, 000h, 009h, 000h, 009h, 009h
	. . .
52F8	09 09 

52FA	00 09 1B 00              DB 000h, 009h, 01Bh, 000h, 000h, 009h, 009h, 009h, 009h, 000h
	. . .
5302	09 00 

5304	09 09 09 09              DB 009h, 009h, 009h, 009h, 009h, 02Dh, 009h, 009h, 009h, 009h
	. . .
530C	09 09 

530E	00 00 09 00              DB 000h, 000h, 009h, 000h, 009h, 000h, 009h, 009h, 000h, 009h
	. . .
5316	00 09 

5318	1B 00 00 09              DB 01Bh, 000h, 000h, 009h, 009h, 009h, 009h, 000h, 009h, 009h
	. . .
5320	09 09 

5322	09 09 09 2D              DB 009h, 009h, 009h, 02Dh, 009h, 009h, 009h, 009h, 000h, 000h
	. . .
532A	00 00 

532C	00 00 09 00              DB 000h, 000h, 009h, 000h, 009h, 009h, 000h, 009h, 01Bh, 000h
	. . .
5334	1B 00 

5336	00 09 09 09              DB 000h, 009h, 009h, 009h, 009h, 000h, 009h, 009h, 009h, 009h
	. . .
533E	09 09 

5340	09 00 09 09              DB 009h, 000h, 009h, 009h, 009h, 009h, 009h, 009h, 009h, 000h
	. . .
5348	09 00 

534A	09 00 09 09              DB 009h, 000h, 009h, 009h, 000h, 009h, 01Bh, 000h, 000h, 009h
	. . .
5352	00 09 

5354	09 09 09 2D              DB 009h, 009h, 009h, 02Dh, 009h, 009h, 009h, 009h, 009h, 000h
	. . .
535C	09 00 

535E	09 09 09 09              DB 009h, 009h, 009h, 009h, 009h, 009h, 009h, 000h, 009h, 000h
	. . .
5366	09 00 

5368	09 09 00 09              DB 009h, 009h, 000h, 009h, 01Bh, 000h, 000h, 009h, 009h, 009h
	. . .
5370	09 09 

5372	09 00 09 09              DB 009h, 000h, 009h, 009h, 009h, 009h, 009h, 000h, 009h, 009h
	. . .
537A	09 09 

537C	09 09 09 2D              DB 009h, 009h, 009h, 02Dh, 009h, 02Dh, 009h, 000h, 009h, 009h
	. . .
5384	09 09 

5386	00 09 1B 00              DB 000h, 009h, 01Bh, 000h, 000h, 009h, 009h, 009h, 009h, 000h
	. . .
538E	09 00 

5390	09 09 2D 09              DB 009h, 009h, 02Dh, 009h, 009h, 000h, 009h, 009h, 009h, 009h
	. . .
5398	09 09 

539A	09 2D 09 2D              DB 009h, 02Dh, 009h, 02Dh, 009h, 000h, 009h, 009h, 000h, 009h
	. . .
53A2	00 09 

53A4	1B 00 00 09              DB 01Bh, 000h, 000h, 009h, 009h, 000h, 000h, 000h, 009h, 009h
	. . .
53AC	09 09 

53AE	2D 09 09 00              DB 02Dh, 009h, 009h, 000h, 009h, 009h, 009h, 009h, 009h, 02Dh
	. . .
53B6	09 2D 

53B8	09 00 09 00              DB 009h, 000h, 009h, 000h, 009h, 009h, 000h, 009h, 01Bh, 000h
	. . .
53C0	1B 00 

53C2	00 09 09 00              DB 000h, 009h, 009h, 000h, 009h, 009h, 009h, 009h, 02Dh, 009h
	. . .
53CA	2D 09 

53CC	09 00 09 09              DB 009h, 000h, 009h, 009h, 009h, 009h, 009h, 02Dh, 009h, 000h
	. . .
53D4	09 00 

53D6	09 00 09 09              DB 009h, 000h, 009h, 009h, 000h, 009h, 01Bh, 000h, 02Dh, 009h
	. . .
53DE	2D 09 

53E0	09 00 09 09              DB 009h, 000h, 009h, 009h, 009h, 009h, 02Dh, 009h, 009h, 000h
	. . .
53E8	09 00 

53EA	09 09 09 09              DB 009h, 009h, 009h, 009h, 009h, 02Dh, 009h, 000h, 009h, 02Dh
	. . .
53F2	09 2D 

53F4	09 09 00 09              DB 009h, 009h, 000h, 009h, 01Bh, 000h, 000h, 009h, 009h, 000h
	. . .
53FC	09 00 

53FE	09 09 09 09              DB 009h, 009h, 009h, 009h, 02Dh, 009h, 009h, 000h, 009h, 009h
	. . .
5406	09 09 

5408	09 09 09 2D              DB 009h, 009h, 009h, 02Dh, 009h, 000h, 009h, 02Dh, 009h, 009h
	. . .
5410	09 09 

5412	00 09 1B 00              DB 000h, 009h, 01Bh, 000h, 000h, 009h, 009h, 000h, 009h, 009h
	. . .
541A	09 09 

541C	09 09 2D 09              DB 009h, 009h, 02Dh, 009h, 009h, 000h, 009h, 009h, 009h, 009h
	. . .
5424	09 09 

5426	09 2D 09 00              DB 009h, 02Dh, 009h, 000h, 009h, 009h, 009h, 009h, 000h, 009h
	. . .
542E	00 09 

5430	1B 00 00 09              DB 01Bh, 000h, 000h, 009h, 009h, 000h, 009h, 009h, 009h, 009h
	. . .
5438	09 09 

543A	09 09 09 00              DB 009h, 009h, 009h, 000h, 009h, 009h, 009h, 009h, 009h, 009h
	. . .
5442	09 09 

5444	09 00 09 09              DB 009h, 000h, 009h, 009h, 009h, 009h, 000h, 009h, 01Bh, 000h
	. . .
544C	1B 00 

544E	00 09 09 00              DB 000h, 009h, 009h, 000h, 009h, 009h, 009h, 009h, 009h, 009h
	. . .
5456	09 09 

5458	09 00 09 09              DB 009h, 000h, 009h, 009h, 009h, 009h, 009h, 009h, 009h, 000h
	. . .
5460	09 00 

5462	09 09 09 09              DB 009h, 009h, 009h, 009h, 000h, 009h, 01Bh, 000h, 000h, 009h
	. . .
546A	00 09 

546C	09 00 09 09              DB 009h, 000h, 009h, 009h, 009h, 009h, 009h, 009h, 009h, 000h
	. . .
5474	09 00 

5476	09 09 09 09              DB 009h, 009h, 009h, 009h, 009h, 009h, 009h, 000h, 009h, 009h
	. . .
547E	09 09 

5480	09 09 00 09              DB 009h, 009h, 000h, 009h, 01Bh, 000h, 000h, 024h, 024h, 024h
	. . .
5488	24 24 

548A	24 24 24 24              DB 024h, 024h, 024h, 024h, 024h, 024h, 024h, 024h, 024h, 024h
	. . .
5492	24 24 

5494	24 24 24 24              DB 024h, 024h, 024h, 024h, 024h, 024h, 024h, 024h, 024h, 024h
	. . .
549C	24 24 

549E	24 09 1B 00              DB 024h, 009h, 01Bh, 000h, 000h, 009h, 009h, 009h, 009h, 009h
	. . .
54A6	09 09 

54A8	09 00 09 09              DB 009h, 000h, 009h, 009h, 009h, 009h, 009h, 009h, 009h, 000h
	. . .
54B0	09 00 

54B2	09 09 09 09              DB 009h, 009h, 009h, 009h, 009h, 009h, 009h, 009h, 000h, 009h
	. . .
54BA	00 09 

54BC	1B 00 00 09              DB 01Bh, 000h, 000h, 009h, 009h, 009h, 009h, 009h, 009h, 000h
	. . .
54C4	09 00 

54C6	09 09 09 09              DB 009h, 009h, 009h, 009h, 009h, 009h, 009h, 000h, 009h, 009h
	. . .
54CE	09 09 

54D0	09 09 09 09              DB 009h, 009h, 009h, 009h, 009h, 009h, 000h, 009h, 01Bh, 000h
	. . .
54D8	1B 00 

54DA	00 09 09 09              DB 000h, 009h, 009h, 009h, 02Dh, 009h, 009h, 000h, 009h, 009h
	. . .
54E2	09 09 

54E4	09 00 24 24              DB 009h, 000h, 024h, 024h, 024h, 024h, 009h, 009h, 009h, 000h
	. . .
54EC	09 00 

54EE	00 00 00 09              DB 000h, 000h, 000h, 009h, 000h, 009h, 01Bh, 000h, 000h, 009h
	. . .
54F6	00 09 

54F8	09 09 2D 09              DB 009h, 009h, 02Dh, 009h, 009h, 000h, 009h, 009h, 009h, 000h
	. . .
5500	09 00 

5502	09 09 09 09              DB 009h, 009h, 009h, 009h, 009h, 009h, 009h, 000h, 009h, 009h
	. . .
550A	09 09 

550C	00 09 00 09              DB 000h, 009h, 000h, 009h, 01Bh, 000h, 000h, 009h, 009h
	. . .
5514	09 

5515	01 2D 09 09     lkjnv:   DB 001h, 02Dh, 009h, 009h, 000h, 009h, 009h, 009h, 000h, 009h
	. . .
551D	00 09 

551F	09 09 09 09              DB 009h, 009h, 009h, 009h, 009h, 009h, 000h, 009h, 009h, 000h
	. . .
5527	09 00 

5529	09 00 09 1B              DB 009h, 000h, 009h, 01Bh, 000h, 000h, 009h, 009h, 009h, 02Dh
	. . .
5531	09 2D 

5533	09 09 00 09              DB 009h, 009h, 000h, 009h, 009h, 009h, 000h, 009h, 009h, 009h
	. . .
553B	09 09 

553D	09 00 00 00              DB 009h, 000h, 000h, 000h, 000h, 009h, 009h, 000h, 009h, 000h
	. . .
5545	09 00 

5547	09 1B 00 00              DB 009h, 01Bh, 000h, 000h, 009h, 009h, 009h, 02Dh, 009h, 009h
	. . .
554F	09 09 

5551	00 09 09 09              DB 000h, 009h, 009h, 009h, 000h, 009h, 009h, 009h, 009h, 000h
	. . .
5559	09 00 

555B	09 09 09 09              DB 009h, 009h, 009h, 009h, 009h, 000h, 009h, 000h, 009h, 01Bh
	. . .
5563	09 1B 

5565	00 00 09 09              DB 000h, 000h, 009h, 009h, 009h, 02Dh, 009h, 009h, 000h, 009h
	. . .
556D	00 09 

556F	09 09 00 09              DB 009h, 009h, 000h, 009h, 009h, 009h, 009h, 02Dh, 009h, 009h
	. . .
5577	09 09 

5579	09 09 09 00              DB 009h, 009h, 009h, 000h, 009h, 000h, 009h, 01Bh, 000h, 02Dh
	. . .
5581	00 2D 

5583	09 09 09 09              DB 009h, 009h, 009h, 009h, 009h, 009h, 000h, 009h, 009h, 009h
	. . .
558B	09 09 

558D	00 09 09 09              DB 000h, 009h, 009h, 009h, 009h, 000h, 009h, 009h, 009h, 009h
	. . .
5595	09 09 

5597	09 00 09 00              DB 009h, 000h, 009h, 000h, 009h, 01Bh, 000h, 02Dh, 009h, 009h
	. . .
559F	09 09 

55A1	09 09 09 09              DB 009h, 009h, 009h, 009h, 000h, 009h, 009h, 009h, 02Dh, 009h
	. . .
55A9	2D 09 

55AB	09 09 09 00              DB 009h, 009h, 009h, 000h, 009h, 009h, 009h, 009h, 009h, 000h
	. . .
55B3	09 00 

55B5	09 00 09 1B              DB 009h, 000h, 009h, 01Bh, 000h, 000h, 009h, 009h, 009h, 000h
	. . .
55BD	09 00 

55BF	24 24 24 09              DB 024h, 024h, 024h, 009h, 009h, 009h, 02Dh, 009h, 000h, 000h
	. . .
55C7	00 00 

55C9	00 00 09 09              DB 000h, 000h, 009h, 009h, 009h, 009h, 009h, 02Dh, 009h, 000h
	. . .
55D1	09 00 

55D3	09 1B 00 00              DB 009h, 01Bh, 000h, 000h, 009h, 009h, 009h, 000h, 009h, 009h
	. . .
55DB	09 09 

55DD	09 09 09 09              DB 009h, 009h, 009h, 009h, 000h, 009h, 000h, 009h, 009h, 009h
	. . .
55E5	09 09 

55E7	09 09 2D 09              DB 009h, 009h, 02Dh, 009h, 009h, 02Dh, 009h, 000h, 009h, 01Bh
	. . .
55EF	09 1B 

55F1	00 00 09 09              DB 000h, 000h, 009h, 009h, 009h, 000h, 009h, 009h, 009h, 009h
	. . .
55F9	09 09 

55FB	09 09 00 09              DB 009h, 009h, 000h, 009h, 000h, 009h, 009h, 009h, 009h, 009h
	. . .
5603	09 09 

5605	00 09 09 00              DB 000h, 009h, 009h, 000h, 009h, 000h, 009h, 01Bh, 000h, 000h
	. . .
560D	00 00 

560F	09 09 09 00              DB 009h, 009h, 009h, 000h, 009h, 009h, 009h, 009h, 009h, 009h
	. . .
5617	09 09 

5619	09 09 2D 09              DB 009h, 009h, 02Dh, 009h, 009h, 009h, 009h, 009h, 000h, 009h
	. . .
5621	00 09 

5623	09 00 09 00              DB 009h, 000h, 009h, 000h, 009h, 01Bh, 000h, 000h, 009h, 009h
	. . .
562B	09 09 

562D	09 00 09 09              DB 009h, 000h, 009h, 009h, 009h, 009h, 009h, 009h, 009h, 009h
	. . .
5635	09 09 

5637	2D 09 09 09              DB 02Dh, 009h, 009h, 009h, 009h, 009h, 02Dh, 009h, 009h, 000h
	. . .
563F	09 00 

5641	09 00 09 1B              DB 009h, 000h, 009h, 01Bh, 000h, 000h, 009h, 009h, 009h, 000h
	. . .
5649	09 00 

564B	09 09 09 2D              DB 009h, 009h, 009h, 02Dh, 02Dh, 009h, 009h, 009h, 000h, 009h
	. . .
5653	00 09 

5655	09 09 09 09              DB 009h, 009h, 009h, 009h, 02Dh, 009h, 009h, 000h, 009h, 000h
	. . .
565D	09 00 

565F	09 1B 00 2D              DB 009h, 01Bh, 000h, 02Dh, 009h, 009h, 009h, 000h, 000h, 000h
	. . .
5667	00 00 

5669	00 00 00 00              DB 000h, 000h, 000h, 000h, 000h, 000h, 000h, 009h, 009h, 009h
	. . .
5671	09 09 

5673	09 09 09 09              DB 009h, 009h, 009h, 009h, 009h, 000h, 000h, 000h, 009h, 01Bh
	. . .
567B	09 1B 

567D	00 2D 09 09              DB 000h, 02Dh, 009h, 009h, 009h, 009h, 009h, 009h, 009h, 009h
	. . .
5685	09 09 

5687	09 09 09 09              DB 009h, 009h, 009h, 009h, 009h, 009h, 009h, 009h, 009h, 009h
	. . .
568F	09 09 

5691	09 09 09 09              DB 009h, 009h, 009h, 009h, 009h, 009h, 009h, 009h, 009h, 009h
	. . .
5699	09 09 

569B	09 09 09 09              DB 009h, 009h, 009h, 009h, 009h, 009h, 009h, 009h, 009h, 009h
	. . .
56A3	09 09 

56A5	09 09 09 09              DB 009h, 009h, 009h, 009h, 009h, 009h, 009h, 009h, 009h, 009h
	. . .
56AD	09 09 

56AF	09 09 09 09              DB 009h, 009h, 009h, 009h, 009h, 0FEh, 0DFh, 0DFh, 0FAh, 0FAh
	. . .
56B7	FA FA 

56B9	00 FA DF FA              DB 000h, 0FAh, 0DFh, 0FAh, 000h, 0DFh, 0DFh, 0FAh, 0FAh, 000h
	. . .
56C1	FA 00 

56C3	FA DF FA 00              DB 0FAh, 0DFh, 0FAh, 000h, 0DFh, 0DFh, 0BAh, 0BAh, 000h, 0FAh
	. . .
56CB	00 FA 

56CD	DF C6 00 DF              DB 0DFh, 0C6h, 000h, 0DFh, 0DFh, 0BAh, 0BAh, 000h, 0FAh, 0DFh
	. . .
56D5	FA DF 

56D7	C6 00 DF DF              DB 0C6h, 000h, 0DFh, 0DFh, 0FAh, 0FAh, 000h, 0FAh, 0DFh, 0FAh
	. . .
56DF	DF FA 

56E1	00 DF DF FA              DB 000h, 0DFh, 0DFh, 0FAh, 0FAh, 000h, 0FAh, 0DFh, 0FAh, 000h
	. . .
56E9	FA 00 

56EB	DF DF FA FA              DB 0DFh, 0DFh, 0FAh, 0FAh, 0DFh, 0DFh, 0FAh, 0FAh, 000h, 0FFh
	. . .
56F3	00 FF 

56F5	00 00 00 00              DB 000h, 000h, 000h, 000h, 000h, 000h, 000h, 000h, 000h, 000h
	. . .
56FD	00 00 

56FF	00 09 09 09              DB 000h, 009h, 009h, 009h, 009h, 009h, 009h, 009h, 009h, 009h
	. . .
5707	09 09 

5709	09 09 09 09              DB 009h, 009h, 009h, 009h, 009h, 009h, 009h, 009h, 009h, 009h
	. . .
5711	09 09 

5713	09 09 09 09              DB 009h, 009h, 009h, 009h, 009h, 009h, 009h, 009h, 009h, 01Bh
	. . .
571B	09 1B 

571D	00 00 24 24              DB 000h, 000h, 024h, 024h, 024h, 024h, 024h, 024h, 024h, 024h
	. . .
5725	24 24 

5727	24 24 24 24              DB 024h, 024h, 024h, 024h, 024h, 024h, 024h, 024h, 024h, 024h
	. . .
572F	24 24 

5731	24 24 24 24              DB 024h, 024h, 024h, 024h, 024h, 024h, 009h, 036h, 03Fh, 024h
	. . .
5739	3F 24 

573B	24 24 24 24              DB 024h, 024h, 024h, 024h, 024h, 024h, 024h, 024h, 024h, 024h
	. . .
5743	24 24 

5745	24 24 24 24              DB 024h, 024h, 024h, 024h, 024h, 024h, 024h, 024h, 024h, 024h
	. . .
574D	24 24 

574F	24 24 24 00              DB 024h, 024h, 024h, 000h, 009h, 01Bh, 000h, 000h, 024h, 024h
	. . .
5757	24 24 

5759	24 24 24 24              DB 024h, 024h, 024h, 024h, 024h, 024h, 024h, 024h, 024h, 024h
	. . .
5761	24 24 

5763	24 24 24 24              DB 024h, 024h, 024h, 024h, 024h, 024h, 024h, 024h, 024h, 024h
	. . .
576B	24 24 

576D	24 24 09 1B              DB 024h, 024h, 009h, 01Bh, 000h, 000h, 024h, 024h, 024h, 024h
	. . .
5775	24 24 

5777	24 24 24 24              DB 024h, 024h, 024h, 024h, 024h, 024h, 024h, 024h, 024h, 024h
	. . .
577F	24 24 

5781	24 2D 24 24              DB 024h, 02Dh, 024h, 024h, 024h, 024h, 024h, 024h, 024h, 000h
	. . .
5789	24 00 

578B	09 1B 00 00              DB 009h, 01Bh, 000h, 000h, 024h, 024h, 024h, 024h, 024h, 02Dh
	. . .
5793	24 2D 

5795	24 24 24 24              DB 024h, 024h, 024h, 024h, 024h, 024h, 024h, 024h, 024h, 02Dh
	. . .
579D	24 2D 

579F	24 24 24 24              DB 024h, 024h, 024h, 024h, 024h, 024h, 024h, 024h, 009h, 01Bh
	. . .
57A7	09 1B 

57A9	00 00 24 24              DB 000h, 000h, 024h, 024h, 024h, 024h, 024h, 024h, 024h, 024h
	. . .
57B1	24 24 

57B3	24 24 24 24              DB 024h, 024h, 024h, 024h, 024h, 024h, 024h, 024h, 024h, 024h
	. . .
57BB	24 24 

57BD	24 24 2D 24              DB 024h, 024h, 02Dh, 024h, 024h, 000h, 009h, 01Bh, 000h, 000h
	. . .
57C5	00 00 

57C7	24 24 24 24              DB 024h, 024h, 024h, 024h, 024h, 024h, 024h, 024h, 024h, 024h
	. . .
57CF	24 24 

57D1	2D 24 24 24              DB 02Dh, 024h, 024h, 024h, 024h, 024h, 024h, 024h, 024h, 024h
	. . .
57D9	24 24 

57DB	2D 24 24 24              DB 02Dh, 024h, 024h, 024h, 009h, 01Bh, 000h, 000h, 024h, 024h
	. . .
57E3	24 24 

57E5	24 24 24 24              DB 024h, 024h, 024h, 024h, 024h, 024h, 024h, 024h, 02Dh, 024h
	. . .
57ED	2D 24 

57EF	24 24 24 24              DB 024h, 024h, 024h, 024h, 024h, 024h, 024h, 024h, 02Dh, 024h
	. . .
57F7	2D 24 

57F9	24 00 09 1B              DB 024h, 000h, 009h, 01Bh, 000h, 000h, 024h, 024h, 024h, 024h
	. . .
5801	24 24 

5803	24 24 24 24              DB 024h, 024h, 024h, 024h, 024h, 024h, 024h, 024h, 024h, 024h
	. . .
580B	24 24 

580D	24 24 24 24              DB 024h, 024h, 024h, 024h, 024h, 024h, 024h, 024h, 024h, 024h
	. . .
5815	24 24 

5817	09 1B 00 00              DB 009h, 01Bh, 000h, 000h, 024h, 024h, 024h, 02Dh, 024h, 024h
	. . .
581F	24 24 

5821	24 24 24 24              DB 024h, 024h, 024h, 024h, 024h, 024h, 024h, 024h, 024h, 024h
	. . .
5829	24 24 

582B	24 24 24 24              DB 024h, 024h, 024h, 024h, 024h, 024h, 024h, 000h, 009h, 01Bh
	. . .
5833	09 1B 

5835	00 00 24 24              DB 000h, 000h, 024h, 024h, 024h, 024h, 024h, 024h, 024h, 024h
	. . .
583D	24 24 

583F	24 24 24 24              DB 024h, 024h, 024h, 024h, 024h, 024h, 024h, 024h, 024h, 024h
	. . .
5847	24 24 

5849	24 24 24 24              DB 024h, 024h, 024h, 024h, 024h, 024h, 009h, 01Bh, 000h, 000h
	. . .
5851	00 00 

5853	24 24 24 24              DB 024h, 024h, 024h, 024h, 024h, 024h, 024h, 024h, 024h, 024h
	. . .
585B	24 24 

585D	24 24 24 24              DB 024h, 024h, 024h, 024h, 024h, 024h, 024h, 024h, 024h, 024h
	. . .
5865	24 24 

5867	24 24 24 00              DB 024h, 024h, 024h, 000h, 009h, 01Bh, 000h, 000h, 024h, 024h
	. . .
586F	24 24 

5871	24 24 24 2D              DB 024h, 024h, 024h, 02Dh, 024h, 024h, 024h, 024h, 024h, 024h
	. . .
5879	24 24 

587B	24 24 24 24              DB 024h, 024h, 024h, 024h, 024h, 024h, 024h, 024h, 024h, 024h
	. . .
5883	24 24 

5885	2D 24 09 1B              DB 02Dh, 024h, 009h, 01Bh, 000h, 000h, 024h, 024h, 024h, 024h
	. . .
588D	24 24 

588F	24 24 24 24              DB 024h, 024h, 024h, 024h, 024h, 024h, 024h, 024h, 024h, 024h
	. . .
5897	24 24 

5899	24 24 24 24              DB 024h, 024h, 024h, 024h, 024h, 024h, 024h, 024h, 02Dh, 000h
	. . .
58A1	2D 00 

58A3	09 1B 00 00              DB 009h, 01Bh, 000h, 000h, 024h, 024h, 024h, 024h, 024h, 024h
	. . .
58AB	24 24 

58AD	24 24 24 24              DB 024h, 024h, 024h, 024h, 024h, 024h, 024h, 024h, 024h, 024h
	. . .
58B5	24 24 

58B7	24 24 24 24              DB 024h, 024h, 024h, 024h, 024h, 024h, 02Dh, 024h, 009h, 01Bh
	. . .
58BF	09 1B 

58C1	00 00 24 24              DB 000h, 000h, 024h, 024h, 024h, 024h, 024h, 024h, 024h, 024h
	. . .
58C9	24 24 

58CB	24 24 24 24              DB 024h, 024h, 024h, 024h, 02Dh, 02Dh, 024h, 024h, 024h, 024h
	. . .
58D3	24 24 

58D5	24 24 24 24              DB 024h, 024h, 024h, 024h, 024h, 000h, 009h, 01Bh, 000h, 02Dh
	. . .
58DD	00 2D 

58DF	24 24 24 24              DB 024h, 024h, 024h, 024h, 024h, 024h, 024h, 024h, 024h, 024h
	. . .
58E7	24 24 

58E9	24 24 24 24              DB 024h, 024h, 024h, 024h, 024h, 024h, 024h, 02Dh, 024h, 024h
	. . .
58F1	24 24 

58F3	24 24 24 24              DB 024h, 024h, 024h, 024h, 009h, 01Bh, 000h, 000h, 024h, 024h
	. . .
58FB	24 24 

58FD	24 24 24 24              DB 024h, 024h, 024h, 024h, 024h, 024h, 024h, 024h, 024h, 024h
	. . .
5905	24 24 

5907	24 24 24 24              DB 024h, 024h, 024h, 024h, 024h, 02Dh, 024h, 024h, 024h, 024h
	. . .
590F	24 24 

5911	24 00 09 1B              DB 024h, 000h, 009h, 01Bh, 000h, 000h, 024h, 024h, 024h, 024h
	. . .
5919	24 24 

591B	24 24 24 24              DB 024h, 024h, 024h, 024h, 024h, 024h, 024h, 024h, 024h, 024h
	. . .
5923	24 24 

5925	24 24 24 2D              DB 024h, 024h, 024h, 02Dh, 024h, 024h, 024h, 024h, 024h, 024h
	. . .
592D	24 24 

592F	09 1B 00 00              DB 009h, 01Bh, 000h, 000h, 024h, 024h, 024h, 024h, 024h, 02Dh
	. . .
5937	24 2D 

5939	24 24 24 24              DB 024h, 024h, 024h, 024h, 024h, 024h, 024h, 024h, 024h, 024h
	. . .
5941	24 24 

5943	24 24 24 24              DB 024h, 024h, 024h, 024h, 024h, 024h, 024h, 000h, 009h, 01Bh
	. . .
594B	09 1B 

594D	00 00 24 24              DB 000h, 000h, 024h, 024h, 024h, 024h, 024h, 024h, 024h, 024h
	. . .
5955	24 24 

5957	24 24 24 24              DB 024h, 024h, 024h, 024h, 024h, 024h, 024h, 024h, 024h, 024h
	. . .
595F	24 24 

5961	24 24 24 24              DB 024h, 024h, 024h, 024h, 024h, 024h, 009h, 01Bh, 000h, 000h
	. . .
5969	00 00 

596B	24 24 24 24              DB 024h, 024h, 024h, 024h, 024h, 024h, 024h, 024h, 024h, 024h
	. . .
5973	24 24 

5975	24 24 24 24              DB 024h, 024h, 024h, 024h, 024h, 024h, 024h, 024h, 024h, 024h
	. . .
597D	24 24 

597F	24 24 24 00              DB 024h, 024h, 024h, 000h, 009h, 01Bh, 000h, 000h, 024h, 024h
	. . .
5987	24 24 

5989	24 2D 24 24              DB 024h, 02Dh, 024h, 024h, 024h, 024h, 024h, 024h, 024h, 024h
	. . .
5991	24 24 

5993	24 24 24 24              DB 024h, 024h, 024h, 024h, 024h, 024h, 024h, 024h, 024h, 024h
	. . .
599B	24 24 

599D	24 24 09 1B              DB 024h, 024h, 009h, 01Bh, 000h, 000h, 024h, 024h, 024h, 02Dh
	. . .
59A5	24 2D 

59A7	24 24 24 24              DB 024h, 024h, 024h, 024h, 024h, 024h, 02Dh, 024h, 024h, 02Dh
	. . .
59AF	24 2D 

59B1	24 24 24 24              DB 024h, 024h, 024h, 024h, 024h, 024h, 024h, 02Dh, 024h, 000h
	. . .
59B9	24 00 

59BB	09 1B 00 00              DB 009h, 01Bh, 000h, 000h, 024h, 024h, 024h, 024h, 024h, 024h
	. . .
59C3	24 24 

59C5	24 24 24 24              DB 024h, 024h, 024h, 024h, 02Dh, 024h, 024h, 02Dh, 024h, 024h
	. . .
59CD	24 24 

59CF	24 24 24 24              DB 024h, 024h, 024h, 024h, 024h, 02Dh, 024h, 024h, 009h, 01Bh
	. . .
59D7	09 1B 

59D9	00 00 24 24              DB 000h, 000h, 024h, 024h, 024h, 024h, 024h, 024h, 024h, 024h
	. . .
59E1	24 24 

59E3	24 24 24 24              DB 024h, 024h, 024h, 024h, 024h, 02Dh, 024h, 024h, 024h, 024h
	. . .
59EB	24 24 

59ED	24 24 24 2D              DB 024h, 024h, 024h, 02Dh, 024h, 000h, 009h, 01Bh, 000h, 000h
	. . .
59F5	00 00 

59F7	24 24 24 24              DB 024h, 024h, 024h, 024h, 024h, 024h, 024h, 024h, 024h, 024h
	. . .
59FF	24 24 

5A01	24 24 24 24              DB 024h, 024h, 024h, 024h, 024h, 024h, 024h, 024h, 02Dh, 024h
	. . .
5A09	2D 24 

5A0B	24 24 24 24              DB 024h, 024h, 024h, 024h, 009h, 01Bh, 000h, 000h, 024h, 024h
	. . .
5A13	24 24 

5A15	24 24 24 2D              DB 024h, 024h, 024h, 02Dh, 024h, 024h, 024h, 024h, 024h, 024h
	. . .
5A1D	24 24 

5A1F	24 24 24 24              DB 024h, 024h, 024h, 024h, 024h, 024h, 02Dh, 024h, 024h, 024h
	. . .
5A27	24 24 

5A29	24 00 09 1B              DB 024h, 000h, 009h, 01Bh, 000h, 000h, 024h, 024h, 024h, 024h
	. . .
5A31	24 24 

5A33	24 2D 24 24              DB 024h, 02Dh, 024h, 024h, 024h, 024h, 024h, 024h, 024h, 024h
	. . .
5A3B	24 24 

5A3D	24 24 24 24              DB 024h, 024h, 024h, 024h, 02Dh, 024h, 024h, 024h, 024h, 024h
	. . .
5A45	24 24 

5A47	09 1B 00 00              DB 009h, 01Bh, 000h, 000h, 024h, 024h, 024h, 024h, 024h, 024h
	. . .
5A4F	24 24 

5A51	24 24 24 24              DB 024h, 024h, 024h, 024h, 024h, 024h, 024h, 024h, 024h, 024h
	. . .
5A59	24 24 

5A5B	24 24 2D 24              DB 024h, 024h, 02Dh, 024h, 024h, 024h, 024h, 000h, 009h, 01Bh
	. . .
5A63	09 1B 

5A65	00 00 24 24              DB 000h, 000h, 024h, 024h, 024h, 024h, 024h, 024h, 024h, 024h
	. . .
5A6D	24 24 

5A6F	24 24 24 24              DB 024h, 024h, 024h, 024h, 024h, 024h, 024h, 024h, 024h, 024h
	. . .
5A77	24 24 

5A79	24 24 24 24              DB 024h, 024h, 024h, 024h, 024h, 024h, 009h, 01Bh, 000h, 02Dh
	. . .
5A81	00 2D 

5A83	24 24 24 24              DB 024h, 024h, 024h, 024h, 024h, 024h, 024h, 024h, 024h, 024h
	. . .
5A8B	24 24 

5A8D	24 24 24 24              DB 024h, 024h, 024h, 024h, 024h, 024h, 024h, 024h, 024h, 024h
	. . .
5A95	24 24 

5A97	24 24 24 00              DB 024h, 024h, 024h, 000h, 009h, 01Bh, 000h, 000h, 024h, 024h
	. . .
5A9F	24 24 

5AA1	24 24 24 24              DB 024h, 024h, 024h, 024h, 024h, 024h, 024h, 024h, 024h, 024h
	. . .
5AA9	24 24 

5AAB	24 24 24 24              DB 024h, 024h, 024h, 024h, 024h, 024h, 024h, 024h, 024h, 024h
	. . .
5AB3	24 24 

5AB5	24 24 09 1B              DB 024h, 024h, 009h, 01Bh, 000h, 000h, 024h, 024h, 024h, 024h
	. . .
5ABD	24 24 

5ABF	24 24 24 24              DB 024h, 024h, 024h, 024h, 024h, 024h, 024h, 024h, 024h, 02Dh
	. . .
5AC7	24 2D 

5AC9	24 24 24 24              DB 024h, 024h, 024h, 024h, 024h, 024h, 024h, 024h, 024h, 000h
	. . .
5AD1	24 00 

5AD3	09 1B 00 00              DB 009h, 01Bh, 000h, 000h, 024h, 02Dh, 024h, 024h, 024h, 024h
	. . .
5ADB	24 24 

5ADD	24 24 24 24              DB 024h, 024h, 024h, 024h, 024h, 024h, 024h, 02Dh, 024h, 024h
	. . .
5AE5	24 24 

5AE7	24 24 24 24              DB 024h, 024h, 024h, 024h, 024h, 024h, 024h, 024h, 009h, 01Bh
	. . .
5AEF	09 1B 

5AF1	00 00 24 2D              DB 000h, 000h, 024h, 02Dh, 024h, 024h, 024h, 024h, 024h, 024h
	. . .
5AF9	24 24 

5AFB	24 24 24 24              DB 024h, 024h, 024h, 024h, 024h, 02Dh, 024h, 024h, 024h, 024h
	. . .
5B03	24 24 

5B05	24 24 24 24              DB 024h, 024h, 024h, 024h, 024h, 000h, 009h, 01Bh, 000h, 000h
	. . .
5B0D	00 00 

5B0F	24 24 24 24              DB 024h, 024h, 024h, 024h, 024h, 024h, 024h, 024h, 024h, 024h
	. . .
5B17	24 24 

5B19	24 24 24 24              DB 024h, 024h, 024h, 024h, 024h, 024h, 024h, 02Dh, 024h, 024h
	. . .
5B21	24 24 

5B23	24 2D 24 24              DB 024h, 02Dh, 024h, 024h, 009h, 01Bh, 000h, 000h, 024h, 024h
	. . .
5B2B	24 24 

5B2D	24 24 24 2D              DB 024h, 024h, 024h, 02Dh, 024h, 024h, 024h, 024h, 024h, 024h
	. . .
5B35	24 24 

5B37	24 24 24 24              DB 024h, 024h, 024h, 024h, 024h, 02Dh, 024h, 024h, 024h, 02Dh
	. . .
5B3F	24 2D 

5B41	24 00 09 1B              DB 024h, 000h, 009h, 01Bh, 000h, 000h, 024h, 024h, 024h, 024h
	. . .
5B49	24 24 

5B4B	24 2D 24 24              DB 024h, 02Dh, 024h, 024h, 024h, 024h, 024h, 024h, 024h, 024h
	. . .
5B53	24 24 

5B55	24 24 24 24              DB 024h, 024h, 024h, 024h, 024h, 024h, 024h, 02Dh, 024h, 024h
	. . .
5B5D	24 24 

5B5F	09 1B 00 00              DB 009h, 01Bh, 000h, 000h, 024h, 024h, 024h, 024h, 024h, 02Dh
	. . .
5B67	24 2D 

5B69	24 24 24 24              DB 024h, 024h, 024h, 024h, 024h, 024h, 024h, 024h, 024h, 024h
	. . .
5B71	24 24 

5B73	24 24 24 24              DB 024h, 024h, 024h, 024h, 024h, 024h, 024h, 000h, 009h, 01Bh
	. . .
5B7B	09 1B 

5B7D	00 00 24 24              DB 000h, 000h, 024h, 024h, 024h, 024h, 024h, 024h, 024h, 024h
	. . .
5B85	24 24 

5B87	24 24 24 24              DB 024h, 024h, 024h, 024h, 024h, 024h, 024h, 024h, 024h, 024h
	. . .
5B8F	24 24 

5B91	24 24 24 24              DB 024h, 024h, 024h, 024h, 024h, 024h, 009h, 009h, 009h, 009h
	. . .
5B99	09 09 

5B9B	09 09 09 09              DB 009h, 009h, 009h, 009h, 009h, 009h, 009h, 009h, 009h, 009h
	. . .
5BA3	09 09 

5BA5	09 09 09 09              DB 009h, 009h, 009h, 009h, 009h, 009h, 009h, 009h, 009h, 009h
	. . .
5BAD	09 09 

5BAF	09 09 09 09              DB 009h, 009h, 009h, 009h, 009h, 0FEh, 0FAh, 0FAh, 0DFh, 0DFh
	. . .
5BB7	DF DF 

5BB9	FA FA DF DF              DB 0FAh, 0FAh, 0DFh, 0DFh, 000h, 0FAh, 0FAh, 0DFh, 0DFh, 0FAh
	. . .
5BC1	DF FA 

5BC3	FA DF DF 00              DB 0FAh, 0DFh, 0DFh, 000h, 0BAh, 0BAh, 0DFh, 0DFh, 0BAh, 0BAh
	. . .
5BCB	BA BA 

5BCD	DF DF 00 FA              DB 0DFh, 0DFh, 000h, 0FAh, 0FAh, 0DFh, 0DFh, 0FAh, 0FAh, 0DFh
	. . .
5BD5	FA DF 

5BD7	DF 00 BA BA              DB 0DFh, 000h, 0BAh, 0BAh, 0FAh, 0FAh, 0DFh, 0DFh, 000h, 0BAh
	. . .
5BDF	00 BA 

5BE1	BA FA FA DF              DB 0BAh, 0FAh, 0FAh, 0DFh, 0DFh, 000h, 0BAh, 0BAh, 0DFh, 0DFh
	. . .
5BE9	DF DF 

5BEB	FA FA DF DF              DB 0FAh, 0FAh, 0DFh, 0DFh, 000h, 000h, 000h, 0FFh, 000h, 000h
	. . .
5BF3	00 00 

5BF5	00 00 00 00              DB 000h, 000h, 000h, 000h, 000h, 000h, 000h, 000h, 000h, 000h
	. . .
5BFD	00 00 

5BFF	00 09 09 09              DB 000h, 009h, 009h, 009h, 009h, 009h, 009h, 009h, 009h, 009h
	. . .
5C07	09 09 

5C09	09 09 09 09              DB 009h, 009h, 009h, 009h, 009h, 009h, 009h, 009h, 009h, 009h
	. . .
5C11	09 09 

5C13	09 09 09 09              DB 009h, 009h, 009h, 009h, 009h, 009h, 009h, 009h, 009h, 01Bh
	. . .
5C1B	09 1B 

5C1D	00 00 00 00              DB 000h, 000h, 000h, 000h, 000h, 000h, 000h, 000h, 000h, 000h
	. . .
5C25	00 00 

5C27	00 00 09 00              DB 000h, 000h, 009h, 000h, 000h, 000h, 000h, 000h, 000h, 000h
	. . .
5C2F	00 00 

5C31	00 00 00 00              DB 000h, 000h, 000h, 000h, 000h, 000h, 009h, 036h, 03Fh, 024h
	. . .
5C39	3F 24 

5C3B	24 24 24 00              DB 024h, 024h, 024h, 000h, 000h, 000h, 000h, 000h, 000h, 000h
	. . .
5C43	00 00 

5C45	00 00 00 00              DB 000h, 000h, 000h, 000h, 000h, 000h, 000h, 000h, 000h, 000h
	. . .
5C4D	00 00 

5C4F	24 24 24 24              DB 024h, 024h, 024h, 024h, 009h, 01Bh, 000h, 000h, 000h, 000h
	. . .
5C57	00 00 

5C59	00 24 00 00              DB 000h, 024h, 000h, 000h, 000h, 000h, 000h, 000h, 000h, 000h
	. . .
5C61	00 00 

5C63	00 00 00 00              DB 000h, 000h, 000h, 000h, 000h, 000h, 024h, 024h, 009h, 009h
	. . .
5C6B	09 09 

5C6D	09 00 09 1B              DB 009h, 000h, 009h, 01Bh, 000h, 000h, 000h, 000h, 000h, 000h
	. . .
5C75	00 00 

5C77	24 00 00 00              DB 024h, 000h, 000h, 000h, 000h, 000h, 000h, 000h, 000h, 000h
	. . .
5C7F	00 00 

5C81	00 00 00 24              DB 000h, 000h, 000h, 024h, 009h, 009h, 009h, 009h, 009h, 02Dh
	. . .
5C89	09 2D 

5C8B	09 1B 00 00              DB 009h, 01Bh, 000h, 000h, 000h, 000h, 000h, 024h, 000h, 024h
	. . .
5C93	00 24 

5C95	00 00 00 00              DB 000h, 000h, 000h, 000h, 000h, 000h, 000h, 000h, 000h, 000h
	. . .
5C9D	00 00 

5C9F	24 09 09 09              DB 024h, 009h, 009h, 009h, 009h, 009h, 009h, 009h, 009h, 01Bh
	. . .
5CA7	09 1B 

5CA9	00 00 00 00              DB 000h, 000h, 000h, 000h, 000h, 009h, 000h, 009h, 000h, 000h
	. . .
5CB1	00 00 

5CB3	00 00 00 00              DB 000h, 000h, 000h, 000h, 000h, 000h, 000h, 000h, 009h, 009h
	. . .
5CBB	09 09 

5CBD	00 00 00 00              DB 000h, 000h, 000h, 000h, 009h, 009h, 009h, 01Bh, 000h, 000h
	. . .
5CC5	00 00 

5CC7	00 00 00 09              DB 000h, 000h, 000h, 009h, 000h, 009h, 02Dh, 000h, 000h, 000h
	. . .
5CCF	00 00 

5CD1	00 00 00 00              DB 000h, 000h, 000h, 000h, 000h, 000h, 000h, 000h, 000h, 009h
	. . .
5CD9	00 09 

5CDB	09 00 09 09              DB 009h, 000h, 009h, 009h, 009h, 01Bh, 000h, 000h, 000h, 000h
	. . .
5CE3	00 00 

5CE5	00 09 00 09              DB 000h, 009h, 000h, 009h, 02Dh, 000h, 000h, 000h, 000h, 000h
	. . .
5CED	00 00 

5CEF	00 00 00 00              DB 000h, 000h, 000h, 000h, 009h, 009h, 000h, 009h, 009h, 02Dh
	. . .
5CF7	09 2D 

5CF9	09 09 09 1B              DB 009h, 009h, 009h, 01Bh, 000h, 000h, 000h, 000h, 000h, 009h
	. . .
5D01	00 09 

5D03	00 09 00 00              DB 000h, 009h, 000h, 000h, 000h, 000h, 000h, 000h, 000h, 000h
	. . .
5D0B	00 00 

5D0D	00 00 09 09              DB 000h, 000h, 009h, 009h, 000h, 009h, 009h, 02Dh, 009h, 009h
	. . .
5D15	09 09 

5D17	09 1B 00 00              DB 009h, 01Bh, 000h, 000h, 000h, 000h, 02Dh, 009h, 000h, 009h
	. . .
5D1F	00 09 

5D21	00 00 00 00              DB 000h, 000h, 000h, 000h, 000h, 000h, 000h, 000h, 000h, 000h
	. . .
5D29	00 00 

5D2B	09 09 00 09              DB 009h, 009h, 000h, 009h, 009h, 000h, 009h, 009h, 009h, 01Bh
	. . .
5D33	09 1B 

5D35	00 00 00 00              DB 000h, 000h, 000h, 000h, 02Dh, 009h, 000h, 009h, 000h, 000h
	. . .
5D3D	00 00 

5D3F	00 00 00 00              DB 000h, 000h, 000h, 000h, 000h, 000h, 000h, 02Dh, 009h, 009h
	. . .
5D47	09 09 

5D49	00 09 09 00              DB 000h, 009h, 009h, 000h, 009h, 009h, 009h, 01Bh, 009h, 009h
	. . .
5D51	09 09 

5D53	09 09 09 09              DB 009h, 009h, 009h, 009h, 000h, 009h, 009h, 009h, 009h, 009h
	. . .
5D5B	09 09 

5D5D	09 09 09 09              DB 009h, 009h, 009h, 009h, 009h, 009h, 009h, 009h, 000h, 009h
	. . .
5D65	00 09 

5D67	09 00 09 09              DB 009h, 000h, 009h, 009h, 009h, 01Bh, 000h, 000h, 024h, 024h
	. . .
5D6F	24 24 

5D71	24 24 24 24              DB 024h, 024h, 024h, 024h, 024h, 024h, 024h, 024h, 024h, 024h
	. . .
5D79	24 24 

5D7B	24 24 24 24              DB 024h, 024h, 024h, 024h, 024h, 024h, 024h, 024h, 024h, 024h
	. . .
5D83	24 24 

5D85	24 24 09 1B              DB 024h, 024h, 009h, 01Bh, 000h, 000h, 009h, 009h, 009h, 009h
	. . .
5D8D	09 09 

5D8F	00 09 09 09              DB 000h, 009h, 009h, 009h, 009h, 009h, 009h, 009h, 009h, 009h
	. . .
5D97	09 09 

5D99	09 09 09 09              DB 009h, 009h, 009h, 009h, 009h, 009h, 081h, 009h, 009h, 000h
	. . .
5DA1	09 00 

5DA3	09 1B 00 00              DB 009h, 01Bh, 000h, 000h, 012h, 000h, 02Dh, 009h, 000h, 009h
	. . .
5DAB	00 09 

5DAD	00 00 00 00              DB 000h, 000h, 000h, 000h, 000h, 000h, 000h, 000h, 000h, 02Dh
	. . .
5DB5	00 2D 

5DB7	09 09 09 09              DB 009h, 009h, 009h, 009h, 081h, 009h, 009h, 000h, 009h, 01Bh
	. . .
5DBF	09 1B 

5DC1	00 00 12 00              DB 000h, 000h, 012h, 000h, 02Dh, 009h, 000h, 009h, 000h, 000h
	. . .
5DC9	00 00 

5DCB	00 00 00 00              DB 000h, 000h, 000h, 000h, 000h, 000h, 000h, 000h, 009h, 009h
	. . .
5DD3	09 09 

5DD5	09 09 2D 09              DB 009h, 009h, 02Dh, 009h, 009h, 000h, 009h, 01Bh, 000h, 000h
	. . .
5DDD	00 00 

5DDF	12 00 00 09              DB 012h, 000h, 000h, 009h, 000h, 009h, 02Dh, 000h, 000h, 000h
	. . .
5DE7	00 00 

5DE9	00 00 00 00              DB 000h, 000h, 000h, 000h, 000h, 000h, 009h, 009h, 009h, 009h
	. . .
5DF1	09 09 

5DF3	2D 09 09 2D              DB 02Dh, 009h, 009h, 02Dh, 009h, 01Bh, 000h, 000h, 012h, 000h
	. . .
5DFB	12 00 

5DFD	00 09 00 09              DB 000h, 009h, 000h, 009h, 02Dh, 000h, 000h, 000h, 000h, 000h
	. . .
5E05	00 00 

5E07	00 00 00 00              DB 000h, 000h, 000h, 000h, 009h, 009h, 009h, 009h, 000h, 009h
	. . .
5E0F	00 09 

5E11	09 2D 09 1B              DB 009h, 02Dh, 009h, 01Bh, 000h, 000h, 012h, 000h, 000h, 009h
	. . .
5E19	00 09 

5E1B	00 09 00 00              DB 000h, 009h, 000h, 000h, 000h, 000h, 000h, 000h
	. . .
5E1F	00 00 00 00 

5E23	00 00 00 00     lofjt:   DB 000h, 000h, 000h, 000h, 009h, 009h, 02Dh, 009h, 000h, 009h
	. . .
5E2B	00 09 

5E2D	09 00 09 1B              DB 009h, 000h, 009h, 01Bh, 000h, 000h, 012h, 000h, 000h, 009h
	. . .
5E35	00 09 

5E37	00 09 00 00              DB 000h, 009h, 000h, 000h, 000h, 000h, 000h, 000h, 000h, 000h
	. . .
5E3F	00 00 

5E41	00 00 09 09              DB 000h, 000h, 009h, 009h, 02Dh, 009h, 000h, 009h, 009h, 000h
	. . .
5E49	09 00 

5E4B	09 1B 00 00              DB 009h, 01Bh, 000h, 000h, 012h, 000h, 000h, 000h, 000h, 024h
	. . .
5E53	00 24 

5E55	00 00 00 00              DB 000h, 000h, 000h, 000h, 000h, 000h, 000h, 000h, 000h, 000h
	. . .
5E5D	00 00 

5E5F	09 09 09 09              DB 009h, 009h, 009h, 009h, 000h, 009h, 009h, 000h, 009h, 01Bh
	. . .
5E67	09 1B 

5E69	00 00 12 00              DB 000h, 000h, 012h, 000h, 000h, 000h, 000h, 000h, 024h, 000h
	. . .
5E71	24 00 

5E73	00 00 00 00              DB 000h, 000h, 000h, 000h, 000h, 000h, 000h, 000h, 009h, 009h
	. . .
5E7B	09 09 

5E7D	09 09 00 09              DB 009h, 009h, 000h, 009h, 009h, 000h, 009h, 01Bh, 000h, 02Dh
	. . .
5E85	00 2D 

5E87	12 00 00 00              DB 012h, 000h, 000h, 000h, 000h, 000h, 000h, 024h, 000h, 000h
	. . .
5E8F	00 00 

5E91	00 00 00 00              DB 000h, 000h, 000h, 000h, 000h, 000h, 009h, 009h, 009h, 009h
	. . .
5E99	09 09 

5E9B	00 24 24 24              DB 000h, 024h, 024h, 024h, 009h, 01Bh, 000h, 000h, 012h, 000h
	. . .
5EA3	12 00 

5EA5	00 00 00 00              DB 000h, 000h, 000h, 000h, 000h, 000h, 024h, 000h, 000h, 000h
	. . .
5EAD	00 00 

5EAF	00 00 00 00              DB 000h, 000h, 000h, 000h, 009h, 009h, 009h, 009h, 081h, 009h
	. . .
5EB7	81 09 

5EB9	09 00 09 1B              DB 009h, 000h, 009h, 01Bh, 000h, 000h, 012h, 000h, 000h, 000h
	. . .
5EC1	00 00 

5EC3	00 00 00 00              DB 000h, 000h, 000h, 000h, 000h, 024h, 000h, 000h, 000h, 000h
	. . .
5ECB	00 00 

5ECD	00 00 09 09              DB 000h, 000h, 009h, 009h, 009h, 009h, 081h, 009h, 009h, 000h
	. . .
5ED5	09 00 

5ED7	09 1B 00 00              DB 009h, 01Bh, 000h, 000h, 012h, 000h, 000h, 000h, 000h, 000h
	. . .
5EDF	00 00 

5EE1	00 00 00 00              DB 000h, 000h, 000h, 000h, 024h, 000h, 000h, 000h, 000h, 024h
	. . .
5EE9	00 24 

5EEB	09 09 09 09              DB 009h, 009h, 009h, 009h, 081h, 009h, 009h, 000h, 009h, 01Bh
	. . .
5EF3	09 1B 

5EF5	00 00 12 00              DB 000h, 000h, 012h, 000h, 000h, 000h, 000h, 000h, 000h, 000h
	. . .
5EFD	00 00 

5EFF	00 00 00 24              DB 000h, 000h, 000h, 024h, 024h, 024h, 024h, 000h, 009h, 009h
	. . .
5F07	09 09 

5F09	09 09 2D 09              DB 009h, 009h, 02Dh, 009h, 009h, 000h, 009h, 01Bh, 000h, 000h
	. . .
5F11	00 00 

5F13	12 00 00 00              DB 012h, 000h, 000h, 000h, 000h, 000h, 000h, 000h, 000h, 000h
	. . .
5F1B	00 00 

5F1D	00 00 00 00              DB 000h, 000h, 000h, 000h, 024h, 000h, 009h, 009h, 009h, 009h
	. . .
5F25	09 09 

5F27	2D 09 09 00              DB 02Dh, 009h, 009h, 000h, 009h, 01Bh, 000h, 000h, 012h, 000h
	. . .
5F2F	12 00 

5F31	00 00 00 00              DB 000h, 000h, 000h, 000h, 000h, 000h, 000h, 000h, 024h, 024h
	. . .
5F39	24 24 

5F3B	24 00 24 00              DB 024h, 000h, 024h, 000h, 009h, 009h, 009h, 009h, 02Dh, 009h
	. . .
5F43	2D 09 

5F45	09 00 09 1B              DB 009h, 000h, 009h, 01Bh, 000h, 000h, 012h, 000h, 000h, 000h
	. . .
5F4D	00 00 

5F4F	00 00 00 00              DB 000h, 000h, 000h, 000h, 000h, 000h, 000h, 024h, 024h, 000h
	. . .
5F57	24 00 

5F59	24 00 24 09              DB 024h, 000h, 024h, 009h, 009h, 009h, 081h, 009h, 009h, 000h
	. . .
5F61	09 00 

5F63	09 1B 00 00              DB 009h, 01Bh, 000h, 000h, 012h, 000h, 000h, 000h, 000h, 000h
	. . .
5F6B	00 00 

5F6D	00 00 00 00              DB 000h, 000h, 000h, 000h, 024h, 000h, 024h, 000h, 000h, 000h
	. . .
5F75	00 00 

5F77	2D 09 09 09              DB 02Dh, 009h, 009h, 009h, 081h, 009h, 009h, 000h, 009h, 01Bh
	. . .
5F7F	09 1B 

5F81	00 00 12 00              DB 000h, 000h, 012h, 000h, 000h, 000h, 02Dh, 000h, 000h, 000h
	. . .
5F89	00 00 

5F8B	00 24 00 00              DB 000h, 024h, 000h, 000h, 000h, 000h, 000h, 000h, 000h, 024h
	. . .
5F93	00 24 

5F95	09 09 09 09              DB 009h, 009h, 009h, 009h, 009h, 02Dh, 009h, 01Bh, 000h, 000h
	. . .
5F9D	00 00 

5F9F	09 00 09 09              DB 009h, 000h, 009h, 009h, 009h, 000h, 000h, 000h, 024h, 000h
	. . .
5FA7	24 00 

5FA9	00 00 00 00              DB 000h, 000h, 000h, 000h, 000h, 000h, 000h, 02Dh, 009h, 009h
	. . .
5FB1	09 09 

5FB3	09 09 09 2D              DB 009h, 009h, 009h, 02Dh, 009h, 01Bh, 000h, 000h, 012h, 000h
	. . .
5FBB	12 00 

5FBD	2D 2D 09 2D              DB 02Dh, 02Dh, 009h, 02Dh, 02Dh, 009h, 000h, 000h, 000h, 000h
	. . .
5FC5	00 00 

5FC7	00 00 00 00              DB 000h, 000h, 000h, 000h, 000h, 000h, 024h, 009h, 009h, 009h
	. . .
5FCF	09 09 

5FD1	09 09 09 1B              DB 009h, 009h, 009h, 01Bh, 000h, 000h, 012h, 000h, 02Dh, 02Dh
	. . .
5FD9	2D 2D 

5FDB	09 2D 2D 09              DB 009h, 02Dh, 02Dh, 009h, 000h, 000h, 000h, 000h, 000h, 000h
	. . .
5FE3	00 00 

5FE5	00 00 00 00              DB 000h, 000h, 000h, 000h, 02Dh, 009h, 009h, 009h, 009h, 009h
	. . .
5FED	09 09 

5FEF	09 1B 00 00              DB 009h, 01Bh, 000h, 000h, 02Dh, 009h, 009h, 009h, 009h, 009h
	. . .
5FF7	09 09 

5FF9	09 09 00 00              DB 009h, 009h, 000h, 000h, 000h, 000h, 000h, 000h, 000h, 000h
	. . .
6001	00 00 

6003	00 00 00 24              DB 000h, 000h, 000h, 024h, 009h, 009h, 009h, 009h, 009h, 01Bh
	. . .
600B	09 1B 

600D	00 00 00 09              DB 000h, 000h, 000h, 009h, 02Dh, 02Dh, 009h, 02Dh, 02Dh, 000h
	. . .
6015	2D 00 

6017	00 00 00 00              DB 000h, 000h, 000h, 000h, 000h, 000h, 000h, 000h, 000h, 000h
	. . .
601F	00 00 

6021	00 2D 09 09              DB 000h, 02Dh, 009h, 009h, 009h, 009h, 009h, 01Bh, 000h, 000h
	. . .
6029	00 00 

602B	00 09 2D 2D              DB 000h, 009h, 02Dh, 02Dh, 009h, 02Dh, 02Dh, 000h, 000h, 000h
	. . .
6033	00 00 

6035	00 00 00 00              DB 000h, 000h, 000h, 000h, 000h, 000h, 000h, 000h, 000h, 000h
	. . .
603D	00 00 

603F	24 09 09 09              DB 024h, 009h, 009h, 009h, 009h, 01Bh, 000h, 000h, 000h, 000h
	. . .
6047	00 00 

6049	00 00 09 09              DB 000h, 000h, 009h, 009h, 009h, 000h, 000h, 000h, 000h, 000h
	. . .
6051	00 00 

6053	00 00 00 00              DB 000h, 000h, 000h, 000h, 000h, 000h, 000h, 000h, 02Dh, 009h
	. . .
605B	2D 09 

605D	09 09 09 1B              DB 009h, 009h, 009h, 01Bh, 000h, 000h, 000h, 000h, 000h, 000h
	. . .
6065	00 00 

6067	2D 00 00 00              DB 02Dh, 000h, 000h, 000h, 000h, 000h, 000h, 000h, 000h, 000h
	. . .
606F	00 00 

6071	00 00 00 00              DB 000h, 000h, 000h, 000h, 000h, 000h, 000h, 024h, 009h, 009h
	. . .
6079	09 09 

607B	09 1B 00 00              DB 009h, 01Bh, 000h, 000h, 000h, 000h, 000h, 000h, 000h, 000h
	. . .
6083	00 00 

6085	00 00 00 00              DB 000h, 000h, 000h, 000h, 000h, 000h, 000h, 000h, 000h, 000h
	. . .
608D	00 00 

608F	00 00 00 00              DB 000h, 000h, 000h, 000h, 000h, 02Dh, 009h, 009h, 009h, 009h
	. . .
6097	09 09 

6099	09 09 09 09              DB 009h, 009h, 009h, 009h, 009h, 009h, 009h, 009h, 009h, 009h
	. . .
60A1	09 09 

60A3	09 09 09 09              DB 009h, 009h, 009h, 009h, 009h, 009h, 009h, 009h, 009h, 009h
	. . .
60AB	09 09 

60AD	09 09 09 09              DB 009h, 009h, 009h, 009h, 009h, 009h, 009h, 0FEh, 0FAh, 000h
	. . .
60B5	FA 00 

60B7	00 DF 00 00              DB 000h, 0DFh, 000h, 000h, 0FAh, 000h, 000h, 0DFh, 000h, 0FAh
	. . .
60BF	00 FA 

60C1	00 C6 00 00              DB 000h, 0C6h, 000h, 000h, 0FAh, 000h, 000h, 0DFh, 000h, 000h
	. . .
60C9	00 00 

60CB	FA 00 00 DF              DB 0FAh, 000h, 000h, 0DFh, 000h, 0FAh, 000h, 0C6h, 000h, 000h
	. . .
60D3	00 00 

60D5	DF 00 C6 00              DB 0DFh, 000h, 0C6h, 000h, 0DFh, 000h, 0DFh, 000h, 0C6h, 000h
	. . .
60DD	C6 00 

60DF	DF 00 00 DF              DB 0DFh, 000h, 000h, 0DFh, 000h, 0BAh, 000h, 0C6h, 000h, 000h
	. . .
60E7	00 00 

60E9	C6 00 DF 00              DB 0C6h, 000h, 0DFh, 000h, 0FAh, 000h, 000h, 000h, 0FFh, 000h
	. . .
60F1	FF 00 

60F3	00 00 00 00              DB 000h, 000h, 000h, 000h, 000h, 000h, 000h, 000h, 000h, 000h
	. . .
60FB	00 00 

60FD	00 00 00 09              DB 000h, 000h, 000h, 009h, 009h, 009h, 009h, 009h, 009h, 009h
	. . .
6105	09 09 

6107	09 09 09 09              DB 009h, 009h, 009h, 009h, 009h, 009h, 009h, 009h, 009h, 009h
	. . .
610F	09 09 

6111	09 09 09 09              DB 009h, 009h, 009h, 009h, 009h, 009h, 009h, 009h, 009h, 009h
	. . .
6119	09 09 

611B	09 1B 00 00              DB 009h, 01Bh, 000h, 000h, 024h, 024h, 024h, 024h, 024h, 024h
	. . .
6123	24 24 

6125	24 24 24 24              DB 024h, 024h, 024h, 024h, 024h, 024h, 024h, 024h, 024h, 024h
	. . .
612D	24 24 

612F	24 24 24 24              DB 024h, 024h, 024h, 024h, 024h, 024h, 024h, 024h, 009h, 01Bh
	. . .
6137	09 1B 

6139	00 00 24 00              DB 000h, 000h, 024h, 000h, 000h, 000h, 000h, 000h, 000h, 000h
	. . .
6141	00 00 

6143	00 00 00 00              DB 000h, 000h, 000h, 000h, 000h, 000h, 000h, 000h, 000h, 000h
	. . .
614B	00 00 

614D	00 00 00 00              DB 000h, 000h, 000h, 000h, 000h, 000h, 009h, 01Bh, 000h, 000h
	. . .
6155	00 00 

6157	24 00 00 00              DB 024h, 000h, 000h, 000h, 000h, 000h, 000h, 000h, 000h, 000h
	. . .
615F	00 00 

6161	00 00 00 00              DB 000h, 000h, 000h, 000h, 000h, 000h, 000h, 000h, 000h, 000h
	. . .
6169	00 00 

616B	00 00 00 00              DB 000h, 000h, 000h, 000h, 009h, 01Bh, 000h, 000h, 024h, 024h
	. . .
6173	24 24 

6175	00 00 00 00              DB 000h, 000h, 000h, 000h, 000h, 000h, 000h, 000h, 000h, 000h
	. . .
617D	00 00 

617F	00 00 00 00              DB 000h, 000h, 000h, 000h, 000h, 000h, 036h, 024h, 024h, 024h
	. . .
6187	24 24 

6189	24 24 09 1B              DB 024h, 024h, 009h, 01Bh, 000h, 000h, 024h, 000h, 000h, 000h
	. . .
6191	00 00 

6193	00 00 00 00              DB 000h, 000h, 000h, 000h, 000h, 000h, 000h, 000h, 000h, 000h
	. . .
619B	00 00 

619D	00 00 00 00              DB 000h, 000h, 000h, 000h, 000h, 000h, 000h, 000h, 000h, 000h
	. . .
61A5	00 00 

61A7	09 1B 00 00              DB 009h, 01Bh, 000h, 000h, 024h, 024h, 000h, 000h, 000h, 000h
	. . .
61AF	00 00 

61B1	09 09 09 09              DB 009h, 009h, 009h, 009h, 009h, 009h, 009h, 000h, 000h, 000h
	. . .
61B9	00 00 

61BB	00 00 00 00              DB 000h, 000h, 000h, 000h, 000h, 000h, 000h, 000h, 009h, 01Bh
	. . .
61C3	09 1B 

61C5	00 00 24 00              DB 000h, 000h, 024h, 000h, 000h, 000h, 000h, 000h, 009h, 009h
	. . .
61CD	09 09 

61CF	09 09 09 09              DB 009h, 009h, 009h, 009h, 009h, 000h, 000h, 000h, 000h, 000h
	. . .
61D7	00 00 

61D9	00 00 00 00              DB 000h, 000h, 000h, 000h, 000h, 000h, 009h, 01Bh, 000h, 000h
	. . .
61E1	00 00 

61E3	24 24 00 00              DB 024h, 024h, 000h, 000h, 000h, 009h, 009h, 009h, 009h, 009h
	. . .
61EB	09 09 

61ED	09 09 09 09              DB 009h, 009h, 009h, 009h, 000h, 000h, 000h, 000h, 036h, 024h
	. . .
61F5	36 24 

61F7	24 24 24 24              DB 024h, 024h, 024h, 024h, 009h, 01Bh, 000h, 000h, 024h, 000h
	. . .
61FF	24 00 

6201	00 00 00 09              DB 000h, 000h, 000h, 009h, 009h, 009h, 009h, 009h, 009h, 009h
	. . .
6209	09 09 

620B	09 09 00 00              DB 009h, 009h, 000h, 000h, 000h, 000h, 000h, 000h, 000h, 000h
	. . .
6213	00 00 

6215	00 00 09 1B              DB 000h, 000h, 009h, 01Bh, 000h, 000h, 024h, 024h, 000h, 000h
	. . .
621D	00 00 

621F	09 09 09 2D              DB 009h, 009h, 009h, 02Dh, 02Dh, 02Dh, 02Dh, 02Dh, 009h, 009h
	. . .
6227	09 09 

6229	09 00 00 00              DB 009h, 000h, 000h, 000h, 000h, 000h, 000h, 000h, 000h, 000h
	. . .
6231	00 00 

6233	09 1B 00 00              DB 009h, 01Bh, 000h, 000h, 024h, 000h, 000h, 000h, 009h, 009h
	. . .
623B	09 09 

623D	09 2D 2D 2D              DB 009h, 02Dh, 02Dh, 02Dh, 02Dh, 02Dh, 009h, 009h, 009h, 000h
	. . .
6245	09 00 

6247	00 00 00 00              DB 000h, 000h, 000h, 000h, 000h, 000h, 000h, 000h, 009h, 01Bh
	. . .
624F	09 1B 

6251	00 00 24 24              DB 000h, 000h, 024h, 024h, 000h, 009h, 009h, 009h, 009h, 02Dh
	. . .
6259	09 2D 

625B	2D 2D 2D 2D              DB 02Dh, 02Dh, 02Dh, 02Dh, 009h, 009h, 009h, 009h, 000h, 000h
	. . .
6263	00 00 

6265	36 24 24 24              DB 036h, 024h, 024h, 024h, 024h, 024h, 009h, 01Bh, 000h, 000h
	. . .
626D	00 00 

626F	24 00 00 24              DB 024h, 000h, 000h, 024h, 024h, 024h, 024h, 02Dh, 02Dh, 02Dh
	. . .
6277	2D 2D 

6279	2D 2D 09 09              DB 02Dh, 02Dh, 009h, 009h, 009h, 009h, 000h, 000h, 000h, 000h
	. . .
6281	00 00 

6283	00 00 00 00              DB 000h, 000h, 000h, 000h, 009h, 01Bh, 000h, 000h, 024h, 000h
	. . .
628B	24 00 

628D	09 09 09 09              DB 009h, 009h, 009h, 009h, 009h, 009h, 009h, 009h, 009h, 009h
	. . .
6295	09 09 

6297	09 09 09 09              DB 009h, 009h, 009h, 009h, 009h, 009h, 000h, 000h, 081h, 000h
	. . .
629F	81 00 

62A1	00 00 09 1B              DB 000h, 000h, 009h, 01Bh, 000h, 000h, 024h, 000h, 009h, 009h
	. . .
62A9	09 09 

62AB	09 09 09 09              DB 009h, 009h, 009h, 009h, 009h, 009h, 009h, 009h, 009h, 009h
	. . .
62B3	09 09 

62B5	09 09 09 09              DB 009h, 009h, 009h, 009h, 009h, 009h, 000h, 000h, 000h, 000h
	. . .
62BD	00 00 

62BF	09 1B 00 00              DB 009h, 01Bh, 000h, 000h, 024h, 000h, 009h, 009h, 009h, 009h
	. . .
62C7	09 09 

62C9	09 09 09 09              DB 009h, 009h, 009h, 009h, 009h, 009h, 009h, 009h, 009h, 009h
	. . .
62D1	09 09 

62D3	09 09 00 24              DB 009h, 009h, 000h, 024h, 024h, 024h, 024h, 024h, 009h, 01Bh
	. . .
62DB	09 1B 

62DD	00 00 24 00              DB 000h, 000h, 024h, 000h, 009h, 009h, 009h, 009h, 009h, 009h
	. . .
62E5	09 09 

62E7	09 09 09 09              DB 009h, 009h, 009h, 009h, 009h, 009h, 009h, 009h, 009h, 009h
	. . .
62EF	09 09 

62F1	00 2D 09 09              DB 000h, 02Dh, 009h, 009h, 000h, 000h, 009h, 01Bh, 000h, 000h
	. . .
62F9	00 00 

62FB	24 00 09 09              DB 024h, 000h, 009h, 009h, 009h, 009h, 009h, 009h, 009h, 009h
	. . .
6303	09 09 

6305	09 09 09 00              DB 009h, 009h, 009h, 000h, 024h, 024h, 024h, 024h, 024h, 024h
	. . .
630D	24 24 

630F	24 09 00 00              DB 024h, 009h, 000h, 000h, 009h, 01Bh, 000h, 000h, 024h, 000h
	. . .
6317	24 00 

6319	09 09 09 09              DB 009h, 009h, 009h, 009h, 009h, 009h, 009h, 009h, 009h, 009h
	. . .
6321	09 09 

6323	00 2D 09 09              DB 000h, 02Dh, 009h, 009h, 009h, 000h, 000h, 02Dh, 024h, 009h
	. . .
632B	24 09 

632D	00 00 09 1B              DB 000h, 000h, 009h, 01Bh, 000h, 000h, 024h, 000h, 009h, 009h
	. . .
6335	09 09 

6337	09 09 09 09              DB 009h, 009h, 009h, 009h, 009h, 009h, 009h, 000h, 000h, 02Dh
	. . .
633F	00 2D 

6341	09 09 09 00              DB 009h, 009h, 009h, 000h, 000h, 02Dh, 024h, 009h, 000h, 000h
	. . .
6349	00 00 

634B	09 1B 00 00              DB 009h, 01Bh, 000h, 000h, 024h, 000h, 009h, 009h, 009h, 009h
	. . .
6353	09 09 

6355	09 09 09 09              DB 009h, 009h, 009h, 009h, 009h, 000h, 000h, 02Dh, 009h, 009h
	. . .
635D	09 09 

635F	09 00 00 2D              DB 009h, 000h, 000h, 02Dh, 024h, 009h, 000h, 000h, 009h, 01Bh
	. . .
6367	09 1B 

6369	00 00 24 00              DB 000h, 000h, 024h, 000h, 009h, 009h, 009h, 009h, 009h, 009h
	. . .
6371	09 09 

6373	09 09 09 09              DB 009h, 009h, 009h, 009h, 000h, 02Dh, 009h, 009h, 009h, 000h
	. . .
637B	09 00 

637D	00 2D 24 09              DB 000h, 02Dh, 024h, 009h, 000h, 000h, 009h, 01Bh, 000h, 000h
	. . .
6385	00 00 

6387	24 00 09 09              DB 024h, 000h, 009h, 009h, 009h, 009h, 009h, 009h, 009h, 009h
	. . .
638F	09 09 

6391	09 09 09 00              DB 009h, 009h, 009h, 000h, 024h, 024h, 024h, 024h, 024h, 024h
	. . .
6399	24 24 

639B	24 09 00 00              DB 024h, 009h, 000h, 000h, 009h, 01Bh, 000h, 000h, 024h, 000h
	. . .
63A3	24 00 

63A5	09 09 09 09              DB 009h, 009h, 009h, 009h, 009h, 009h, 009h, 009h, 009h, 009h
	. . .
63AD	09 09 

63AF	09 09 09 09              DB 009h, 009h, 009h, 009h, 009h, 009h, 000h, 02Dh, 009h, 009h
	. . .
63B7	09 09 

63B9	00 00 09 1B              DB 000h, 000h, 009h, 01Bh, 000h, 000h, 024h, 000h, 009h, 009h
	. . .
63C1	09 09 

63C3	09 09 09 09              DB 009h, 009h, 009h, 009h, 009h, 009h, 009h, 009h, 009h, 009h
	. . .
63CB	09 09 

63CD	09 09 09 09              DB 009h, 009h, 009h, 009h, 000h, 024h, 024h, 024h, 024h, 024h
	. . .
63D5	24 24 

63D7	09 1B 00 00              DB 009h, 01Bh, 000h, 000h, 024h, 000h, 009h, 009h, 009h, 009h
	. . .
63DF	09 09 

63E1	09 09 09 09              DB 009h, 009h, 009h, 009h, 009h, 009h, 009h, 009h, 009h, 009h
	. . .
63E9	09 09 

63EB	09 09 09 09              DB 009h, 009h, 009h, 009h, 000h, 000h, 000h, 000h, 009h, 01Bh
	. . .
63F3	09 1B 

63F5	00 00 24 00              DB 000h, 000h, 024h, 000h, 009h, 009h, 009h, 009h, 009h, 009h
	. . .
63FD	09 09 

63FF	09 09 09 09              DB 009h, 009h, 009h, 009h, 009h, 009h, 009h, 009h, 009h, 009h
	. . .
6407	09 09 

6409	00 00 00 00              DB 000h, 000h, 000h, 000h, 000h, 000h, 009h, 01Bh, 000h, 000h
	. . .
6411	00 00 

6413	24 00 00 24              DB 024h, 000h, 000h, 024h, 024h, 024h, 024h, 02Dh, 02Dh, 02Dh
	. . .
641B	2D 2D 

641D	2D 2D 09 09              DB 02Dh, 02Dh, 009h, 009h, 009h, 009h, 000h, 000h, 000h, 000h
	. . .
6425	00 00 

6427	00 00 00 00              DB 000h, 000h, 000h, 000h, 009h, 01Bh, 000h, 000h, 024h, 024h
	. . .
642F	24 24 

6431	00 09 09 09              DB 000h, 009h, 009h, 009h, 009h, 02Dh, 02Dh, 02Dh, 02Dh, 02Dh
	. . .
6439	2D 2D 

643B	09 09 09 09              DB 009h, 009h, 009h, 009h, 000h, 000h, 036h, 03Fh, 024h, 024h
	. . .
6443	24 24 

6445	24 24 09 1B              DB 024h, 024h, 009h, 01Bh, 000h, 000h, 024h, 000h, 000h, 000h
	. . .
644D	00 00 

644F	09 09 09 2D              DB 009h, 009h, 009h, 02Dh, 02Dh, 02Dh, 02Dh, 02Dh, 009h, 009h
	. . .
6457	09 09 

6459	09 00 00 00              DB 009h, 000h, 000h, 000h, 000h, 000h, 000h, 000h, 000h, 000h
	. . .
6461	00 00 

6463	09 1B 00 00              DB 009h, 01Bh, 000h, 000h, 024h, 024h, 000h, 000h, 009h, 009h
	. . .
646B	09 09 

646D	09 2D 2D 2D              DB 009h, 02Dh, 02Dh, 02Dh, 02Dh, 02Dh, 009h, 009h, 009h, 000h
	. . .
6475	09 00 

6477	00 00 00 00              DB 000h, 000h, 000h, 000h, 000h, 000h, 000h, 000h, 009h, 01Bh
	. . .
647F	09 1B 

6481	00 00 24 00              DB 000h, 000h, 024h, 000h, 000h, 000h, 000h, 009h, 009h, 009h
	. . .
6489	09 09 

648B	09 09 09 09              DB 009h, 009h, 009h, 009h, 009h, 009h, 000h, 000h, 000h, 000h
	. . .
6493	00 00 

6495	00 00 00 00              DB 000h, 000h, 000h, 000h, 000h, 000h, 009h, 01Bh, 000h, 000h
	. . .
649D	00 00 

649F	24 24 00 00              DB 024h, 024h, 000h, 000h, 000h, 009h, 009h, 009h, 009h, 009h
	. . .
64A7	09 09 

64A9	09 09 09 09              DB 009h, 009h, 009h, 009h, 000h, 000h, 000h, 000h, 036h, 024h
	. . .
64B1	36 24 

64B3	24 24 24 24              DB 024h, 024h, 024h, 024h, 009h, 01Bh, 000h, 000h, 024h, 000h
	. . .
64BB	24 00 

64BD	00 00 00 00              DB 000h, 000h, 000h, 000h, 009h, 009h, 009h, 009h, 009h, 009h
	. . .
64C5	09 09 

64C7	09 00 00 00              DB 009h, 000h, 000h, 000h, 000h, 000h, 000h, 000h, 000h, 000h
	. . .
64CF	00 00 

64D1	00 00 09 1B              DB 000h, 000h, 009h, 01Bh, 000h, 000h, 024h, 024h, 000h, 000h
	. . .
64D9	00 00 

64DB	00 00 09 09              DB 000h, 000h, 009h, 009h, 009h, 009h, 009h, 009h, 009h, 000h
	. . .
64E3	09 00 

64E5	00 00 00 00              DB 000h, 000h, 000h, 000h, 000h, 000h, 000h, 000h, 000h, 000h
	. . .
64ED	00 00 

64EF	09 1B 00 00              DB 009h, 01Bh, 000h, 000h, 024h, 000h, 000h, 000h, 000h, 000h
	. . .
64F7	00 00 

64F9	00 00 00 00              DB 000h, 000h, 000h, 000h, 000h, 000h, 000h, 000h, 000h, 000h
	. . .
6501	00 00 

6503	00 00 00 00              DB 000h, 000h, 000h, 000h, 000h, 000h, 000h, 000h, 009h, 01Bh
	. . .
650B	09 1B 

650D	00 00 24 24              DB 000h, 000h, 024h, 024h, 000h, 000h, 000h, 000h, 000h, 000h
	. . .
6515	00 00 

6517	00 00 00 00              DB 000h, 000h, 000h, 000h, 000h, 000h, 000h, 000h, 000h, 000h
	. . .
651F	00 00 

6521	36 24 24 24              DB 036h, 024h, 024h, 024h, 024h, 024h, 009h, 01Bh, 000h, 000h
	. . .
6529	00 00 

652B	24 00 00 00              DB 024h, 000h, 000h, 000h, 000h, 000h, 000h, 000h, 000h, 000h
	. . .
6533	00 00 

6535	00 00 00 00              DB 000h, 000h, 000h, 000h, 000h, 000h, 000h, 000h, 000h, 000h
	. . .
653D	00 00 

653F	00 00 00 00              DB 000h, 000h, 000h, 000h, 009h, 01Bh, 000h, 000h, 024h, 024h
	. . .
6547	24 24 

6549	00 00 00 00              DB 000h, 000h, 000h, 000h, 000h, 000h, 000h, 000h, 000h, 000h
	. . .
6551	00 00 

6553	00 00 00 00              DB 000h, 000h, 000h, 000h, 000h, 000h, 000h, 000h, 000h, 000h
	. . .
655B	00 00 

655D	00 00 09 1B              DB 000h, 000h, 009h, 01Bh, 000h, 000h, 024h, 000h, 000h, 000h
	. . .
6565	00 00 

6567	00 00 00 00              DB 000h, 000h, 000h, 000h, 000h, 000h, 000h, 000h, 000h, 000h
	. . .
656F	00 00 

6571	00 00 00 00              DB 000h, 000h, 000h, 000h, 000h, 000h, 000h, 000h, 000h, 000h
	. . .
6579	00 00 

657B	09 1B 00 00              DB 009h, 01Bh, 000h, 000h, 024h, 024h, 024h, 024h, 024h, 024h
	. . .
6583	24 24 

6585	24 24 24 24              DB 024h, 024h, 024h, 024h, 024h, 024h, 024h, 024h, 024h, 024h
	. . .
658D	24 24 

658F	24 24 24 24              DB 024h, 024h, 024h, 024h, 024h, 024h, 024h, 024h, 009h, 009h
	. . .
6597	09 09 

6599	09 09 09 09              DB 009h, 009h, 009h, 009h, 009h, 009h, 009h, 009h, 009h, 009h
	. . .
65A1	09 09 

65A3	09 09 09 09              DB 009h, 009h, 009h, 009h, 009h, 009h, 009h, 009h, 009h, 009h
	. . .
65AB	09 09 

65AD	09 09 09 09              DB 009h, 009h, 009h, 009h, 009h, 009h, 009h, 0FEh, 0FAh, 0FAh
	. . .
65B5	FA FA 

65B7	FA FA FA FA              DB 0FAh, 0FAh, 0FAh, 0FAh, 0FAh, 0FAh, 0FAh, 0FAh, 0FAh, 0DFh
	. . .
65BF	FA DF 

65C1	DF DF DF DF              DB 0DFh, 0DFh, 0DFh, 0DFh, 0DFh, 0DFh, 0DFh, 0DFh, 0DFh, 0DFh
	. . .
65C9	DF DF 

65CB	DF DF DF DF              DB 0DFh, 0DFh, 0DFh, 0DFh, 0DFh, 0FAh, 0FAh, 0FAh, 0FAh, 0FAh
	. . .
65D3	FA FA 

65D5	FA FA FA FA              DB 0FAh, 0FAh, 0FAh, 0FAh, 0FAh, 0FAh, 0FAh, 0FAh, 0C6h, 0C6h
	. . .
65DD	C6 C6 

65DF	C6 C6 C6 C6              DB 0C6h, 0C6h, 0C6h, 0C6h, 0C6h, 0C6h, 0C6h, 0C6h, 0C6h, 0C6h
	. . .
65E7	C6 C6 

65E9	C6 DF DF DF              DB 0C6h, 0DFh, 0DFh, 0DFh, 0DFh, 0DFh, 0DFh, 0DFh, 0DFh, 0DFh
	. . .
65F1	DF DF 

65F3	DF FF 00 00              DB 0DFh, 0FFh, 000h, 000h, 000h, 000h, 000h, 000h, 000h, 000h
	. . .
65FB	00 00 

65FD	00 00 00 00              DB 000h, 000h, 000h, 000h, 090h, 094h, 04Eh, 052h, 04Ah, 04Ah
	. . .
6605	4A 4A 

6607	90 8C 90 94              DB 090h, 08Ch, 090h, 094h, 04Eh, 052h, 04Eh, 04Ah, 090h, 0CCh
	. . .
660F	90 CC 

6611	90 94 4E 12              DB 090h, 094h, 04Eh, 012h, 04Eh, 04Ah, 090h, 0CCh, 090h, 094h
	. . .
6619	90 94 

661B	4E 52 4E 4A              DB 04Eh, 052h, 04Eh, 04Ah, 090h, 08Ch, 090h, 094h, 008h, 002h
	. . .
6623	08 02 

6625	42 68 11 08              DB 042h, 068h, 011h, 008h, 098h, 08Ch, 0FDh, 007h, 0EDh, 007h
	. . .
662D	ED 07 

662F	98 8C 91 02              DB 098h, 08Ch, 091h, 002h, 042h, 068h, 011h, 008h, 098h, 08Ch
	. . .
6637	98 8C 

6639	FD 07 ED 07              DB 0FDh, 007h, 0EDh, 007h, 098h, 08Ch, 091h, 002h, 042h, 068h
	. . .
6641	42 68 

6643	11 08 98 8C              DB 011h, 008h, 098h, 08Ch, 0FDh, 007h, 0EDh, 007h, 098h, 08Ch
	. . .
664B	98 8C 

664D	91 02 42 68              DB 091h, 002h, 042h, 068h, 011h, 008h, 098h, 08Ch, 0FDh, 007h
	. . .
6655	FD 07 

6657	ED 07 98 8C              DB 0EDh, 007h, 098h, 08Ch, 091h, 002h, 042h, 068h, 011h, 008h
	. . .
665F	11 08 

6661	98 8C FD 07              DB 098h, 08Ch, 0FDh, 007h, 0EDh, 007h, 098h, 08Ch, 091h, 002h
	. . .
6669	91 02 

666B	42 68 11 08              DB 042h, 068h, 011h, 008h, 098h, 08Ch, 0FDh, 007h, 0EDh, 007h
	. . .
6673	ED 07 

6675	98 8C 91 02              DB 098h, 08Ch, 091h, 002h, 042h, 068h, 011h, 008h, 098h, 08Ch
	. . .
667D	98 8C 

667F	FD 07 ED 07              DB 0FDh, 007h, 0EDh, 007h, 098h, 08Ch, 091h, 002h, 042h, 068h
	. . .
6687	42 68 

6689	11 08 98 8C              DB 011h, 008h, 098h, 08Ch, 0FDh, 007h, 0EDh, 007h, 0FFh, 0FFh
	. . .
6691	FF FF 

6693	91 02 42 68              DB 091h, 002h, 042h, 068h, 011h, 008h, 098h, 08Ch, 0FDh, 007h
	. . .
669B	FD 07 

669D	ED 07 98 8C              DB 0EDh, 007h, 098h, 08Ch, 091h, 002h, 042h, 068h, 011h, 008h
	. . .
66A5	11 08 

66A7	98 8C FD 07              DB 098h, 08Ch, 0FDh, 007h, 0EDh, 007h, 098h, 08Ch, 091h, 002h
	. . .
66AF	91 02 

66B1	42 68 11 08              DB 042h, 068h, 011h, 008h, 098h, 08Ch, 0FDh, 007h, 0EDh, 007h
	. . .
66B9	ED 07 

66BB	98 8C 91 02              DB 098h, 08Ch, 091h, 002h, 042h, 068h, 011h, 008h, 098h, 08Ch
	. . .
66C3	98 8C 

66C5	FD 07 ED 07              DB 0FDh, 007h, 0EDh, 007h, 098h, 08Ch, 091h, 002h, 042h, 068h
	. . .
66CD	42 68 

66CF	11 08 98 8C              DB 011h, 008h, 098h, 08Ch, 0FDh, 007h, 0EDh, 007h, 098h, 08Ch
	. . .
66D7	98 8C 

66D9	91 02 42 68              DB 091h, 002h, 042h, 068h, 011h, 008h, 098h, 08Ch, 0FDh, 007h
	. . .
66E1	FD 07 

66E3	ED 07 98 8C              DB 0EDh, 007h, 098h, 08Ch, 091h, 002h, 042h, 068h, 011h, 008h
	. . .
66EB	11 08 

66ED	98 8C FD 07              DB 098h, 08Ch, 0FDh, 007h, 0EDh, 007h, 098h, 08Ch, 091h, 002h
	. . .
66F5	91 02 

66F7	42 68 11 08              DB 042h, 068h, 011h, 008h, 098h, 08Ch, 0FDh, 007h, 0EDh, 007h
	. . .
66FF	ED 07 

6701	98 8C 91 02              DB 098h, 08Ch, 091h, 002h, 042h, 068h, 011h, 008h, 098h, 08Ch
	. . .
6709	98 8C 

670B	FD 07 ED 07              DB 0FDh, 007h, 0EDh, 007h, 098h, 08Ch, 091h, 002h, 042h, 068h
	. . .
6713	42 68 

6715	11 08 98 8C              DB 011h, 008h, 098h, 08Ch, 0FDh, 007h, 0EDh, 007h, 098h, 08Ch
	. . .
671D	98 8C 

671F	91 02 42 68              DB 091h, 002h, 042h, 068h, 011h, 008h, 098h, 08Ch, 0FDh, 007h
	. . .
6727	FD 07 

6729	ED 07 98 8C              DB 0EDh, 007h, 098h, 08Ch, 091h, 002h, 042h, 068h, 011h, 008h
	. . .
6731	11 08 

6733	98 8C FD 07              DB 098h, 08Ch, 0FDh, 007h, 0EDh, 007h, 098h, 08Ch, 091h, 002h
	. . .
673B	91 02 

673D	42 68 11 08              DB 042h, 068h, 011h, 008h, 098h, 08Ch, 0FDh, 007h, 0EDh, 007h
	. . .
6745	ED 07 

6747	98 8C 91 02              DB 098h, 08Ch, 091h, 002h, 042h, 068h, 011h, 008h, 098h, 08Ch
	. . .
674F	98 8C 

6751	FD 07 ED 07              DB 0FDh, 007h, 0EDh, 007h, 098h, 08Ch, 091h, 002h, 042h, 068h
	. . .
6759	42 68 

675B	11 08 98 8C              DB 011h, 008h, 098h, 08Ch, 0FDh, 007h, 0EDh, 007h, 098h, 08Ch
	. . .
6763	98 8C 

6765	91 02 42 68              DB 091h, 002h, 042h, 068h, 011h, 008h, 098h, 08Ch, 0FDh, 007h
	. . .
676D	FD 07 

676F	ED 07 98 8C              DB 0EDh, 007h, 098h, 08Ch, 091h, 002h, 042h, 068h, 011h, 008h
	. . .
6777	11 08 

6779	98 8C FD 07              DB 098h, 08Ch, 0FDh, 007h, 0EDh, 007h, 098h, 08Ch, 091h, 002h
	. . .
6781	91 02 

6783	42 68 11 08              DB 042h, 068h, 011h, 008h, 098h, 08Ch, 0FDh, 007h, 0EDh, 007h
	. . .
678B	ED 07 

678D	98 8C 91 02              DB 098h, 08Ch, 091h, 002h, 0FFh, 0FFh, 011h, 008h, 098h, 08Ch
	. . .
6795	98 8C 

6797	FD 07 ED 07              DB 0FDh, 007h, 0EDh, 007h, 098h, 08Ch, 091h, 002h, 042h, 068h
	. . .
679F	42 68 

67A1	11 08 98 8C              DB 011h, 008h, 098h, 08Ch, 0FDh, 007h, 0EDh, 007h, 098h, 08Ch
	. . .
67A9	98 8C 

67AB	91 02 42 68              DB 091h, 002h, 042h, 068h, 011h, 008h, 098h, 08Ch, 0FDh, 007h
	. . .
67B3	FD 07 

67B5	ED 07 98 8C              DB 0EDh, 007h, 098h, 08Ch, 091h, 002h, 042h, 068h, 011h, 008h
	. . .
67BD	11 08 

67BF	98 8C FD 07              DB 098h, 08Ch, 0FDh, 007h, 0EDh, 007h, 098h, 08Ch, 091h, 002h
	. . .
67C7	91 02 

67C9	42 68 11 08              DB 042h, 068h, 011h, 008h, 098h, 08Ch, 0FDh, 007h, 0EDh, 007h
	. . .
67D1	ED 07 

67D3	98 8C 91 02              DB 098h, 08Ch, 091h, 002h, 042h, 068h, 011h, 008h, 098h, 08Ch
	. . .
67DB	98 8C 

67DD	FD 07 ED 07              DB 0FDh, 007h, 0EDh, 007h, 098h, 08Ch, 091h, 002h, 042h, 068h
	. . .
67E5	42 68 

67E7	11 08 98 8C              DB 011h, 008h, 098h, 08Ch, 0FDh, 007h, 0EDh, 007h, 098h, 08Ch
	. . .
67EF	98 8C 

67F1	91 02 42 68              DB 091h, 002h, 042h, 068h, 011h, 008h, 098h, 08Ch, 0FDh, 007h
	. . .
67F9	FD 07 

67FB	ED 07 98 8C              DB 0EDh, 007h, 098h, 08Ch, 091h
	. . .
67FF	91 

6800	C3 3D 68        lldcb:   JMP lknlh
6803	C3 37 C3 C3              DB 0C3h, 037h, 0C3h, 0C3h, 077h, 0C3h, 0C3h, 0A7h, 069h, 0C3h
	. . .
680B	69 C3 

680D	D0 C3 C3 65              DB 0D0h, 0C3h, 0C3h, 065h, 069h, 0C3h, 03Ah, 069h, 0C3h, 0B8h
	. . .
6815	C3 B8 

6817	68 C3 E8 68              DB 068h, 0C3h, 0E8h, 068h
681B	C3 F2 68        lojlh:   JMP lovxs
681E	2A FC 8F C9              DB 02Ah, 0FCh, 08Fh, 0C9h, 000h, 000h, 0C3h, 0D2h, 068h, 0C3h
	. . .
6826	68 C3 

6828	82 68 C3 46              DB 082h, 068h, 0C3h, 046h, 069h, 0C9h, 000h, 000h, 02Ah, 0C8h
	. . .
6830	2A C8 

6832	6B 22 C8 6B              DB 06Bh, 022h, 0C8h, 06Bh, 0C9h
	. . .
6836	C9 

6837	E6 C0           logtt:   ANI 0C0h
6839	32 02 FF                 STA lhlrv
683C	C9                       RET
683D	21 73 C4        lknlh:   LXI H,lgscb
6840	11 90 C4                 LXI D,ldlgy
6843	01 E3 8F                 LXI B,lftte
6846	00                       NOP
6847	00                       NOP
6848	00                       NOP
6849	31 FF 7F                 LXI SP,lohyk
684C	C3 80 02                 JMP ljyyy
684F	7C B8 C0 7D              DB 07Ch, 0B8h, 0C0h, 07Dh, 0B9h, 0C9h, 0C5h, 04Fh, 0CDh, 0A7h
	. . .
6857	CD A7 

6859	69 C1 C9 7E              DB 069h, 0C1h, 0C9h, 07Eh, 0B9h, 023h, 0CAh, 069h, 068h, 0A7h
	. . .
6861	68 A7 

6863	C8 23 23 C3              DB 0C8h, 023h, 023h, 0C3h, 05Ch, 068h, 0D1h, 05Eh, 023h, 056h
	. . .
686B	23 56 

686D	EB C1 D1 E3              DB 0EBh, 0C1h, 0D1h, 0E3h, 0C9h, 0AFh, 032h, 0F3h, 08Fh, 0E5h
	. . .
6875	8F E5 

6877	21 03 BD 3D              DB 021h, 003h, 0BDh, 03Dh, 0CDh, 077h, 0C3h, 036h, 0FFh, 0E1h
	. . .
687F	FF E1 

6881	C9 CD A8 68              DB 0C9h, 0CDh, 0A8h, 068h, 07Dh, 0CDh, 0D0h, 0C3h, 07Ch, 0CDh
	. . .
6889	7C CD 

688B	D0 C3 7B CD              DB 0D0h, 0C3h, 07Bh, 0CDh, 0D0h, 0C3h, 07Ah, 0CDh, 0D0h, 0C3h
	. . .
6893	D0 C3 

6895	7E CD D0 C3              DB 07Eh, 0CDh, 0D0h, 0C3h, 0CDh, 027h, 0C4h, 023h, 0C2h, 095h
	. . .
689D	C2 95 

689F	68 79 CD D0              DB 068h, 079h, 0CDh, 0D0h, 0C3h, 078h, 0C3h, 0D0h, 0C3h, 0AFh
	. . .
68A7	C3 AF 

68A9	C5 47 CD D0              DB 0C5h, 047h, 0CDh, 0D0h, 0C3h, 005h, 0C2h, 0ABh, 068h, 0C1h
	. . .
68B1	68 C1 

68B3	3E E6 C3 D0              DB 03Eh, 0E6h, 0C3h, 0D0h, 0C3h, 0F5h, 00Fh, 00Fh, 00Fh, 00Fh
	. . .
68BB	0F 0F 

68BD	CD C1 68 F1              DB 0CDh, 0C1h, 068h, 0F1h, 0F5h, 0E6h, 00Fh, 0FEh, 00Ah, 0DAh
	. . .
68C5	0A DA 

68C7	CB 68 C6 07              DB 0CBh, 068h, 0C6h, 007h, 0C6h, 030h, 0CDh, 055h, 068h, 0F1h
	. . .
68CF	68 F1 

68D1	C9 CD 72 68              DB 0C9h, 0CDh, 072h, 068h, 0CDh, 0FEh, 0C3h, 03Eh, 008h, 0CDh
	. . .
68D9	08 CD 

68DB	77 C3 4F 3E              DB 077h, 0C3h, 04Fh, 03Eh, 008h, 0CDh, 077h, 0C3h, 047h, 02Ah
	. . .
68E3	47 2A 

68E5	E3 8F C9 7E              DB 0E3h, 08Fh, 0C9h, 07Eh, 0A7h, 0C8h, 0CDh, 055h, 068h, 023h
	. . .
68ED	68 23 

68EF	C3 E8 68                 DB 0C3h, 0E8h, 068h
68F2	E5              lovxs:   PUSH H
68F3	D5                       PUSH D
68F4	CD 54 C2                 CALL ldiev
68F7	3A 01 FF                 LDA ldgqd
68FA	2F                       CMA
68FB	E6 FE                    ANI 0FEh
68FD	F6 02                    ORI 002h
68FF	21 0C C5                 LXI H,ldhyx
6902	11 F0 FF                 LXI D,ldsqg
6905	19              lknyh:   DAD D
6906	A7                       ANA A
6907	17                       RAL
6908	D2 05 69                 JNC lknyh
690B	A7                       ANA A
690C	CA 2D 69                 JZ lknnv
690F	CD 5A C2                 CALL lhduj
6912	3A 00 FF                 LDA ldstf
6915	2F                       CMA
6916	16 08                    MVI D,008h
6918	0F              llcpv:   RRC
6919	2D                       DCR L
691A	DA 32 69                 JC lovxr
691D	15                       DCR D
691E	C2 18 69                 JNZ llcpv
6921	3A 02 FF                 LDA lhlrv
6924	2F                       CMA
6925	0F              lknxr:   RRC
6926	2D                       DCR L
6927	DA 32 69                 JC lovxr
692A	C2 25 69                 JNZ lknxr
692D	16 FF           lknnv:   MVI D,0FFh
692F	C3 33 69                 JMP lojup
6932	56              lovxr:   MOV D,M
6933	CD 54 C2        lojup:   CALL ldiev
6936	7A                       MOV A,D
6937	D1                       POP D
6938	E1                       POP H
6939	C9                       RET
693A	CD 54 C2 3A              DB 0CDh, 054h, 0C2h, 03Ah, 001h, 0FFh, 02Fh, 0E6h, 0FCh, 0C8h
	. . .
6942	FC C8 

6944	3D C9 E5 F5              DB 03Dh, 0C9h, 0E5h, 0F5h, 001h, 000h, 000h, 07Eh, 081h, 04Fh
	. . .
694C	81 4F 

694E	F5 CD 27 C4              DB 0F5h, 0CDh, 027h, 0C4h, 0CAh, 061h, 069h, 0F1h, 078h, 08Eh
	. . .
6956	78 8E 

6958	47 CD 27 C4              DB 047h, 0CDh, 027h, 0C4h, 023h, 0C2h, 04Bh, 069h, 0F5h, 0F1h
	. . .
6960	F5 F1 

6962	F1 E1 C9 44              DB 0F1h, 0E1h, 0C9h, 044h, 04Dh, 0CDh, 037h, 0C3h, 0FEh, 08Bh
	. . .
696A	FE 8B 

696C	CA 00 D0 E6              DB 0CAh, 000h, 0D0h, 0E6h, 07Fh, 0FEh, 01Fh, 0CAh, 000h, 0E0h
	. . .
6974	00 E0 

6976	FE 08 CA 99              DB 0FEh, 008h, 0CAh, 099h, 069h, 0FEh, 018h, 0CAh, 086h, 069h
	. . .
697E	86 69 

6980	FE 0D CA A5              DB 0FEh, 00Dh, 0CAh, 0A5h, 069h, 077h, 0CDh, 027h, 0C4h, 0CAh
	. . .
6988	C4 CA 

698A	67 69 7E FE              DB 067h, 069h, 07Eh, 0FEh, 020h, 0DAh, 067h, 069h, 023h, 0CDh
	. . .
6992	23 CD 

6994	55 68 C3 67              DB 055h, 068h, 0C3h, 067h, 069h, 0CDh, 04Fh, 068h, 0CAh, 067h
	. . .
699C	CA 67 

699E	69 2B 3E 08              DB 069h, 02Bh, 03Eh, 008h, 0C3h, 093h, 069h, 077h, 0C9h, 0E5h
	. . .
69A6	C9 E5 

69A8	D5 C5 F5 2A              DB 0D5h, 0C5h, 0F5h, 02Ah, 0C6h, 06Bh, 0E9h, 02Ah, 0FCh, 08Fh
	. . .
69B0	FC 8F 

69B2	79 D6 20 DA              DB 079h, 0D6h, 020h, 0DAh, 004h, 06Bh, 04Fh, 07Ch, 0FEh, 0BFh
	. . .
69BA	FE BF 

69BC	D4 1F 6B 47              DB 0D4h, 01Fh, 06Bh, 047h, 00Fh, 00Fh, 0E6h, 03Fh, 0C6h, 090h
	. . .
69C4	C6 90 

69C6	67 EB 79 A7              DB 067h, 0EBh, 079h, 0A7h, 0CAh, 07Eh, 06Ah, 02Ah, 0E7h, 08Fh
	. . .
69CE	E7 8F 

69D0	85 6F 29 29              DB 085h, 06Fh, 029h, 029h, 029h, 03Eh, 007h, 0B5h, 06Fh, 078h
	. . .
69D8	6F 78 

69DA	E6 03 CA FC              DB 0E6h, 003h, 0CAh, 0FCh, 069h, 0EAh, 01Ah, 06Ah, 01Fh, 0D2h
	. . .
69E2	1F D2 

69E4	3C 6A 01 C0              DB 03Ch, 06Ah, 001h, 0C0h, 004h, 01Ah, 0A1h, 0B6h, 012h, 02Bh
	. . .
69EC	12 2B 

69EE	1B 1A A1 B6              DB 01Bh, 01Ah, 0A1h, 0B6h, 012h, 02Bh, 01Bh, 005h, 0C2h, 0E9h
	. . .
69F6	C2 E9 

69F8	69 C3 5C 6A              DB 069h, 0C3h, 05Ch, 06Ah, 001h, 003h, 004h, 01Ah, 0A1h, 00Fh
	. . .
6A00	A1 0F 

6A02	0F B6 07 07              DB 00Fh, 0B6h, 007h, 007h, 012h, 01Bh, 02Bh, 01Ah, 0A1h, 00Fh
	. . .
6A0A	A1 0F 

6A0C	0F B6 07 07              DB 00Fh, 0B6h, 007h, 007h, 012h, 01Bh, 02Bh, 005h, 0C2h, 0FFh
	. . .
6A14	C2 FF 

6A16	69 C3 5C 6A              DB 069h, 0C3h, 05Ch, 06Ah, 001h, 0FCh, 008h, 0E5h, 06Eh, 026h
	. . .
6A1E	6E 26 

6A20	00 29 29 29              DB 000h, 029h, 029h, 029h, 029h, 01Ah, 0A1h, 0B4h, 012h, 014h
	. . .
6A28	12 14 

6A2A	1A E6 0F B5              DB 01Ah, 0E6h, 00Fh, 0B5h, 012h, 015h, 0E1h, 01Bh, 02Bh, 005h
	. . .
6A32	2B 05 

6A34	C2 1D 6A 06              DB 0C2h, 01Dh, 06Ah, 006h, 0F0h, 0C3h, 05Ch, 06Ah, 001h, 0F0h
	. . .
6A3C	01 F0 

6A3E	08 7E 0F 0F              DB 008h, 07Eh, 00Fh, 00Fh, 0E5h, 067h, 0A1h, 06Fh, 0ACh, 067h
	. . .
6A46	AC 67 

6A48	1A A1 B4 12              DB 01Ah, 0A1h, 0B4h, 012h, 014h, 01Ah, 0E6h, 03Fh, 0B5h, 012h
	. . .
6A50	B5 12 

6A52	15 1B E1 2B              DB 015h, 01Bh, 0E1h, 02Bh, 005h, 0C2h, 03Fh, 06Ah, 006h, 0C0h
	. . .
6A5A	06 C0 

6A5C	3A FA 8F A7              DB 03Ah, 0FAh, 08Fh, 0A7h, 0CAh, 075h, 06Ah, 079h, 02Fh, 04Fh
	. . .
6A64	2F 4F 

6A66	26 08 13 1A              DB 026h, 008h, 013h, 01Ah, 0A9h, 012h, 014h, 01Ah, 0A8h, 012h
	. . .
6A6E	A8 12 

6A70	15 25 C2 68              DB 015h, 025h, 0C2h, 068h, 06Ah, 021h, 0FDh, 08Fh, 034h, 034h
	. . .
6A78	34 34 

6A7A	34 C3 9E C0              DB 034h, 0C3h, 09Eh, 0C0h, 078h, 001h, 003h, 004h, 021h, 03Fh
	. . .
6A82	21 3F 

6A84	F0 E6 03 CA              DB 0F0h, 0E6h, 003h, 0CAh, 093h, 06Ah, 0EAh, 0A2h, 06Ah, 01Fh
	. . .
6A8C	6A 1F 

6A8E	D2 A5 6A 0E              DB 0D2h, 0A5h, 06Ah, 00Eh, 0C0h, 01Ah, 0A1h, 012h, 01Dh, 01Ah
	. . .
6A96	1D 1A 

6A98	A1 12 1D 05              DB 0A1h, 012h, 01Dh, 005h, 0C2h, 093h, 06Ah, 0C3h, 05Ch, 06Ah
	. . .
6AA0	5C 6A 

6AA2	21 0F FC 1A              DB 021h, 00Fh, 0FCh, 01Ah, 0A4h, 012h, 014h, 01Ah, 0A5h, 012h
	. . .
6AAA	A5 12 

6AAC	1D 1A A5 12              DB 01Dh, 01Ah, 0A5h, 012h, 015h, 01Ah, 0A4h, 012h, 01Dh, 005h
	. . .
6AB4	1D 05 

6AB6	C2 A5 6A 4C              DB 0C2h, 0A5h, 06Ah, 04Ch, 07Dh, 02Fh, 047h, 0C3h, 05Ch, 06Ah
	. . .
6ABE	5C 6A 

6AC0	E5 D5 C5 F5              DB 0E5h, 0D5h, 0C5h, 0F5h, 021h, 000h, 000h, 039h, 022h, 0F6h
	. . .
6AC8	22 F6 

6ACA	8F 31 0A 90              DB 08Fh, 031h, 00Ah, 090h, 026h, 090h, 006h, 030h, 00Eh, 029h
	. . .
6AD2	0E 29 

6AD4	2E 00 D1 73              DB 02Eh, 000h, 0D1h, 073h, 023h, 072h, 023h, 0D1h, 073h, 023h
	. . .
6ADC	73 23 

6ADE	72 23 D1 73              DB 072h, 023h, 0D1h, 073h, 023h, 072h, 023h, 00Dh, 0C2h, 0D6h
	. . .
6AE6	C2 D6 

6AE8	6A 7C 2A FA              DB 06Ah, 07Ch, 02Ah, 0FAh, 08Fh, 0E5h, 0E5h, 0E5h, 0E5h, 0E5h
	. . .
6AF0	E5 E5 

6AF2	21 14 00 39              DB 021h, 014h, 000h, 039h, 0F9h, 067h, 024h, 005h, 0C2h, 0D2h
	. . .
6AFA	C2 D2 

6AFC	6A 2A F6 8F              DB 06Ah, 02Ah, 0F6h, 08Fh, 0F9h, 0C3h, 09Eh, 0C0h, 021h, 019h
	. . .
6B04	21 19 

6B06	6B E5 2A FC              DB 06Bh, 0E5h, 02Ah, 0FCh, 08Fh, 0E5h, 0E5h, 0E5h, 021h, 0A7h
	. . .
6B0E	21 A7 

6B10	6B 4F CD 5C              DB 06Bh, 04Fh, 0CDh, 05Ch, 068h, 0E1h, 0E1h, 0E1h, 0C1h, 022h
	. . .
6B18	C1 22 

6B1A	FC 8F C3 9E              DB 0FCh, 08Fh, 0C3h, 09Eh, 0C0h, 07Dh, 0C6h, 00Ah, 0D2h, 02Ah
	. . .
6B22	D2 2A 

6B24	6B CD C0 6A              DB 06Bh, 0CDh, 0C0h, 06Ah, 0D6h, 00Ah, 06Fh, 032h, 0FCh, 08Fh
	. . .
6B2C	FC 8F 

6B2E	AF 67 32 FD              DB 0AFh, 067h, 032h, 0FDh, 08Fh, 0C9h, 07Ch, 0D6h, 003h, 0D2h
	. . .
6B36	03 D2 

6B38	3F 6B CD 4F              DB 03Fh, 06Bh, 0CDh, 04Fh, 06Bh, 03Eh, 0BDh, 067h, 0C9h, 07Ch
	. . .
6B40	C9 7C 

6B42	C6 03 FE BF              DB 0C6h, 003h, 0FEh, 0BFh, 0DAh, 04Dh, 06Bh, 0CDh, 059h, 06Bh
	. . .
6B4A	59 6B 

6B4C	AF 67 C9 7D              DB 0AFh, 067h, 0C9h, 07Dh, 0D6h, 00Ah, 0D2h, 057h, 06Bh, 03Eh
	. . .
6B54	6B 3E 

6B56	F8 6F C9 7D              DB 0F8h, 06Fh, 0C9h, 07Dh, 0C6h, 00Ah, 0D2h, 061h, 06Bh, 03Eh
	. . .
6B5E	6B 3E 

6B60	08 6F C9 CD              DB 008h, 06Fh, 0C9h, 0CDh, 010h, 0C0h, 021h, 008h, 000h, 0C9h
	. . .
6B68	00 C9 

6B6A	26 00 C9 21              DB 026h, 000h, 0C9h, 021h, 074h, 06Bh, 022h, 0C6h, 06Bh, 0C9h
	. . .
6B72	6B C9 

6B74	21 7D 6B 22              DB 021h, 07Dh, 06Bh, 022h, 0C6h, 06Bh, 0C3h, 09Eh, 0C0h, 021h
	. . .
6B7C	C0 21 

6B7E	92 6B 22 C6              DB 092h, 06Bh, 022h, 0C6h, 06Bh, 0AFh, 0C6h, 00Ah, 00Dh, 0C2h
	. . .
6B86	0D C2 

6B88	84 6B D6 38              DB 084h, 06Bh, 0D6h, 038h, 032h, 0FCh, 08Fh, 0C3h, 09Eh, 0C0h
	. . .
6B90	9E C0 

6B92	21 AF 69 22              DB 021h, 0AFh, 069h, 022h, 0C6h, 06Bh, 0AFh, 0C6h, 003h, 00Dh
	. . .
6B9A	03 0D 

6B9C	C2 99 6B D6              DB 0C2h, 099h, 06Bh, 0D6h, 060h, 032h, 0FDh, 08Fh, 0C3h, 09Eh
	. . .
6BA4	C3 9E 

6BA6	C0 E7 70 C1              DB 0C0h, 0E7h, 070h, 0C1h, 0E8h, 034h, 06Bh, 0EAh, 01Fh, 06Bh
	. . .
6BAE	1F 6B 

6BB0	EC 66 6B ED              DB 0ECh, 066h, 06Bh, 0EDh, 06Ah, 06Bh, 0F8h, 041h, 06Bh, 0F9h
	. . .
6BB8	6B F9 

6BBA	4F 6B FA 59              DB 04Fh, 06Bh, 0FAh, 059h, 06Bh, 0FBh, 06Dh, 06Bh, 0FFh, 063h
	. . .
6BC2	FF 63 

6BC4	6B 00 5F 91              DB 06Bh, 000h, 05Fh, 091h, 04Eh, 011h, 039h, 000h, 039h, 000h
	. . .
6BCC	39 00 

6BCE	39 00 39 00              DB 039h, 000h, 039h, 000h, 039h, 000h, 039h, 000h, 039h, 000h
	. . .
6BD6	39 00 

6BD8	39 00 39 00              DB 039h, 000h, 039h, 000h, 039h, 000h, 039h, 000h, 039h, 000h
	. . .
6BE0	39 00 

6BE2	39 00 39 00              DB 039h, 000h, 039h, 000h, 039h, 000h, 039h, 000h, 039h, 000h
	. . .
6BEA	39 00 

6BEC	39 00 39 00              DB 039h, 000h, 039h, 000h, 039h, 000h, 039h, 000h, 039h, 000h
	. . .
6BF4	39 00 

6BF6	39 00 39 00              DB 039h, 000h, 039h, 000h, 039h, 000h, 039h, 000h, 039h, 000h
	. . .
6BFE	39 00 

6C00	39 00 39 00              DB 039h, 000h, 039h, 000h, 039h, 000h, 039h, 000h, 039h, 000h
	. . .
6C08	39 00 

6C0A	39 00 39 00              DB 039h, 000h, 039h, 000h, 039h, 000h, 039h, 000h, 039h, 000h
	. . .
6C12	39 00 

6C14	39 00 39 00              DB 039h, 000h, 039h, 000h, 039h, 000h, 039h, 000h, 039h, 000h
	. . .
6C1C	39 00 

6C1E	39 00 39 00              DB 039h, 000h, 039h, 000h, 039h, 000h, 039h, 000h, 039h, 000h
	. . .
6C26	39 00 

6C28	39 00 39 00              DB 039h, 000h, 039h, 000h, 039h, 000h, 039h, 000h, 039h, 000h
	. . .
6C30	39 00 

6C32	39 00 39 00              DB 039h, 000h, 039h, 000h, 039h, 000h, 039h, 000h, 039h, 000h
	. . .
6C3A	39 00 

6C3C	39 00 39 00              DB 039h, 000h, 039h, 000h, 039h, 000h, 039h, 000h, 039h, 000h
	. . .
6C44	39 00 

6C46	39 00 39 00              DB 039h, 000h, 039h, 000h, 039h, 000h, 039h, 000h, 039h, 000h
	. . .
6C4E	39 00 

6C50	39 00 39 00              DB 039h, 000h, 039h, 000h, 039h, 000h, 039h, 000h, 039h, 000h
	. . .
6C58	39 00 

6C5A	39 00 39 00              DB 039h, 000h, 039h, 000h, 039h, 000h, 039h, 000h, 039h, 000h
	. . .
6C62	39 00 

6C64	39 00 39 00              DB 039h, 000h, 039h, 000h, 039h, 000h, 039h, 000h, 039h, 000h
	. . .
6C6C	39 00 

6C6E	39 00 39 00              DB 039h, 000h, 039h, 000h, 039h, 000h, 039h, 000h, 039h, 000h
	. . .
6C76	39 00 

6C78	39 00 39 00              DB 039h, 000h, 039h, 000h, 039h, 000h, 039h, 000h, 039h, 000h
	. . .
6C80	39 00 

6C82	39 00 39 00              DB 039h, 000h, 039h, 000h, 039h, 000h, 039h, 000h, 039h, 000h
	. . .
6C8A	39 00 

6C8C	39 00 39 00              DB 039h, 000h, 039h, 000h, 039h, 000h, 039h, 000h, 039h, 000h
	. . .
6C94	39 00 

6C96	39 00 39 00              DB 039h, 000h, 039h, 000h, 039h, 000h, 039h, 000h, 039h, 000h
	. . .
6C9E	39 00 

6CA0	39 00 39 00              DB 039h, 000h, 039h, 000h, 039h, 000h, 039h, 000h, 039h, 000h
	. . .
6CA8	39 00 

6CAA	39 00 39 00              DB 039h, 000h, 039h, 000h, 039h, 000h, 039h, 000h, 039h, 000h
	. . .
6CB2	39 00 

6CB4	39 00 39 00              DB 039h, 000h, 039h, 000h, 039h, 000h, 039h, 000h, 039h, 000h
	. . .
6CBC	39 00 

6CBE	39 00 39 00              DB 039h, 000h, 039h, 000h, 039h, 000h, 039h, 000h, 039h, 000h
	. . .
6CC6	39 00 

6CC8	39 00 39 00              DB 039h, 000h, 039h, 000h, 039h, 000h, 039h, 000h, 039h, 000h
	. . .
6CD0	39 00 

6CD2	39 00 39 00              DB 039h, 000h, 039h, 000h, 039h, 000h, 039h, 000h, 039h, 000h
	. . .
6CDA	39 00 

6CDC	39 00 39 00              DB 039h, 000h, 039h, 000h, 039h, 000h, 039h, 000h, 039h, 000h
	. . .
6CE4	39 00 

6CE6	39 00 39 00              DB 039h, 000h, 039h, 000h, 039h, 000h, 039h, 000h, 039h, 000h
	. . .
6CEE	39 00 

6CF0	39 00 39 00              DB 039h, 000h, 039h, 000h, 039h, 000h, 039h, 000h, 039h, 000h
	. . .
6CF8	39 00 

6CFA	39 00 39 00              DB 039h, 000h, 039h, 000h, 039h, 000h, 039h, 000h, 039h, 000h
	. . .
6D02	39 00 

6D04	39 00 39 00              DB 039h, 000h, 039h, 000h, 039h, 000h, 039h, 000h, 039h, 000h
	. . .
6D0C	39 00 

6D0E	39 00 39 00              DB 039h, 000h, 039h, 000h, 039h, 000h, 039h, 000h, 039h, 000h
	. . .
6D16	39 00 

6D18	39 00 39 00              DB 039h, 000h, 039h, 000h, 039h, 000h, 039h, 000h, 039h, 000h
	. . .
6D20	39 00 

6D22	39 00 39 00              DB 039h, 000h, 039h, 000h, 039h, 000h, 039h, 000h, 039h, 000h
	. . .
6D2A	39 00 

6D2C	39 00 39 00              DB 039h, 000h, 039h, 000h, 039h, 000h, 039h, 000h, 039h, 000h
	. . .
6D34	39 00 

6D36	39 00 39 00              DB 039h, 000h, 039h, 000h, 039h, 000h, 039h, 000h, 039h, 000h
	. . .
6D3E	39 00 

6D40	39 00 39 00              DB 039h, 000h, 039h, 000h, 039h, 000h, 039h, 000h, 039h, 000h
	. . .
6D48	39 00 

6D4A	39 00 39 00              DB 039h, 000h, 039h, 000h, 039h, 000h, 039h, 000h, 039h, 000h
	. . .
6D52	39 00 

6D54	39 00 39 00              DB 039h, 000h, 039h, 000h, 039h, 000h, 039h, 000h, 039h, 000h
	. . .
6D5C	39 00 

6D5E	39 00 39 00              DB 039h, 000h, 039h, 000h, 039h, 000h, 039h, 000h, 039h, 000h
	. . .
6D66	39 00 

6D68	39 00 39 00              DB 039h, 000h, 039h, 000h, 039h, 000h, 039h, 000h, 039h, 000h
	. . .
6D70	39 00 

6D72	39 00 39 00              DB 039h, 000h, 039h, 000h, 039h, 000h, 039h, 000h, 039h, 000h
	. . .
6D7A	39 00 

6D7C	39 00 39 00              DB 039h, 000h, 039h, 000h, 039h, 000h, 039h, 000h, 039h, 000h
	. . .
6D84	39 00 

6D86	39 00 39 00              DB 039h, 000h, 039h, 000h, 039h, 000h, 039h, 000h, 039h, 000h
	. . .
6D8E	39 00 

6D90	39 00 39 00              DB 039h, 000h, 039h, 000h, 039h, 000h, 039h, 000h, 039h, 000h
	. . .
6D98	39 00 

6D9A	39 00 39 00              DB 039h, 000h, 039h, 000h, 039h, 000h, 039h, 000h, 039h, 000h
	. . .
6DA2	39 00 

6DA4	39 00 39 00              DB 039h, 000h, 039h, 000h, 039h, 000h, 039h, 000h, 039h, 000h
	. . .
6DAC	39 00 

6DAE	39 00 39 00              DB 039h, 000h, 039h, 000h, 039h, 000h, 039h, 000h, 039h, 000h
	. . .
6DB6	39 00 

6DB8	39 00 39 00              DB 039h, 000h, 039h, 000h, 039h, 000h, 039h, 000h, 039h, 000h
	. . .
6DC0	39 00 

6DC2	39 00 39 00              DB 039h, 000h, 039h, 000h, 039h, 000h, 039h, 000h, 039h, 000h
	. . .
6DCA	39 00 

6DCC	39 00 39 00              DB 039h, 000h, 039h, 000h, 039h, 000h, 039h, 000h, 039h, 000h
	. . .
6DD4	39 00 

6DD6	39 00 39 00              DB 039h, 000h, 039h, 000h, 039h, 000h, 039h, 000h, 039h, 000h
	. . .
6DDE	39 00 

6DE0	39 00 39 00              DB 039h, 000h, 039h, 000h, 039h, 000h, 039h, 000h, 039h, 000h
	. . .
6DE8	39 00 

6DEA	39 00 39 00              DB 039h, 000h, 039h, 000h, 039h, 000h, 039h, 000h, 039h, 000h
	. . .
6DF2	39 00 

6DF4	39 00 39 00              DB 039h, 000h, 039h, 000h, 039h, 000h, 039h, 000h, 039h, 000h
	. . .
6DFC	39 00 

6DFE	39 00                    DB 039h, 000h
	                END
Labels:
end                     6E00
lbxhz                   8F1D	lbxrk                   8CB5
lbxrv                   8F15	lcait                   8F19
lcasc                   8FF1	lcasp                   8F11
lcbve                   9999	lcjum                   8CB4
lcjux                   8F14	lcmvr                   8F10
lcmxd                   8800	lcmyl                   8D00
lctat                   A170	ldgns                   FED1
ldgqd                   FF01	ldhyx                   C50C
ldiev                   C254	ldlfj                   C170
ldlft                   C010	ldlgy                   C490
ldsqg                   FFF0	ldstf                   FF00
lfqgk                   8DFF	lfqql                   8F17
lfthj                   8F1B	lftrf                   8F13
lftte                   8FE3	lfvfn                   9923
lfvls                   94E3	lgbmv                   B623
lgctn                   8F16	lgcvc                   88C6
lgejr                   9D06	lgenb                   9306
lgfso                   8BF2	lgftl                   8852
lgftu                   8FF2	lgfuh                   8F12
lgiwp                   A906	lgjbl                   A006
lgjcl                   A706	lgkjr                   BB06
lgkon                   B206	lgkqb                   B406
lgscb                   C473	lgzot                   FF03
lhduj                   C25A	lhlrv                   FF02
ljjef                   081D	ljjgh                   096D
ljjgo                   0BCD	ljjhd                   0E6D
ljjkh                   075D	ljjkm                   04DD
ljjlm                   03CD	ljjmz                   044D
ljjnm                   09B5	ljjpw                   08A5
ljjpy                   09A5	ljjqg                   0B85
ljjqv                   0E25	ljjti                   07B5
ljjut                   0365	ljjvz                   0765
ljjwk                   0785	ljjwq                   0485
ljmef                   0A79	ljmfd                   0859
ljmgh                   0D19	ljmjv                   0359
ljmkm                   04B9	ljmks                   05F9
ljmky                   06D9	ljmmt                   0729
ljmnc                   04E9	ljmnu                   05C9
ljmnv                   0549	ljmos                   0BD1
ljmph                   0E71	ljmqn                   0A61
ljmrb                   0B01	ljmrm                   09C1
ljmry                   0DA1	ljmsp                   0D01
ljmug                   07F1	ljnwy                   1299
ljvhg                   089C	ljviu                   0AAC
ljviz                   0A6C	ljvjn                   0B0C
ljvkk                   0DAC	ljvlb                   0D0C
ljvlf                   0D4C	ljvnj                   075C
ljvqj                   0A74	ljvql                   0B74
ljvqp                   0934	ljvsb                   0E14
ljvsl                   0D14	ljvtd                   0864
ljvtz                   0F24	ljvua                   0EE4
ljvuf                   0C24	ljvuq                   0EC4
ljvuu                   0C84	ljvuz                   0C44
ljvwr                   0434	ljvyh                   0304
ljvzf                   0524	ljvzq                   07C4
ljyhm                   09B8	ljyhr                   0978
ljyju                   0BE8	ljyjw                   08A8
ljyke                   0A88	ljyks                   09C8
ljylf                   0D28	ljylk                   0E88
ljyqu                   04C8	ljyqz                   0A30
ljyrb                   0B30	ljyrc                   0AF0
ljyrm                   09F0	ljyrp                   0A10
ljyrq                   0B90	ljysf                   0E30
ljysm                   0CB0	ljyte                   0D90
ljytg                   0CD0	ljyti                   0DD0
ljyub                   0A00	ljyuq                   0EA0
ljyut                   0F20	ljyuy                   0CA0
ljyvo                   0C80	ljyvp                   0C00
ljyxd                   0630	ljyxg                   06F0
ljyxy                   07D0	ljyyi                   02A0
ljyyl                   0320	ljyyy                   0280
ljyzh                   0000	ljyzo                   06A0
ljyzs                   06E0	ljyzv                   0760
ljzah                   0700	ljzai                   06C0
ljzao                   0580	lkagi                   1ED0
lkahl                   1A00	lkair                   1E00
lkais                   1F80	lkajr                   1130
lkajv                   1170	lkakh                   1110
lkakl                   1150	lkamd                   1120
lkamh                   1160	lkamr                   1000
lkamt                   1100	lkamx                   1140
lkanx                   1400	lkanz                   1500
lkfav                   2000	lkjnv                   5515
lknlh                   683D	lknnv                   692D
lknxr                   6925	lknyh                   6905
llcpv                   6918	lldcb                   6800
lnccc                   0BFF	lncce                   08BF
lncds                   0E9F	lncek                   0BAF
lnces                   09AF	lncgj                   0E4F
lncih                   077F	lncix                   075F
lncja                   059F	lnclo                   04CF
lncms                   0997	lncnh                   0C37
lncns                   0ED7	lncom                   08A7
lncpd                   0807	lncpf                   0907
lncpt                   0C27	lncqe                   0EC7
lncry                   07B7	lncsp                   0717
lnctb                   0557	lncup                   0767
lncvc                   06C7	lncve                   07C7
lnfcw                   0BFB	lnfdq                   099B
lnfem                   0E9B	lnffn                   092B
lnffx                   0A4B	lnfge                   08CB
lnfgu                   0CEB	lnfiy                   06FB
lnfjk                   069B	lnfjs                   049B
lnfjw                   04DB	lnflx                   060B
lnfmf                   040B	lnfmg                   058B
lnfnl                   0813	lnfnp                   0853
lnfot                   0D13	lnfpk                   08E3
lnfqh                   0F23	lnfrc                   0C83
lnfsw                   07F3	lnfte                   05F3
lnftr                   0513	lnfvd                   0623
lnfvj                   0763	lnfvu                   0783
lnhhj                   1323	lnhhu                   11E3
lnoez                   0A3E	lnofi                   09BE
lnofj                   093E	lnofv                   0B5E
lnogd                   095E	lnogr                   0C7E
lnogs                   0DFE	lnogx                   0F1E
lnohg                   0CDE	lnoko                   039E
lnolx                   065E	lnolz                   075E
lnomb                   041E	lnook                   07CE
lnopp                   0A56	lnoqm                   0CF6
lnorr                   0926	lnosh                   0906
lnosp                   0F26	lnosz                   0C66
lnotf                   0F06	lnotk                   0C86
lnovc                   06F6	lnove                   07F6
lnovu                   07D6	lnowa                   04D6
lnowd                   0556	lnowk                   03E6
lnoyd                   0706	lnqkj                   1246
lnrft                   0A3A	lnrge                   08FA
lnrgm                   0ADA	lnrhn                   0D7A
lnria                   0CDA	lnrje                   098A
lnrmt                   075A	lnrpc                   06CA
lnrqk                   0BD2	lnrqt                   0952
lnrqy                   0EF2	lnrqz                   0E72
lnrrx                   0C52	lnrsm                   08E2
lnrsn                   0862	lnrtj                   0F22
lnrue                   0C82	lnrvu                   07B2
lnrwa                   04B2	lnrwf                   0472
lnrwj                   0612	lnrwk                   0792
lnrwm                   06D2	lnrwx                   0552
lnryk                   07E2	lnryl                   0762
lnrzb                   0742	lofjt                   5E23
logtt                   6837	lohyk                   7FFF
lojlh                   681B	lojup                   6933
lovxr                   6932	lovxs                   68F2

