	                ;*********************************************************************************************************
	                ; 
	                ; Autogenerated by DizAssembler:
	                ;   https://github.com/codenjoyme/8080-emulator/blob/master/src/main/java/spec/assembler/DizAssembler.java
	                ; From: src/main/resources/lik/apps/nardy/nardy.rks
	                ; In test: DizAssemblerTest.testDizAssembly()
	                ; 
	                ;*********************************************************************************************************
	                
	                         CPU  8080
	                         .ORG 00000h
	                lkaht    EQU 01800h
	                lnpvx    EQU 0184Eh
	                lkfau    EQU 02080h
	                lnlwd    EQU 02303h
	                ljpqr    EQU 02E55h
	                lnjuv    EQU 03C2Fh
	                lkgak    EQU 03F88h
	                lkysj    EQU 05060h
	                locfs    EQU 058F7h
	                lolqx    EQU 07703h
	                louhb    EQU 0775Eh
	                lgfyh    EQU 08112h
	                lcmxd    EQU 08800h
	                lcaub    EQU 08801h
	                lbxjl    EQU 0880Dh
	                lcaht    EQU 08819h
	                lgfjl    EQU 0881Ah
	                lcjkb    EQU 0881Ch
	                lgcir    EQU 0881Eh
	                lcmwn    EQU 08820h
	                lcatl    EQU 08821h
	                lgfvd    EQU 08822h
	                lftsb    EQU 08823h
	                lcjvt    EQU 08824h
	                lbxsr    EQU 08825h
	                lgcuj    EQU 08826h
	                lcajp    EQU 08829h
	                lgckn    EQU 0882Eh
	                lfqhl    EQU 0882Fh
	                lcmub    EQU 08830h
	                lcaqz    EQU 08831h
	                lftpp    EQU 08833h
	                lfqqe    EQU 08CF7h
	                lcasc    EQU 08FF1h
	                lcjko    EQU 08FFCh
	                lcopl    EQU 09000h
	                lcomz    EQU 09010h
	                lcopk    EQU 09080h
	                lbzbc    EQU 090ADh
	                lcooy    EQU 090E0h
	                lcoqi    EQU 09680h
	                lcohd    EQU 09A30h
	                lclal    EQU 09F6Ch
	                lctan    EQU 0A030h
	                lcdyn    EQU 0A415h
	                lcqdw    EQU 0A6C4h
	                lgjaa    EQU 0A6D6h
	                lfwnc    EQU 0A6DFh
	                lcuor    EQU 0B050h
	                lgnol    EQU 0B512h
	                ldlft    EQU 0C010h
	                lgozx    EQU 0C037h
	                ldlfj    EQU 0C170h
	                lgozr    EQU 0C337h
	                ldkwn    EQU 0C438h
	                ldldh    EQU 0C800h
	                ldrbf    EQU 0E508h
	                lgxwj    EQU 0E60Bh
	                lgzsn    EQU 0F243h
	                lhikz    EQU 0F24Eh
	                ldswx    EQU 0F300h
	                ldssf    EQU 0F800h
	                ldgpd    EQU 0F801h
	                ldsfc    EQU 0FAF8h
	                ldstf    EQU 0FF00h
	                ldgqd    EQU 0FF01h
	                lhlrv    EQU 0FF02h
	                lgzot    EQU 0FF03h
	                ldsjj    EQU 0FF08h
	                lgwla    EQU 0FFF7h
0000	21 34 12                 LXI H,ljxin
0003	22 31 88                 SHLD lcaqz
0006	CD 10 C0                 CALL ldlft
0009	21 60 50                 LXI H,lkysj
000C	22 FC 8F                 SHLD lcjko
000F	21 FD 0A                 LXI H,ljjdk
0012	CD 38 C4                 CALL ldkwn
0015	21 33 88                 LXI H,lftpp
0018	01 00 03                 LXI B,00300h
001B	36 00           lnfin:   MVI M,000h
001D	23                       INX H
001E	0D                       DCR C
001F	C2 1B 00                 JNZ lnfin
0022	05                       DCR B
0023	C2 1B 00                 JNZ lnfin
0026	CD F8 08        lnown:   CALL ljyho
0029	CD 26 07                 CALL lnoxn
002C	CA 26 00                 JZ lnown
002F	CD 10 C0                 CALL ldlft
0032	21 6C 9F                 LXI H,lclal
0035	01 8E 0E                 LXI B,lnojg
0038	11 10 11                 LXI D,lkakh
003B	CD 9D 0A                 CALL ljjdw
003E	21 88 3F                 LXI H,lkgak
0041	22 FC 8F                 SHLD lcjko
0044	21 62 0C                 LXI H,lnrtt
0047	CD 38 C4                 CALL ldkwn
004A	3E 55                    MVI A,055h
004C	3C              ljvov:   INR A
004D	F5                       PUSH PSW
004E	21 00 90                 LXI H,lcopl
0051	F1              ljmtx:   POP PSW
0052	07                       RLC
0053	77                       MOV M,A
0054	23                       INX H
0055	F5                       PUSH PSW
0056	7D                       MOV A,L
0057	FE 64                    CPI 064h
0059	C2 5E 00                 JNZ lnokz
005C	C6 32                    ADI 032h
005E	6F              lnokz:   MOV L,A
005F	7C                       MOV A,H
0060	FE C0                    CPI 0C0h
0062	C2 51 00                 JNZ ljmtx
0065	3E 1E                    MVI A,01Eh
0067	32 F1 8F        lnctp:   STA lcasc
006A	F5                       PUSH PSW
006B	CD 70 C1                 CALL ldlfj
006E	3A 01 F8                 LDA ldgpd
0071	E6 FC                    ANI 0FCh
0073	FE FC                    CPI 0FCh
0075	C2 86 00                 JNZ lnoxc
0078	F1                       POP PSW
0079	3D                       DCR A
007A	C2 67 00                 JNZ lnctp
007D	3E 80                    MVI A,080h
007F	32 F1 8F                 STA lcasc
0082	F1                       POP PSW
0083	C3 4C 00                 JMP ljvov
0086	33              lnoxc:   INX SP
0087	33                       INX SP
0088	CD 26 07                 CALL lnoxn
008B	3D                       DCR A
008C	CA 91 00                 JZ ljmts
008F	3E 01                    MVI A,001h
0091	32 30 88        ljmts:   STA lcmub
0094	21 00 88        ljvwa:   LXI H,lcmxd
0097	3E 30                    MVI A,030h
0099	36 00           ljmjw:   MVI M,000h
009B	23                       INX H
009C	3D                       DCR A
009D	C2 99 00                 JNZ ljmjw
00A0	CD 10 C0        ljyyq:   CALL ldlft
00A3	21 15 A4                 LXI H,lcdyn
00A6	11 08 01                 LXI D,00108h
00A9	01 57 13                 LXI B,lneex
00AC	CD 19 0A                 CALL ljmer
00AF	01 80 13                 LXI B,lkamk
00B2	CD 9D 0A                 CALL ljjdw
00B5	01 08 E5                 LXI B,ldrbf
00B8	09                       DAD B
00B9	E5                       PUSH H
00BA	CD 35 0A                 CALL ljjnd
00BD	E1                       POP H
00BE	CD 47 0A                 CALL lncoz
00C1	CD 47 0A                 CALL lncoz
00C4	24                       INR H
00C5	CD 35 0A                 CALL ljjnd
00C8	01 43 F2                 LXI B,lgzsn
00CB	1E 90                    MVI E,090h
00CD	CD 2B 0A                 CALL lnffd
00D0	01 4E F2                 LXI B,lhikz
00D3	CD 2B 0A                 CALL lnffd
00D6	01 4E 18                 LXI B,lnpvx
00D9	1E 09                    MVI E,009h
00DB	CD 2B 0A                 CALL lnffd
00DE	01 4E F2                 LXI B,lhikz
00E1	CD 2B 0A                 CALL lnffd
00E4	01 00 F3                 LXI B,ldswx
00E7	09                       DAD B
00E8	CD 72 0A                 CALL lnrpt
00EB	CD 72 0A                 CALL lnrpt
00EE	01 0B E6                 LXI B,lgxwj
00F1	09                       DAD B
00F2	11 08 01                 LXI D,00108h
00F5	01 93 13                 LXI B,lnhfm
00F8	CD 19 0A                 CALL ljmer
00FB	01 BC 13                 LXI B,ljwys
00FE	CD 9D 0A                 CALL ljjdw
0101	21 12 B5                 LXI H,lgnol
0104	11 00 F8                 LXI D,ldssf
0107	0E 30                    MVI C,030h
0109	06 36                    MVI B,036h
010B	CD 0B 0A                 CALL lnfft
010E	21 12 81                 LXI H,lgfyh
0111	06 3A                    MVI B,03Ah
0113	CD 0B 0A                 CALL lnfft
0116	0E 41                    MVI C,041h
0118	06 43                    MVI B,043h
011A	CD 0B 0A                 CALL lnfft
011D	21 F7 58                 LXI H,locfs
0120	11 00 08                 LXI D,00800h
0123	06 49                    MVI B,049h
0125	CD 0B 0A                 CALL lnfft
0128	21 F7 8C                 LXI H,lfqqe
012B	06 4F                    MVI B,04Fh
012D	CD 0B 0A                 CALL lnfft
0130	01 00 00                 LXI B,00000h
0133	79                       MOV A,C
0134	07              ljvvn:   RLC
0135	FE 18                    CPI 018h
0137	D2 47 01                 JNC lncuh
013A	CD 67 08                 CALL lncor
013D	21 DF A6                 LXI H,lfwnc
0140	11 F7 FF                 LXI D,lgwla
0143	84                       ADD H
0144	C3 55 01                 JMP ljjtf
0147	D6 18           lncuh:   SUI 018h
0149	CD 67 08                 CALL lncor
014C	57                       MOV D,A
014D	3E BD                    MVI A,0BDh
014F	92                       SUB D
0150	2E 1B                    MVI L,01Bh
0152	11 09 00                 LXI D,00009h
0155	67              ljjtf:   MOV H,A
0156	E5                       PUSH H
0157	21 57 14                 LXI H,lnegj
015A	09                       DAD B
015B	7E                       MOV A,M
015C	21 01 88                 LXI H,lcaub
015F	09                       DAD B
0160	77                       MOV M,A
0161	E1                       POP H
0162	C5                       PUSH B
0163	A7                       ANA A
0164	CA 8F 01                 JZ lnckg
0167	FA 85 01                 JM ljjvm
016A	01 D7 13                 LXI B,lneew
016D	CD 77 01        ljjlf:   CALL lncrf
0170	3D                       DCR A
0171	C2 6D 01                 JNZ ljjlf
0174	C3 8F 01                 JMP lnckg
0177	19              lncrf:   DAD D
0178	D5                       PUSH D
0179	11 08 01                 LXI D,00108h
017C	E5                       PUSH H
017D	C5                       PUSH B
017E	CD 9D 0A                 CALL ljjdw
0181	C1                       POP B
0182	E1                       POP H
0183	D1                       POP D
0184	C9                       RET
0185	01 CF 13        ljjvm:   LXI B,lndxm
0188	CD 77 01        ljypm:   CALL lncrf
018B	3C                       INR A
018C	C2 88 01                 JNZ ljypm
018F	C1              lnckg:   POP B
0190	0C                       INR C
0191	79                       MOV A,C
0192	FE 18                    CPI 018h
0194	DA 34 01                 JC ljvvn
0197	21 20 10                 LXI H,lkamb
019A	22 FC 8F                 SHLD lcjko
019D	21 FD 0A                 LXI H,ljjdk
01A0	CD 38 C4                 CALL ldkwn
01A3	CD D9 09                 CALL ljmfe
01A6	CD E5 08                 CALL ljjqa
01A9	21 A3 0C                 LXI H,lnfqm
01AC	CD 38 C4                 CALL ldkwn
01AF	3A 01 FF        lncjq:   LDA ldgqd
01B2	E6 FC                    ANI 0FCh
01B4	FE FC                    CPI 0FCh
01B6	C2 AF 01                 JNZ lncjq
01B9	21 CD 0C                 LXI H,ljjia
01BC	3A 30 88                 LDA lcmub
01BF	A7                       ANA A
01C0	CA C6 01                 JZ lnoxi
01C3	21 BA 0C                 LXI H,lnrhg
01C6	CD 38 C4        lnoxi:   CALL ldkwn
01C9	21 80 96                 LXI H,lcoqi
01CC	CD 87 08                 CALL lncpc
01CF	F5                       PUSH PSW
01D0	CD E5 08                 CALL ljjqa
01D3	21 EC 0C                 LXI H,ljvkm
01D6	3A 30 88                 LDA lcmub
01D9	A7                       ANA A
01DA	C2 E0 01                 JNZ ljyyw
01DD	21 DC 0C                 LXI H,ljviq
01E0	CD 38 C4        ljyyw:   CALL ldkwn
01E3	3A 30 88                 LDA lcmub
01E6	A7                       ANA A
01E7	C2 ED 01                 JNZ ljjle
01EA	CD 37 C3                 CALL lgozr
01ED	21 30 9A        ljjle:   LXI H,lcohd
01F0	3A 24 88                 LDA lcjvt
01F3	CD 7A 08                 CALL lnrgf
01F6	4F                       MOV C,A
01F7	F1                       POP PSW
01F8	91                       SUB C
01F9	CA 3A 04                 JZ lnrmf
01FC	DA 4F 04                 JC lnclp
01FF	21 F6 0C                 LXI H,lnoqm
0202	3A 30 88                 LDA lcmub
0205	A7                       ANA A
0206	C2 0C 02                 JNZ ljvoj
0209	21 32 0D                 LXI H,lnrrf
020C	CD 38 C4        ljvoj:   CALL ldkwn
020F	CD 37 C3                 CALL lgozr
0212	21 30 A0                 LXI H,lctan
0215	01 08 FF                 LXI B,ldsjj
0218	CD 92 08                 CALL lnrqm
021B	21 91 0D        lnfif:   LXI H,ljmqc
021E	3A 30 88                 LDA lcmub
0221	A7                       ANA A
0222	C2 28 02                 JNZ ljyon
0225	21 CD 0C                 LXI H,ljjia
0228	CD 38 C4        ljyon:   CALL ldkwn
022B	21 80 96                 LXI H,lcoqi
022E	CD 87 08                 CALL lncpc
0231	F5                       PUSH PSW
0232	3A 24 88                 LDA lcjvt
0235	32 23 88                 STA lftsb
0238	21 80 90                 LXI H,lcopk
023B	CD 87 08                 CALL lncpc
023E	57                       MOV D,A
023F	F1                       POP PSW
0240	5F                       MOV E,A
0241	D5                       PUSH D
0242	CD 55 07                 CALL ljjud
0245	CD E5 08                 CALL ljjqa
0248	D1                       POP D
0249	3E 01                    MVI A,001h
024B	32 21 88                 STA lcatl
024E	32 2F 88        lnond:   STA lfqhl
0251	32 29 88                 STA lcajp
0254	AF                       XRA A
0255	32 2E 88                 STA lgckn
0258	32 25 88                 STA lbxsr
025B	32 20 88        lnfij:   STA lcmwn
025E	0E 00                    MVI C,000h
0260	CD 96 05        ljyyn:   CALL lnovy
0263	79                       MOV A,C
0264	3C                       INR A
0265	CA AA 02                 JZ lnrnc
0268	3D                       DCR A
0269	C2 84 02                 JNZ ljvye
026C	3A 20 88                 LDA lcmwn
026F	A7                       ANA A
0270	C2 E4 04                 JNZ ljvzg
0273	3A 25 88                 LDA lbxsr
0276	A7                       ANA A
0277	C2 EA 04                 JNZ lnrou
027A	3C                       INR A
027B	32 25 88                 STA lbxsr
027E	7A                       MOV A,D
027F	53                       MOV D,E
0280	5F                       MOV E,A
0281	C3 60 02                 JMP ljyyn
0284	D5              ljvye:   PUSH D
0285	CD 1D 03                 CALL ljjix
0288	0E 00                    MVI C,000h
028A	CD 96 05                 CALL lnovy
028D	79                       MOV A,C
028E	3C                       INR A
028F	CA AA 02                 JZ lnrnc
0292	3D                       DCR A
0293	CA E4 04                 JZ ljvzg
0296	CD 1D 03                 CALL ljjix
0299	D1                       POP D
029A	7A                       MOV A,D
029B	BB                       CMP E
029C	C2 07 05                 JNZ lncvj
029F	3A 20 88                 LDA lcmwn
02A2	A7                       ANA A
02A3	C2 07 05                 JNZ lncvj
02A6	3C                       INR A
02A7	C3 5B 02                 JMP lnfij
02AA	CD E5 08        lnrnc:   CALL ljjqa
02AD	3A 30 88                 LDA lcmub
02B0	A7                       ANA A
02B1	CA BA 02                 JZ lnrkq
02B4	21 65 0E                 LXI H,ljjqz
02B7	C3 52 05                 JMP lnrwx
02BA	3A 21 88        lnrkq:   LDA lcatl
02BD	21 B1 0D                 LXI H,ljmpm
02C0	A7                       ANA A
02C1	CA 52 05                 JZ lnrwx
02C4	21 A1 0D                 LXI H,ljmry
02C7	C3 52 05                 JMP lnrwx
02CA	3C              lnrnw:   INR A
02CB	C3 4E 02                 JMP lnond
02CE	F5              lnonc:   PUSH PSW
02CF	3A 21 88                 LDA lcatl
02D2	A7                       ANA A
02D3	C2 DC 02                 JNZ ljvma
02D6	F1                       POP PSW
02D7	FE 0C                    CPI 00Ch
02D9	C3 DE 02                 JMP lnokq
02DC	F1              ljvma:   POP PSW
02DD	A7                       ANA A
02DE	C2 67 03        lnokq:   JNZ lnctj
02E1	78                       MOV A,B
02E2	94                       SUB H
02E3	BB                       CMP E
02E4	CA 91 03                 JZ ljmtm
02E7	D2 F0 02                 JNC ljywa
02EA	CD 20 04                 CALL ljyzx
02ED	FA 91 03                 JM ljmtm
02F0	78              ljywa:   MOV A,B
02F1	94                       SUB H
02F2	BA                       CMP D
02F3	CA 87 03                 JZ lnctu
02F6	D2 FF 02                 JNC lncgy
02F9	CD 20 04                 CALL ljyzx
02FC	FA 87 03                 JM lnctu
02FF	21 F3 0D        lncgy:   LXI H,lnfog
0302	CD 38 C4                 CALL ldkwn
0305	CD EF 09                 CALL lncew
0308	CD EF 09                 CALL lncew
030B	CD EF 09                 CALL lncew
030E	C3 28 03                 JMP ljyop
0311	FE 0C           ljmtn:   CPI 00Ch
0313	2E 07                    MVI L,007h
0315	06 0C                    MVI B,00Ch
0317	C2 4E 03                 JNZ lnonf
031A	C3 47 03                 JMP lnctz
031D	3A 21 88        ljjix:   LDA lcatl
0320	A7                       ANA A
0321	F5                       PUSH PSW
0322	C2 28 03                 JNZ ljyop
0325	CD 77 07                 CALL lncsd
0328	D5              ljyop:   PUSH D
0329	CD E5 08                 CALL ljjqa
032C	21 29 0E                 LXI H,ljmht
032F	CD 38 C4                 CALL ldkwn
0332	D1                       POP D
0333	CD 91 07                 CALL ljmus
0336	4F                       MOV C,A
0337	2E 13                    MVI L,013h
0339	06 18                    MVI B,018h
033B	3A 21 88                 LDA lcatl
033E	A7                       ANA A
033F	79                       MOV A,C
0340	CA 11 03                 JZ ljmtn
0343	A7                       ANA A
0344	C2 4E 03                 JNZ lnonf
0347	3A 2E 88        lnctz:   LDA lgckn
034A	A7                       ANA A
034B	C2 FF 02                 JNZ lncgy
034E	79              lnonf:   MOV A,C
034F	CD 1C 07                 CALL ljvnf
0352	3D                       DCR A
0353	FA FF 02                 JM lncgy
0356	61                       MOV H,C
0357	CD 91 07                 CALL ljmus
035A	BC                       CMP H
035B	CA FF 02                 JZ lncgy
035E	4F                       MOV C,A
035F	3A 26 88                 LDA lgcuj
0362	A7                       ANA A
0363	79                       MOV A,C
0364	C2 CE 02                 JNZ lnonc
0367	CD 1C 07        lnctj:   CALL ljvnf
036A	FA FF 02                 JM lncgy
036D	3A 21 88                 LDA lcatl
0370	A7                       ANA A
0371	79                       MOV A,C
0372	C2 7E 03                 JNZ lnokd
0375	94                       SUB H
0376	D2 7F 03                 JNC lnchb
0379	C6 18                    ADI 018h
037B	C3 7F 03                 JMP lnchb
037E	94              lnokd:   SUB H
037F	BB              lnchb:   CMP E
0380	CA 91 03                 JZ ljmtm
0383	BA                       CMP D
0384	C2 FF 02                 JNZ lncgy
0387	7B              lnctu:   MOV A,E
0388	5A                       MOV E,D
0389	57                       MOV D,A
038A	3A 29 88                 LDA lcajp
038D	3D                       DCR A
038E	32 29 88                 STA lcajp
0391	C5              ljmtm:   PUSH B
0392	E5                       PUSH H
0393	01 00 18                 LXI B,lkaht
0396	21 55 2E                 LXI H,ljpqr
0399	3A 21 88                 LDA lcatl
039C	A7                       ANA A
039D	C2 A3 03                 JNZ lnfty
03A0	21 7C 09                 LXI H,0097Ch
03A3	3A 29 88        lnfty:   LDA lcajp
03A6	A7                       ANA A
03A7	CA AB 03                 JZ lnfkc
03AA	09                       DAD B
03AB	22 FC 8F        lnfkc:   SHLD lcjko
03AE	0E 2A                    MVI C,02Ah
03B0	CD 37 C0                 CALL lgozx
03B3	E1                       POP H
03B4	C1                       POP B
03B5	69                       MOV L,C
03B6	44                       MOV B,H
03B7	3A 21 88                 LDA lcatl
03BA	A7                       ANA A
03BB	C2 CC 03                 JNZ ljvoo
03BE	7C                       MOV A,H
03BF	FE 0C                    CPI 00Ch
03C1	C2 CF 03                 JNZ lnckc
03C4	3E 01                    MVI A,001h
03C6	32 2E 88                 STA lgckn
03C9	C3 CF 03                 JMP lnckc
03CC	CD 32 04        ljvoo:   CALL lnrwb
03CF	79              lnckc:   MOV A,C
03D0	D6 0C                    SUI 00Ch
03D2	D2 D7 03                 JNC lncrm
03D5	C6 18                    ADI 018h
03D7	6F              lncrm:   MOV L,A
03D8	78                       MOV A,B
03D9	D6 0C                    SUI 00Ch
03DB	D2 E0 03                 JNC ljyyo
03DE	C6 18                    ADI 018h
03E0	67              ljyyo:   MOV H,A
03E1	CD 77 07                 CALL lncsd
03E4	3A 19 88                 LDA lcaht
03E7	3C                       INR A
03E8	3C                       INR A
03E9	32 19 88                 STA lcaht
03EC	CD BB 07                 CALL lnfiw
03EF	3A 19 88                 LDA lcaht
03F2	3D                       DCR A
03F3	3D                       DCR A
03F4	32 19 88                 STA lcaht
03F7	CD 77 07                 CALL lncsd
03FA	60                       MOV H,B
03FB	69                       MOV L,C
03FC	0E 00                    MVI C,000h
03FE	3A 21 88                 LDA lcatl
0401	A7                       ANA A
0402	C2 07 04                 JNZ lncvh
0405	0E 0C                    MVI C,00Ch
0407	7D              lncvh:   MOV A,L
0408	B9                       CMP C
0409	C2 0E 04                 JNZ lnoon
040C	2E 18                    MVI L,018h
040E	CD FC 06        lnoon:   CALL ljvmq
0411	C5                       PUSH B
0412	D5                       PUSH D
0413	CD E5 08                 CALL ljjqa
0416	D1                       POP D
0417	C1                       POP B
0418	1E 00                    MVI E,000h
041A	F1                       POP PSW
041B	C0                       RNZ
041C	CD 77 07                 CALL lncsd
041F	C9                       RET
0420	E5              ljyzx:   PUSH H
0421	7C                       MOV A,H
0422	3D              lnryn:   DCR A
0423	67                       MOV H,A
0424	CD 1C 07                 CALL ljvnf
0427	3D                       DCR A
0428	F2 30 04                 JP ljyxl
042B	7C                       MOV A,H
042C	BD                       CMP L
042D	D2 22 04                 JNC lnryn
0430	E1              ljyxl:   POP H
0431	C9                       RET
0432	7C              lnrwb:   MOV A,H
0433	A7                       ANA A
0434	C0                       RNZ
0435	3C                       INR A
0436	32 2E 88                 STA lgckn
0439	C9                       RET
043A	21 71 0D        lnrmf:   LXI H,ljmpr
043D	CD 38 C4                 CALL ldkwn
0440	3E 04                    MVI A,004h
0442	CD EF 09        lnrzh:   CALL lncew
0445	3D                       DCR A
0446	C2 42 04                 JNZ lnrzh
0449	CD 10 C0                 CALL ldlft
044C	C3 A0 00                 JMP ljyyq
044F	21 16 0D        lnclp:   LXI H,lnorb
0452	3A 30 88                 LDA lcmub
0455	A7                       ANA A
0456	C2 5C 04                 JNZ ljvnp
0459	21 51 0D                 LXI H,ljmqh
045C	CD 38 C4        ljvnp:   CALL ldkwn
045F	16 06           lncjd:   MVI D,006h
0461	3A 01 F8        ljmwz:   LDA ldgpd
0464	E6 FC                    ANI 0FCh
0466	FE FC                    CPI 0FCh
0468	C2 72 04                 JNZ lnrwf
046B	15                       DCR D
046C	C2 61 04                 JNZ ljmwz
046F	C3 5F 04                 JMP lncjd
0472	7A              lnrwf:   MOV A,D
0473	32 23 88                 STA lftsb
0476	21 80 90                 LXI H,lcopk
0479	01 F8 00                 LXI B,000F8h
047C	CD 92 08                 CALL lnrqm
047F	21 99 0D        lncin:   LXI H,ljmgg
0482	3A 30 88                 LDA lcmub
0485	A7                       ANA A
0486	F5                       PUSH PSW
0487	C2 8D 04                 JNZ ljjmu
048A	21 DC 0C                 LXI H,ljviq
048D	CD 38 C4        ljjmu:   CALL ldkwn
0490	F1                       POP PSW
0491	C2 97 04                 JNZ lncsu
0494	CD 37 C3                 CALL lgozr
0497	21 30 9A        lncsu:   LXI H,lcohd
049A	3A 23 88                 LDA lftsb
049D	CD 7A 08                 CALL lnrgf
04A0	3A 30 88                 LDA lcmub
04A3	A7                       ANA A
04A4	C2 AA 04                 JNZ lnroq
04A7	CD 37 C3                 CALL lgozr
04AA	21 30 A0        lnroq:   LXI H,lctan
04AD	3A 24 88                 LDA lcjvt
04B0	CD 7A 08                 CALL lnrgf
04B3	2A 23 88                 LHLD lftsb
04B6	55                       MOV D,L
04B7	5C                       MOV E,H
04B8	D5                       PUSH D
04B9	CD E5 08                 CALL ljjqa
04BC	D1                       POP D
04BD	AF                       XRA A
04BE	32 21 88                 STA lcatl
04C1	3A 30 88                 LDA lcmub
04C4	A7                       ANA A
04C5	CA CA 02                 JZ lnrnw
04C8	3D                       DCR A
04C9	32 20 88                 STA lcmwn
04CC	32 2E 88                 STA lgckn
04CF	4F              lnclo:   MOV C,A
04D0	47                       MOV B,A
04D1	CD 87 05                 CALL lncvi
04D4	C2 14 05                 JNZ ljvxj
04D7	3C                       INR A
04D8	CD 87 05                 CALL lncvi
04DB	C2 20 05                 JNZ ljyzz
04DE	3A 20 88                 LDA lcmwn
04E1	CA EA 04                 JZ lnrou
04E4	21 FF 0D        ljvzg:   LXI H,lncdq
04E7	CD 38 C4                 CALL ldkwn
04EA	21 08 0E        lnrou:   LXI H,ljyll
04ED	CD 38 C4                 CALL ldkwn
04F0	3A 30 88                 LDA lcmub
04F3	A7                       ANA A
04F4	CA 07 05                 JZ lncvj
04F7	3A 21 88                 LDA lcatl
04FA	A7                       ANA A
04FB	CA 1B 02                 JZ lnfif
04FE	21 19 0E                 LXI H,ljmfx
0501	CD 38 C4                 CALL ldkwn
0504	CD 37 C3                 CALL lgozr
0507	3A 21 88        lncvj:   LDA lcatl
050A	A7                       ANA A
050B	CA 1B 02                 JZ lnfif
050E	CD 55 07                 CALL ljjud
0511	C3 7F 04                 JMP lncin
0514	2A 1C 88        ljvxj:   LHLD lcjkb
0517	CD 32 04                 CALL lnrwb
051A	CD BB 07                 CALL lnfiw
051D	CD FC 06                 CALL ljvmq
0520	2A 1E 88        ljyzz:   LHLD lgcir
0523	CD 32 04                 CALL lnrwb
0526	CD BB 07                 CALL lnfiw
0529	CD FC 06                 CALL ljvmq
052C	79                       MOV A,C
052D	3C                       INR A
052E	CA 4C 05                 JZ ljvqd
0531	3A 2F 88                 LDA lfqhl
0534	A7                       ANA A
0535	C2 E4 04                 JNZ ljvzg
0538	7A                       MOV A,D
0539	BB                       CMP E
053A	C2 07 05                 JNZ lncvj
053D	3A 20 88                 LDA lcmwn
0540	A7                       ANA A
0541	C2 07 05                 JNZ lncvj
0544	3C                       INR A
0545	32 20 88                 STA lcmwn
0548	3D                       DCR A
0549	C3 CF 04                 JMP lnclo
054C	CD E5 08        ljvqd:   CALL ljjqa
054F	21 31 0E                 LXI H,ljmpd
0552	CD 38 C4        lnrwx:   CALL ldkwn
0555	3A 00 88                 LDA lcmxd
0558	A7                       ANA A
0559	C2 76 05                 JNZ lnovn
055C	3A 30 88                 LDA lcmub
055F	A7                       ANA A
0560	CA 70 05                 JZ ljyxr
0563	3A 21 88                 LDA lcatl
0566	A7                       ANA A
0567	C2 70 05                 JNZ ljyxr
056A	21 D9 0D                 LXI H,ljmgk
056D	C3 73 05                 JMP lnftf
0570	21 C2 0D        ljyxr:   LXI H,lnruk
0573	CD 38 C4        lnftf:   CALL ldkwn
0576	21 7E 0E        lnovn:   LXI H,lnogj
0579	CD 38 C4                 CALL ldkwn
057C	CD 37 C3                 CALL lgozr
057F	FE 30                    CPI 030h
0581	CA D2 0A                 JZ lnrqi
0584	C3 94 00                 JMP ljvwa
0587	32 2F 88        lncvi:   STA lfqhl
058A	CD 96 05                 CALL lnovy
058D	7A                       MOV A,D
058E	53                       MOV D,E
058F	5F                       MOV E,A
0590	CD 96 05                 CALL lnovy
0593	79                       MOV A,C
0594	A7                       ANA A
0595	C9                       RET
0596	26 00           lnovy:   MVI H,000h
0598	3E 01                    MVI A,001h
059A	32 26 88                 STA lgcuj
059D	7C                       MOV A,H
059E	CD 1C 07        lnomc:   CALL ljvnf
05A1	FA FB 05                 JM lnfji
05A4	CA FB 05                 JZ lnfji
05A7	7C                       MOV A,H
05A8	82                       ADD D
05A9	6F                       MOV L,A
05AA	7C                       MOV A,H
05AB	FE 12                    CPI 012h
05AD	D2 03 06                 JNC lnfvt
05B0	AF                       XRA A
05B1	32 26 88                 STA lgcuj
05B4	7C                       MOV A,H
05B5	A7                       ANA A
05B6	C2 C0 05                 JNZ ljzas
05B9	3A 2E 88                 LDA lgckn
05BC	A7                       ANA A
05BD	C2 FB 05                 JNZ lnfji
05C0	7D              ljzas:   MOV A,L
05C1	CD 1C 07                 CALL ljvnf
05C4	FA FB 05                 JM lnfji
05C7	CD FC 06        lncvm:   CALL ljvmq
05CA	D5                       PUSH D
05CB	E5                       PUSH H
05CC	78                       MOV A,B
05CD	A7                       ANA A
05CE	C2 2C 06                 JNZ ljvoz
05D1	3A 2F 88                 LDA lfqhl
05D4	A7                       ANA A
05D5	C2 2C 06                 JNZ ljvoz
05D8	22 1A 88                 SHLD lgfjl
05DB	53                       MOV D,E
05DC	04                       INR B
05DD	CD 32 04                 CALL lnrwb
05E0	CD 96 05                 CALL lnovy
05E3	05                       DCR B
05E4	E1              ljvzi:   POP H
05E5	7C                       MOV A,H
05E6	FE 12                    CPI 012h
05E8	D2 EF 05                 JNC lncla
05EB	AF                       XRA A
05EC	32 26 88                 STA lgcuj
05EF	7C              lncla:   MOV A,H
05F0	A7                       ANA A
05F1	C2 F7 05                 JNZ lncsk
05F4	32 2E 88                 STA lgckn
05F7	D1              lncsk:   POP D
05F8	CD 0C 07                 CALL ljvpr
05FB	24              lnfji:   INR H
05FC	7C                       MOV A,H
05FD	FE 18                    CPI 018h
05FF	C2 9E 05                 JNZ lnomc
0602	C9                       RET
0603	3A 26 88        lnfvt:   LDA lgcuj
0606	A7                       ANA A
0607	C2 13 06                 JNZ lnfth
060A	7D                       MOV A,L
060B	FE 18                    CPI 018h
060D	D2 FB 05                 JNC lnfji
0610	C3 C0 05                 JMP ljzas
0613	3C              lnfth:   INR A
0614	32 26 88                 STA lgcuj
0617	FE 02                    CPI 002h
0619	7D                       MOV A,L
061A	CA 22 06                 JZ lnryf
061D	FE 19                    CPI 019h
061F	D2 FB 05                 JNC lnfji
0622	FE 18           lnryf:   CPI 018h
0624	DA C0 05                 JC ljzas
0627	2E 18                    MVI L,018h
0629	C3 C7 05                 JMP lncvm
062C	C5              ljvoz:   PUSH B
062D	AF                       XRA A
062E	57                       MOV D,A
062F	5F                       MOV E,A
0630	47                       MOV B,A
0631	0E 0C                    MVI C,00Ch
0633	79                       MOV A,C
0634	CD 1C 07        ljvwj:   CALL ljvnf
0637	CA 5F 06                 JZ lnciv
063A	FA 64 06                 JM ljvyz
063D	78                       MOV A,B
063E	A7                       ANA A
063F	C2 4D 06                 JNZ ljjmr
0642	79                       MOV A,C
0643	FE 12                    CPI 012h
0645	DA 4D 06                 JC ljjmr
0648	CD 1C 07                 CALL ljvnf
064B	83                       ADD E
064C	5F                       MOV E,A
064D	14              ljjmr:   INR D
064E	7A                       MOV A,D
064F	FE 06                    CPI 006h
0651	DA 74 06                 JC ljvwn
0654	78                       MOV A,B
0655	FE 0F                    CPI 00Fh
0657	DA 74 06                 JC ljvwn
065A	1E 00                    MVI E,000h
065C	C3 E8 06                 JMP ljypw
065F	78              lnciv:   MOV A,B
0660	A7                       ANA A
0661	C3 6A 06                 JMP lnron
0664	2F              ljvyz:   CMA
0665	3C                       INR A
0666	80                       ADD B
0667	04                       INR B
0668	05                       DCR B
0669	47                       MOV B,A
066A	CA 72 06        lnron:   JZ lnrvx
066D	7A                       MOV A,D
066E	E6 07                    ANI 007h
0670	83                       ADD E
0671	5F                       MOV E,A
0672	16 00           lnrvx:   MVI D,000h
0674	79              ljvwn:   MOV A,C
0675	3C                       INR A
0676	FE 18                    CPI 018h
0678	C2 7C 06                 JNZ ljvmr
067B	AF                       XRA A
067C	4F              ljvmr:   MOV C,A
067D	FE 0C                    CPI 00Ch
067F	C2 34 06                 JNZ ljvwj
0682	AF                       XRA A
0683	57                       MOV D,A
0684	47                       MOV B,A
0685	4F                       MOV C,A
0686	CD 1C 07        lnoya:   CALL ljvnf
0689	CA AE 06                 JZ lnono
068C	FA D0 06                 JM ljyxw
068F	04                       INR B
0690	1C                       INR E
0691	1C                       INR E
0692	7A                       MOV A,D
0693	FE 03                    CPI 003h
0695	DA CB 06                 JC lnfma
0698	1F                       RAR
0699	83                       ADD E
069A	5F                       MOV E,A
069B	7A                       MOV A,D
069C	2F                       CMA
069D	81                       ADD C
069E	CD 1C 07                 CALL ljvnf
06A1	CA CB 06                 JZ lnfma
06A4	FA CB 06                 JM lnfma
06A7	67                       MOV H,A
06A8	78                       MOV A,B
06A9	FE 03                    CPI 003h
06AB	C3 C3 06                 JMP lnfvw
06AE	7A              lnono:   MOV A,D
06AF	FE 03                    CPI 003h
06B1	DA CB 06                 JC lnfma
06B4	2F                       CMA
06B5	81                       ADD C
06B6	CD 1C 07                 CALL ljvnf
06B9	CA CB 06                 JZ lnfma
06BC	FA CB 06                 JM lnfma
06BF	67                       MOV H,A
06C0	78                       MOV A,B
06C1	FE 02                    CPI 002h
06C3	DA CB 06        lnfvw:   JC lnfma
06C6	7A                       MOV A,D
06C7	1F                       RAR
06C8	84                       ADD H
06C9	83                       ADD E
06CA	5F                       MOV E,A
06CB	16 00           lnfma:   MVI D,000h
06CD	C3 D1 06                 JMP ljmuu
06D0	14              ljyxw:   INR D
06D1	0C              ljmuu:   INR C
06D2	79                       MOV A,C
06D3	FE 18                    CPI 018h
06D5	DA 86 06                 JC lnoya
06D8	05                       DCR B
06D9	F2 E1 06                 JP ljmwq
06DC	1E FF                    MVI E,0FFh
06DE	C3 E8 06                 JMP ljypw
06E1	3A 19 88        ljmwq:   LDA lcaht
06E4	07                       RLC
06E5	07                       RLC
06E6	83                       ADD E
06E7	5F                       MOV E,A
06E8	C1              ljypw:   POP B
06E9	79                       MOV A,C
06EA	BB                       CMP E
06EB	D2 E4 05                 JNC ljvzi
06EE	4B                       MOV C,E
06EF	2A 1A 88                 LHLD lgfjl
06F2	22 1C 88                 SHLD lcjkb
06F5	E1                       POP H
06F6	22 1E 88                 SHLD lgcir
06F9	C3 F7 05                 JMP lncsk
06FC	D5              ljvmq:   PUSH D
06FD	EB                       XCHG
06FE	21 01 88                 LXI H,lcaub
0701	7A                       MOV A,D
0702	85                       ADD L
0703	6F                       MOV L,A
0704	35                       DCR M
0705	92                       SUB D
0706	83                       ADD E
0707	6F                       MOV L,A
0708	34                       INR M
0709	EB                       XCHG
070A	D1                       POP D
070B	C9                       RET
070C	D5              ljvpr:   PUSH D
070D	EB                       XCHG
070E	21 01 88                 LXI H,lcaub
0711	7A                       MOV A,D
0712	85                       ADD L
0713	6F                       MOV L,A
0714	34                       INR M
0715	92                       SUB D
0716	83                       ADD E
0717	6F                       MOV L,A
0718	35                       DCR M
0719	EB                       XCHG
071A	D1                       POP D
071B	C9                       RET
071C	E5              ljvnf:   PUSH H
071D	21 01 88                 LXI H,lcaub
0720	85                       ADD L
0721	6F                       MOV L,A
0722	7E                       MOV A,M
0723	A7                       ANA A
0724	E1                       POP H
0725	C9                       RET
0726	C5              lnoxn:   PUSH B
0727	3E 91                    MVI A,091h
0729	32 03 FF                 STA lgzot
072C	0E 00                    MVI C,000h
072E	3A 00 FF                 LDA ldstf
0731	06 08                    MVI B,008h
0733	1F              lnfst:   RAR
0734	D2 4A 07                 JNC lnrpf
0737	0C                       INR C
0738	05                       DCR B
0739	C2 33 07                 JNZ lnfst
073C	3A 02 FF                 LDA lhlrv
073F	06 03                    MVI B,003h
0741	1F              ljmxj:   RAR
0742	D2 4A 07                 JNC lnrpf
0745	0C                       INR C
0746	05                       DCR B
0747	C2 41 07                 JNZ ljmxj
074A	3E 82           lnrpf:   MVI A,082h
074C	32 03 FF                 STA lgzot
074F	79                       MOV A,C
0750	2F                       CMA
0751	C6 0C                    ADI 00Ch
0753	C1                       POP B
0754	C9                       RET
0755	16 0C           ljjud:   MVI D,00Ch
0757	21 00 88                 LXI H,lcmxd
075A	5E                       MOV E,M
075B	3A 19 88                 LDA lcaht
075E	77                       MOV M,A
075F	7B                       MOV A,E
0760	32 19 88                 STA lcaht
0763	23                       INX H
0764	01 0D 88                 LXI B,lbxjl
0767	0A              lncup:   LDAX B
0768	2F                       CMA
0769	3C                       INR A
076A	5E                       MOV E,M
076B	77                       MOV M,A
076C	7B                       MOV A,E
076D	2F                       CMA
076E	3C                       INR A
076F	02                       STAX B
0770	03                       INX B
0771	23                       INX H
0772	15                       DCR D
0773	C2 67 07                 JNZ lncup
0776	C9                       RET
0777	C5              lncsd:   PUSH B
0778	D5                       PUSH D
0779	E5                       PUSH H
077A	16 0C                    MVI D,00Ch
077C	21 01 88                 LXI H,lcaub
077F	01 0D 88                 LXI B,lbxjl
0782	0A              lnryw:   LDAX B
0783	5E                       MOV E,M
0784	77                       MOV M,A
0785	7B                       MOV A,E
0786	02                       STAX B
0787	03                       INX B
0788	23                       INX H
0789	15                       DCR D
078A	C2 82 07                 JNZ lnryw
078D	E1                       POP H
078E	D1                       POP D
078F	C1                       POP B
0790	C9                       RET
0791	CD 37 C3        ljmus:   CALL lgozr
0794	FE 60                    CPI 060h
0796	DA 9B 07                 JC lnfjm
0799	D6 20                    SUI 020h
079B	FE 30           lnfjm:   CPI 030h
079D	DA 91 07                 JC ljmus
07A0	FE 4F                    CPI 04Fh
07A2	D2 91 07                 JNC ljmus
07A5	FE 41                    CPI 041h
07A7	D2 AF 07                 JNC lncko
07AA	FE 3A                    CPI 03Ah
07AC	D2 91 07                 JNC ljmus
07AF	4F              lncko:   MOV C,A
07B0	CD 37 C0                 CALL lgozx
07B3	D6 30                    SUI 030h
07B5	FE 0A                    CPI 00Ah
07B7	D8                       RC
07B8	D6 07                    SUI 007h
07BA	C9                       RET
07BB	C5              lnfiw:   PUSH B
07BC	D5                       PUSH D
07BD	E5                       PUSH H
07BE	44                       MOV B,H
07BF	0E FF                    MVI C,0FFh
07C1	CD DD 07                 CALL ljjkg
07C4	CD 6E 08                 CALL lnohx
07C7	3E 50                    MVI A,050h
07C9	CD B9 0A                 CALL ljmea
07CC	E1                       POP H
07CD	E5                       PUSH H
07CE	45                       MOV B,L
07CF	0E 00                    MVI C,000h
07D1	CD DD 07                 CALL ljjkg
07D4	3E 50                    MVI A,050h
07D6	CD B9 0A                 CALL ljmea
07D9	E1                       POP H
07DA	D1                       POP D
07DB	C1                       POP B
07DC	C9                       RET
07DD	78              ljjkg:   MOV A,B
07DE	07                       RLC
07DF	FE 18                    CPI 018h
07E1	D2 F1 07                 JNC ljmug
07E4	CD 67 08                 CALL lncor
07E7	21 D6 A6                 LXI H,lgjaa
07EA	11 F7 FF        lnroo:   LXI D,lgwla
07ED	84                       ADD H
07EE	C3 0B 08                 JMP lnfgb
07F1	FE 30           ljmug:   CPI 030h
07F3	C2 FD 07                 JNZ ljjjq
07F6	AF                       XRA A
07F7	21 C4 A6                 LXI H,lcqdw
07FA	C3 EA 07                 JMP lnroo
07FD	D6 18           ljjjq:   SUI 018h
07FF	CD 67 08                 CALL lncor
0802	57                       MOV D,A
0803	3E BD                    MVI A,0BDh
0805	92                       SUB D
0806	2E 24                    MVI L,024h
0808	11 09 00                 LXI D,00009h
080B	67              lnfgb:   MOV H,A
080C	3A 21 88                 LDA lcatl
080F	A7                       ANA A
0810	CA 5B 08                 JZ lnfdt
0813	78                       MOV A,B
0814	FE 0C                    CPI 00Ch
0816	C2 20 08        lnopt:   JNZ ljytt
0819	79                       MOV A,C
081A	A7                       ANA A
081B	C2 20 08                 JNZ ljytt
081E	06 18                    MVI B,018h
0820	78              ljytt:   MOV A,B
0821	CD 1C 07                 CALL ljvnf
0824	81                       ADD C
0825	CA 2D 08                 JZ ljjgb
0828	19              ljyjx:   DAD D
0829	3D                       DCR A
082A	C2 28 08                 JNZ ljyjx
082D	11 08 01        ljjgb:   LXI D,00108h
0830	01 CF 13                 LXI B,lndxm
0833	3A 21 88                 LDA lcatl
0836	A7                       ANA A
0837	C2 3D 08                 JNZ ljjdp
083A	01 D7 13                 LXI B,lneew
083D	3E 04           ljjdp:   MVI A,004h
083F	CD 6E 08        lnccf:   CALL lnohx
0842	F5                       PUSH PSW
0843	3E 14                    MVI A,014h
0845	CD B9 0A                 CALL ljmea
0848	C5                       PUSH B
0849	CD 9D 0A                 CALL ljjdw
084C	C1                       POP B
084D	CD 70 C1                 CALL ldlfj
0850	3E 3C                    MVI A,03Ch
0852	CD B9 0A                 CALL ljmea
0855	F1                       POP PSW
0856	3D                       DCR A
0857	C2 3F 08                 JNZ lnccf
085A	C9                       RET
085B	3A 30 88        lnfdt:   LDA lcmub
085E	A7                       ANA A
085F	C2 20 08                 JNZ ljytt
0862	78                       MOV A,B
0863	A7                       ANA A
0864	C3 16 08                 JMP lnopt
0867	FE 0C           lncor:   CPI 00Ch
0869	DA 6D 08                 JC ljjgf
086C	3C                       INR A
086D	C9              ljjgf:   RET
086E	D5              lnohx:   PUSH D
086F	E5                       PUSH H
0870	36 00           ljyrl:   MVI M,000h
0872	23                       INX H
0873	1D                       DCR E
0874	C2 70 08                 JNZ ljyrl
0877	E1                       POP H
0878	D1                       POP D
0879	C9                       RET
087A	01 08 FF        lnrgf:   LXI B,ldsjj
087D	57                       MOV D,A
087E	3E 5E                    MVI A,05Eh
0880	CD 35 09                 CALL ljjnn
0883	CD EF 09                 CALL lncew
0886	C9                       RET
0887	01 F8 00        lncpc:   LXI B,000F8h
088A	AF                       XRA A
088B	CD 0D 09                 CALL ljjgt
088E	CD EF 09                 CALL lncew
0891	C9                       RET
0892	3E 0B           lnrqm:   MVI A,00Bh
0894	11 1F 04                 LXI D,0041Fh
0897	C5              lncmq:   PUSH B
0898	01 D3 12                 LXI B,lnhfo
089B	CD 9D 0A                 CALL ljjdw
089E	C1                       POP B
089F	F5                       PUSH PSW
08A0	FE 0B                    CPI 00Bh
08A2	CA C5 08                 JZ ljjqq
08A5	78                       MOV A,B
08A6	A7                       ANA A
08A7	CA C5 08                 JZ ljjqq
08AA	E5                       PUSH H
08AB	C5                       PUSH B
08AC	D5                       PUSH D
08AD	01 33 88                 LXI B,lftpp
08B0	11 FB 01                 LXI D,001FBh
08B3	19                       DAD D
08B4	11 05 02                 LXI D,00205h
08B7	CD 9D 0A                 CALL ljjdw
08BA	24                       INR H
08BB	24                       INR H
08BC	11 14 01                 LXI D,00114h
08BF	CD 9D 0A                 CALL ljjdw
08C2	D1                       POP D
08C3	C1                       POP B
08C4	E1                       POP H
08C5	3E 32           ljjqq:   MVI A,032h
08C7	CD B9 0A                 CALL ljmea
08CA	F1                       POP PSW
08CB	09                       DAD B
08CC	3D                       DCR A
08CD	C2 97 08                 JNZ lncmq
08D0	78                       MOV A,B
08D1	A7                       ANA A
08D2	C2 DB 08                 JNZ lnfds
08D5	01 08 05                 LXI B,00508h
08D8	C3 DE 08                 JMP lnoga
08DB	01 F8 FA        lnfds:   LXI B,ldsfc
08DE	09              lnoga:   DAD B
08DF	01 D3 12                 LXI B,lnhfo
08E2	CD 9D 0A                 CALL ljjdw
08E5	21 AD 90        ljjqa:   LXI H,lbzbc
08E8	11 26 14                 LXI D,lnqld
08EB	01 33 88                 LXI B,lftpp
08EE	CD 9D 0A                 CALL ljjdw
08F1	21 B4 00                 LXI H,000B4h
08F4	22 FC 8F                 SHLD lcjko
08F7	C9                       RET
08F8	2A 31 88        ljyho:   LHLD lcaqz
08FB	0E 10                    MVI C,010h
08FD	7C              ljjds:   MOV A,H
08FE	29                       DAD H
08FF	E6 60                    ANI 060h
0901	EA 05 09                 JPE ljjqp
0904	23                       INX H
0905	0D              ljjqp:   DCR C
0906	C2 FD 08                 JNZ ljjds
0909	22 31 88                 SHLD lcaqz
090C	C9                       RET
090D	F5              ljjgt:   PUSH PSW
090E	C5                       PUSH B
090F	E5                       PUSH H
0910	CD F8 08        ljyrz:   CALL ljyho
0913	7C                       MOV A,H
0914	E6 07                    ANI 007h
0916	CA 10 09                 JZ ljyrz
0919	FE 07                    CPI 007h
091B	CA 10 09                 JZ ljyrz
091E	57                       MOV D,A
091F	7D                       MOV A,L
0920	E6 07                    ANI 007h
0922	CA 10 09                 JZ ljyrz
0925	FE 07                    CPI 007h
0927	CA 10 09                 JZ ljyrz
092A	5F                       MOV E,A
092B	E1                       POP H
092C	C1                       POP B
092D	CD 37 C3                 CALL lgozr
0930	7B                       MOV A,E
0931	32 24 88                 STA lcjvt
0934	F1                       POP PSW
0935	D5              ljjnn:   PUSH D
0936	11 1F 04                 LXI D,0041Fh
0939	C5                       PUSH B
093A	32 22 88        lnrgd:   STA lgfvd
093D	E6 07                    ANI 007h
093F	C2 50 09                 JNZ ljysd
0942	C1                       POP B
0943	C5                       PUSH B
0944	78                       MOV A,B
0945	A7                       ANA A
0946	C2 4A 09                 JNZ lnrjj
0949	09                       DAD B
094A	01 9C 0F        lnrjj:   LXI B,ljvig
094D	C3 9D 09                 JMP ljjeg
0950	FE 01           ljysd:   CPI 001h
0952	C2 5B 09                 JNZ lnfdv
0955	01 11 10                 LXI B,ljohd
0958	C3 9D 09                 JMP ljjeg
095B	FE 02           lnfdv:   CPI 002h
095D	C2 66 09                 JNZ lnorv
0960	01 89 10                 LXI B,ljnzs
0963	C3 9D 09                 JMP ljjeg
0966	FE 03           lnorv:   CPI 003h
0968	C2 71 09                 JNZ ljmol
096B	01 FD 10                 LXI B,ljkwa
096E	C3 9D 09                 JMP ljjeg
0971	FE 04           ljmol:   CPI 004h
0973	C2 7C 09                 JNZ ljvgx
0976	01 72 11                 LXI B,lntil
0979	C3 9D 09                 JMP ljjeg
097C	FE 05           ljvgx:   CPI 005h
097E	C2 87 09                 JNZ lncpe
0981	01 EB 11                 LXI B,lngxy
0984	C3 9D 09                 JMP ljjeg
0987	FE 06           lncpe:   CPI 006h
0989	C2 92 09                 JNZ lnrqo
098C	01 63 12                 LXI B,lnhhl
098F	C3 9D 09                 JMP ljjeg
0992	C1              lnrqo:   POP B
0993	C5                       PUSH B
0994	78                       MOV A,B
0995	A7                       ANA A
0996	CA 9A 09                 JZ lnrgs
0999	09                       DAD B
099A	01 D3 12        lnrgs:   LXI B,lnhfo
099D	CD 9D 0A        ljjeg:   CALL ljjdw
09A0	3E 0A                    MVI A,00Ah
09A2	CD B9 0A                 CALL ljmea
09A5	3A 22 88                 LDA lgfvd
09A8	3C                       INR A
09A9	C1                       POP B
09AA	C5                       PUSH B
09AB	04                       INR B
09AC	C2 B6 09                 JNZ lnope
09AF	3D                       DCR A
09B0	3D                       DCR A
09B1	FE 0E                    CPI 00Eh
09B3	C3 B8 09                 JMP ljyhm
09B6	FE 50           lnope:   CPI 050h
09B8	C2 3A 09        ljyhm:   JNZ lnrgd
09BB	C1                       POP B
09BC	F1                       POP PSW
09BD	F5                       PUSH PSW
09BE	01 0A 01                 LXI B,0010Ah
09C1	09                       DAD B
09C2	E5                       PUSH H
09C3	21 CB 13                 LXI H,lngyg
09C6	01 14 00                 LXI B,00014h
09C9	09              ljmhq:   DAD B
09CA	3D                       DCR A
09CB	C2 C9 09                 JNZ ljmhq
09CE	44                       MOV B,H
09CF	4D                       MOV C,L
09D0	E1                       POP H
09D1	11 0A 02                 LXI D,0020Ah
09D4	CD 9D 0A                 CALL ljjdw
09D7	F1                       POP PSW
09D8	C9                       RET
09D9	21 30 9A        ljmfe:   LXI H,lcohd
09DC	11 1F 04                 LXI D,0041Fh
09DF	01 D3 12                 LXI B,lnhfo
09E2	CD 9D 0A                 CALL ljjdw
09E5	21 80 96                 LXI H,lcoqi
09E8	01 D3 12                 LXI B,lnhfo
09EB	CD 9D 0A                 CALL ljjdw
09EE	C9                       RET
09EF	F5              lncew:   PUSH PSW
09F0	E5                       PUSH H
09F1	21 50 B0                 LXI H,lcuor
09F4	22 F1 8F                 SHLD lcasc
09F7	CD 70 C1                 CALL ldlfj
09FA	2E 48                    MVI L,048h
09FC	22 F1 8F                 SHLD lcasc
09FF	CD 70 C1                 CALL ldlfj
0A02	21 80 20                 LXI H,lkfau
0A05	22 F1 8F                 SHLD lcasc
0A08	E1                       POP H
0A09	F1                       POP PSW
0A0A	C9                       RET
0A0B	22 FC 8F        lnfft:   SHLD lcjko
0A0E	CD 37 C0                 CALL lgozx
0A11	19                       DAD D
0A12	0C                       INR C
0A13	79                       MOV A,C
0A14	B8                       CMP B
0A15	DA 0B 0A                 JC lnfft
0A18	C9                       RET
0A19	CD 9D 0A        ljmer:   CALL ljjdw
0A1C	3E 1A                    MVI A,01Ah
0A1E	24              lnofp:   INR H
0A1F	01 4F 13                 LXI B,lndxn
0A22	CD 9D 0A                 CALL ljjdw
0A25	3D                       DCR A
0A26	C2 1E 0A                 JNZ lnofp
0A29	24                       INR H
0A2A	C9                       RET
0A2B	09              lnffd:   DAD B
0A2C	3E B2                    MVI A,0B2h
0A2E	73              lnohl:   MOV M,E
0A2F	2C                       INR L
0A30	3D                       DCR A
0A31	C2 2E 0A                 JNZ lnohl
0A34	C9                       RET
0A35	11 02 01        ljjnd:   LXI D,00102h
0A38	3E 64                    MVI A,064h
0A3A	01 5D 13        lnrft:   LXI B,ljkwl
0A3D	CD 9D 0A                 CALL ljjdw
0A40	2C                       INR L
0A41	2C                       INR L
0A42	3D                       DCR A
0A43	C2 3A 0A                 JNZ lnrft
0A46	C9                       RET
0A47	11 0B 01        lncoz:   LXI D,0010Bh
0A4A	01 5F 13                 LXI B,lndvb
0A4D	24                       INR H
0A4E	CD 9D 0A                 CALL ljjdw
0A51	16 02                    MVI D,002h
0A53	3E 05                    MVI A,005h
0A55	24              ljjnx:   INR H
0A56	01 6A 13                 LXI B,lntat
0A59	CD 9D 0A                 CALL ljjdw
0A5C	24                       INR H
0A5D	3D                       DCR A
0A5E	C2 55 0A                 JNZ ljjnx
0A61	24                       INR H
0A62	16 01                    MVI D,001h
0A64	01 6A 13                 LXI B,lntat
0A67	CD 9D 0A                 CALL ljjdw
0A6A	24                       INR H
0A6B	01 88 13                 LXI B,lkaco
0A6E	CD 9D 0A                 CALL ljjdw
0A71	C9                       RET
0A72	11 0B 01        lnrpt:   LXI D,0010Bh
0A75	01 9B 13                 LXI B,lngvq
0A78	24                       INR H
0A79	CD 9D 0A                 CALL ljjdw
0A7C	16 02                    MVI D,002h
0A7E	3E 05                    MVI A,005h
0A80	24              ljyua:   INR H
0A81	01 A6 13                 LXI B,lnqjq
0A84	CD 9D 0A                 CALL ljjdw
0A87	24                       INR H
0A88	3D                       DCR A
0A89	C2 80 0A                 JNZ ljyua
0A8C	24                       INR H
0A8D	16 01                    MVI D,001h
0A8F	01 A6 13                 LXI B,lnqjq
0A92	CD 9D 0A                 CALL ljjdw
0A95	24                       INR H
0A96	01 C4 13                 LXI B,ljxlu
0A99	CD 9D 0A                 CALL ljjdw
0A9C	C9                       RET
0A9D	F5              ljjdw:   PUSH PSW
0A9E	C5                       PUSH B
0A9F	4A                       MOV C,D
0AA0	43              ljytk:   MOV B,E
0AA1	E3              ljmqi:   XTHL
0AA2	7E                       MOV A,M
0AA3	23                       INX H
0AA4	E3                       XTHL
0AA5	77                       MOV M,A
0AA6	23                       INX H
0AA7	05                       DCR B
0AA8	C2 A1 0A                 JNZ ljmqi
0AAB	24                       INR H
0AAC	7D                       MOV A,L
0AAD	93                       SUB E
0AAE	6F                       MOV L,A
0AAF	0D                       DCR C
0AB0	C2 A0 0A                 JNZ ljytk
0AB3	7C                       MOV A,H
0AB4	92                       SUB D
0AB5	67                       MOV H,A
0AB6	C1                       POP B
0AB7	F1                       POP PSW
0AB8	C9                       RET
0AB9	C5              ljmea:   PUSH B
0ABA	0E 00                    MVI C,000h
0ABC	0D              ljvgi:   DCR C
0ABD	C2 BC 0A                 JNZ ljvgi
0AC0	3D                       DCR A
0AC1	C2 BC 0A                 JNZ ljvgi
0AC4	C1                       POP B
0AC5	C9                       RET
0AC6	F5 3E 00 CD              DB 0F5h, 03Eh, 000h, 0CDh, 0B9h, 00Ah, 0F1h, 03Dh, 0C2h, 0C6h
	. . .
0ACE	C2 C6 

0AD0	0A C9                    DB 00Ah, 0C9h
0AD2	CD 10 C0        lnrqi:   CALL ldlft
0AD5	21 10 90                 LXI H,lcomz
0AD8	CD 40 0C                 CALL ljyvt
0ADB	21 E0 90                 LXI H,lcooy
0ADE	CD 40 0C                 CALL ljyvt
0AE1	21 19 00                 LXI H,00019h
0AE4	22 FC 8F                 SHLD lcjko
0AE7	21 24 0B                 LXI H,ljvst
0AEA	16 06                    MVI D,006h
0AEC	CD 2C 0C        ljviy:   CALL ljvkj
0AEF	23                       INX H
0AF0	15                       DCR D
0AF1	C2 EC 0A                 JNZ ljviy
0AF4	CD 37 C3                 CALL lgozr
0AF7	CD 10 C0                 CALL ldlft
0AFA	C3 00 C8                 JMP ldldh
	                
0AFD	2A 20 41 44     ljjdk:   DB 02Ah, 020h, 041h, 044h, 044h, 020h, 02Ah, 000h, 020h, 02Ah
	. . .
0B05	20 2A 

0B07	20 31 39 38              DB 020h, 031h, 039h, 038h, 039h, 020h, 02Ah
	. . .
0B0B	39 20 2A 

0B0E	0A 0A 0A 20     lnoid:   DB 00Ah, 00Ah, 00Ah, 020h, 020h, 02Ah, 020h, 041h, 044h, 044h
	. . .
0B16	44 44 

0B18	20 2A 20 20              DB 020h, 02Ah, 020h, 020h, 02Dh, 020h, 020h, 0FCh, 0F4h, 0EFh
	. . .
0B20	F4 EF 

0B22	20 00                    DB 020h, 000h
0B24	F0 F2 EF E7     ljvst:   DB 0F0h, 0F2h, 0EFh, 0E7h, 0F2h, 0E1h, 0EDh, 0EDh, 0EEh, 0EFh
	. . .
0B2C	EE EF 

0B2E	E5 20 EF E2              DB 0E5h, 020h, 0EFh, 0E2h, 0E5h, 0F3h, 0F0h, 0E5h, 0FEh, 0E5h
	. . .
0B36	FE E5 

0B38	EE E9 E5 20              DB 0EEh, 0E9h, 0E5h, 020h, 0F0h, 02Eh, 0EBh, 02Eh, 020h, 022h
	. . .
0B40	20 22 

0B42	F3 F0 E5 E3              DB 0F3h, 0F0h, 0E5h, 0E3h, 0E9h, 0E1h, 0ECh, 0E9h, 0F3h, 0F4h
	. . .
0B4A	F3 F4 

0B4C	22 00 22 CD              DB 022h, 000h, 022h, 0CDh, 0EFh, 0CEh, 0C9h, 0F4h, 0EFh, 0D2h
	. . .
0B54	EF D2 

0B56	20 2D 20 D3              DB 020h, 02Dh, 020h, 0D3h, 022h, 000h, 0EEh, 0EFh, 0F7h, 0F9h
	. . .
0B5E	F7 F9 

0B60	E5 20 E9 E7              DB 0E5h, 020h, 0E9h, 0E7h, 0F2h, 0EFh, 0F7h, 0F9h, 0E5h, 020h
	. . .
0B68	E5 20 

0B6A	F0 F2 EF E7              DB 0F0h, 0F2h, 0EFh, 0E7h, 0F2h, 0E1h, 0EDh, 0EDh, 0F9h, 000h
	. . .
0B72	F9 00 

0B74	F0 E1 EB E5              DB 0F0h, 0E1h, 0EBh, 0E5h, 0F4h, 020h, 022h, 0EDh, 0C9h, 0C3h
	. . .
0B7C	C9 C3 

0B7E	D2 EF CE 22              DB 0D2h, 0EFh, 0CEh, 022h, 020h, 0E4h, 0ECh, 0F1h, 020h, 022h
	. . .
0B86	20 22 

0B88	F3 F0 E5 E3              DB 0F3h, 0F0h, 0E5h, 0E3h, 0E9h, 0E1h, 0ECh, 0E9h, 0F3h, 0F4h
	. . .
0B90	F3 F4 

0B92	E1 22 00 EB              DB 0E1h, 022h, 000h, 0EBh, 0F7h, 0E1h, 0ECh, 0E9h, 0E6h, 0E9h
	. . .
0B9A	E6 E9 

0B9C	E3 E9 F2 EF              DB 0E3h, 0E9h, 0F2h, 0EFh, 0F7h, 0E1h, 0EEh, 0EEh, 0F9h, 0E5h
	. . .
0BA4	F9 E5 

0BA6	20 EB EF EE              DB 020h, 0EBh, 0EFh, 0EEh, 0F3h, 0F5h, 0ECh, 0F8h, 0F4h, 0E1h
	. . .
0BAE	F4 E1 

0BB0	E3 E9 E9 00              DB 0E3h, 0E9h, 0E9h, 000h, 0E4h, 0EEh, 0E5h, 0F0h, 0F2h, 0EFh
	. . .
0BB8	F2 EF 

0BBA	F0 E5 F4 F2              DB 0F0h, 0E5h, 0F4h, 0F2h, 0EFh, 0F7h, 0F3h, 0EBh, 0E9h, 0EAh
	. . .
0BC2	E9 EA 

0BC4	20 22 F4 EF              DB 020h, 022h, 0F4h, 0EFh, 0ECh, 0FEh, 0EFh, 0EBh, 022h, 02Ch
	. . .
0BCC	22 2C 

0BCE	20 F7 EF F3              DB 020h, 0F7h, 0EFh, 0F3h, 0EBh, 0F2h, 0E5h, 0F3h, 0E5h, 0EEh
	. . .
0BD6	E5 EE 

0BD8	F8 E5 2E 00              DB 0F8h, 0E5h, 02Eh, 000h
0BDC	FF FF 60 70     ljvhe:   DB 0FFh, 0FFh, 060h, 070h, 030h, 038h, 038h, 018h, 018h, 038h
	. . .
0BE4	18 38 

0BE6	38 30 70 60              DB 038h, 030h, 070h, 060h, 0FFh, 0FFh, 0FFh, 0FFh, 000h, 000h
	. . .
0BEE	00 00 

0BF0	0F 0B 13 13              DB 00Fh, 00Bh, 013h, 013h, 023h, 03Fh, 043h, 0C3h, 000h, 000h
	. . .
0BF8	00 00 

0BFA	FF FF FF FF              DB 0FFh, 0FFh, 0FFh, 0FFh, 000h, 000h, 078h, 064h, 066h, 066h
	. . .
0C02	66 66 

0C04	66 66 64 78              DB 066h, 066h, 064h, 078h, 000h, 000h, 0FFh, 0FFh, 0FFh, 0FFh
	. . .
0C0C	FF FF 

0C0E	00 00 F0 C8              DB 000h, 000h, 0F0h, 0C8h, 0CCh, 0CCh, 0CCh, 0CCh, 0C8h, 0F0h
	. . .
0C16	C8 F0 

0C18	00 00 FF FF              DB 000h, 000h, 0FFh, 0FFh, 0FFh, 0FFh, 006h, 00Eh, 00Ch, 01Ch
	. . .
0C20	0C 1C 

0C22	1C 18 18 1C              DB 01Ch, 018h, 018h, 01Ch, 01Ch, 00Ch, 00Eh, 006h, 0FFh, 0FFh
	. . .
0C2A	FF FF 

0C2C	E5              ljvkj:   PUSH H
0C2D	21 0E 0B                 LXI H,lnoid
0C30	CD 34 0C                 CALL ljvrt
0C33	E1                       POP H
0C34	7E              ljvrt:   MOV A,M
0C35	E6 7F                    ANI 07Fh
0C37	C8                       RZ
0C38	23                       INX H
0C39	4F                       MOV C,A
0C3A	CD 37 C0                 CALL lgozx
0C3D	C3 34 0C                 JMP ljvrt
0C40	3E 08           ljyvt:   MVI A,008h
0C42	F5              lnruj:   PUSH PSW
0C43	01 DC 0B                 LXI B,ljvhe
0C46	11 10 05                 LXI D,00510h
0C49	D5              ljmiv:   PUSH D
0C4A	0A              lnrkn:   LDAX B
0C4B	03                       INX B
0C4C	77                       MOV M,A
0C4D	23                       INX H
0C4E	1D                       DCR E
0C4F	C2 4A 0C                 JNZ lnrkn
0C52	11 F0 00                 LXI D,000F0h
0C55	19                       DAD D
0C56	D1                       POP D
0C57	15                       DCR D
0C58	C2 49 0C                 JNZ ljmiv
0C5B	24                       INR H
0C5C	F1                       POP PSW
0C5D	3D                       DCR A
0C5E	C2 42 0C                 JNZ lnruj
0C61	C9                       RET
	                
0C62	31 20 2D 20     lnrtt:   DB 031h, 020h, 02Dh, 020h, 069h, 067h, 072h, 061h, 020h, 073h
	. . .
0C6A	20 73 

0C6C	20 70 61 72              DB 020h, 070h, 061h, 072h, 074h, 06Eh, 065h, 072h, 06Fh, 06Dh
	. . .
0C74	6F 6D 

0C76	0A 20 20 20              DB 00Ah, 020h, 020h, 020h, 020h, 020h, 020h, 020h, 020h, 020h
	. . .
0C7E	20 20 

0C80	20 20 20 20              DB 020h, 020h, 020h, 020h, 020h, 020h, 020h, 020h, 020h, 020h
	. . .
0C88	20 20 

0C8A	20 20 32 20              DB 020h, 020h, 032h, 020h, 02Dh, 020h, 069h, 067h, 072h, 061h
	. . .
0C92	72 61 

0C94	20 73 20 6B              DB 020h, 073h, 020h, 06Bh, 06Fh, 06Dh, 070h, 078h, 060h, 074h
	. . .
0C9C	60 74 

0C9E	65 72 6F 6D              DB 065h, 072h, 06Fh, 06Dh, 000h
	. . .
0CA2	00 

0CA3	20 72 61 7A     lnfqm:   DB 020h, 072h, 061h, 07Ah, 079h, 067h, 072h, 061h, 065h, 06Dh
	. . .
0CAB	65 6D 

0CAD	20 70 72 61              DB 020h, 070h, 072h, 061h, 077h, 06Fh, 020h, 068h, 06Fh, 064h
	. . .
0CB5	6F 64 

0CB7	61 0A 00                 DB 061h, 00Ah, 000h
0CBA	20 62 72 6F     lnrhg:   DB 020h, 062h, 072h, 06Fh, 073h, 061h, 06Ah, 020h, 073h, 06Eh
	. . .
0CC2	73 6E 

0CC4	61 7E 61 6C              DB 061h, 07Eh, 061h, 06Ch, 061h, 020h, 074h, 079h, 000h
	. . .
0CCC	00 

0CCD	20 62 65 6C     ljjia:   DB 020h, 062h, 065h, 06Ch, 079h, 065h, 020h, 062h, 072h, 06Fh
	. . .
0CD5	72 6F 

0CD7	73 61 60 74              DB 073h, 061h, 060h, 074h, 000h
	. . .
0CDB	00 

0CDC	20 7E 65 72     ljviq:   DB 020h, 07Eh, 065h, 072h, 06Eh, 079h, 065h, 020h, 062h, 072h
	. . .
0CE4	62 72 

0CE6	6F 73 61 60              DB 06Fh, 073h, 061h, 060h, 074h, 000h
	. . .
0CEA	74 00 

0CEC	20 74 65 70     ljvkm:   DB 020h, 074h, 065h, 070h, 065h, 072h, 078h, 020h, 071h, 000h
	. . .
0CF4	71 00 

0CF6	0A 0A 20 75     lnoqm:   DB 00Ah, 00Ah, 020h, 075h, 020h, 06Dh, 065h, 06Eh, 071h, 020h
	. . .
0CFE	71 20 

0D00	6D 65 6E 78              DB 06Dh, 065h, 06Eh, 078h, 07Bh, 065h, 00Ah, 020h, 074h, 065h
	. . .
0D08	74 65 

0D0A	62 65 20 6E              DB 062h, 065h, 020h, 06Eh, 061h, 07Eh, 069h, 06Eh, 061h, 074h
	. . .
0D12	61 74 

0D14	78 00                    DB 078h, 000h
0D16	0A 0A 20 75     lnorb:   DB 00Ah, 00Ah, 020h, 075h, 020h, 06Dh, 065h, 06Eh, 071h, 020h
	. . .
0D1E	71 20 

0D20	62 6F 6C 78              DB 062h, 06Fh, 06Ch, 078h, 07Bh, 065h, 00Ah, 020h, 045h, 058h
	. . .
0D28	45 58 

0D2A	43 55 5A 45              DB 043h, 055h, 05Ah, 045h, 020h, 04Dh, 045h, 000h
	. . .
0D2E	20 4D 45 00 

0D32	0A 0A 20 75     lnrrf:   DB 00Ah, 00Ah, 020h, 075h, 020h, 062h, 065h, 06Ch, 079h, 068h
	. . .
0D3A	79 68 

0D3C	20 62 6F 6C              DB 020h, 062h, 06Fh, 06Ch, 078h, 07Bh, 065h, 00Ah, 020h, 069h
	. . .
0D44	20 69 

0D46	6D 20 6E 61              DB 06Dh, 020h, 06Eh, 061h, 07Eh, 069h, 06Eh, 061h, 074h, 078h
	. . .
0D4E	74 78 

0D50	00                       DB 000h
0D51	0A 0A 20 75     ljmqh:   DB 00Ah, 00Ah, 020h, 075h, 020h, 07Eh, 065h, 072h, 06Eh, 079h
	. . .
0D59	6E 79 

0D5B	68 20 62 6F              DB 068h, 020h, 062h, 06Fh, 06Ch, 078h, 07Bh, 065h, 00Ah, 020h
	. . .
0D63	0A 20 

0D65	69 6D 20 6E              DB 069h, 06Dh, 020h, 06Eh, 061h, 07Eh, 069h, 06Eh, 061h, 074h
	. . .
0D6D	61 74 

0D6F	78 00                    DB 078h, 000h
0D71	0A 0A 20 70     ljmpr:   DB 00Ah, 00Ah, 020h, 070h, 06Fh, 072h, 06Fh, 077h, 06Eh, 075h
	. . .
0D79	6E 75 

0D7B	2E 0A 20 70              DB 02Eh, 00Ah, 020h, 070h, 072h, 069h, 064h, 065h, 074h, 073h
	. . .
0D83	74 73 

0D85	71 20 70 6F              DB 071h, 020h, 070h, 06Fh, 077h, 074h, 06Fh, 072h, 069h, 074h
	. . .
0D8D	69 74 

0D8F	78 00                    DB 078h, 000h
0D91	20 62 72 6F     ljmqc:   DB 020h, 062h, 072h, 06Fh, 073h, 061h, 06Ah, 000h
	. . .
0D95	73 61 6A 00 

0D99	20 62 72 6F     ljmgg:   DB 020h, 062h, 072h, 06Fh, 073h, 061h, 060h, 000h
	. . .
0D9D	73 61 60 00 

0DA1	20 62 65 6C     ljmry:   DB 020h, 062h, 065h, 06Ch, 079h, 065h, 020h, 077h, 079h, 069h
	. . .
0DA9	79 69 

0DAB	67 72 61 6C              DB 067h, 072h, 061h, 06Ch, 069h, 000h
	. . .
0DAF	69 00 

0DB1	20 7E 65 72     ljmpm:   DB 020h, 07Eh, 065h, 072h, 06Eh, 079h, 065h, 020h, 077h, 079h
	. . .
0DB9	77 79 

0DBB	69 67 72 61              DB 069h, 067h, 072h, 061h, 06Ch, 069h, 000h
	. . .
0DBF	6C 69 00 

0DC2	0A 20 70 6F     lnruk:   DB 00Ah, 020h, 070h, 06Fh, 07Ah, 064h, 072h, 061h, 077h, 06Ch
	. . .
0DCA	77 6C 

0DCC	71 60 20 73              DB 071h, 060h, 020h, 073h, 020h, 06Dh, 061h, 072h, 073h, 06Fh
	. . .
0DD4	73 6F 

0DD6	6D 21 00                 DB 06Dh, 021h, 000h
0DD9	0A 20 65 73     ljmgk:   DB 00Ah, 020h, 065h, 073h, 074h, 078h, 020h, 06Ch, 069h, 020h
	. . .
0DE1	69 20 

0DE3	76 69 7A 6E              DB 076h, 069h, 07Ah, 06Eh, 078h, 020h, 06Eh, 061h, 020h, 06Dh
	. . .
0DEB	20 6D 

0DED	61 72 73 65              DB 061h, 072h, 073h, 065h, 03Fh, 000h
	. . .
0DF1	3F 00 

0DF3	0A 20 6E 65     lnfog:   DB 00Ah, 020h, 06Eh, 065h, 06Ch, 078h, 07Ah, 071h, 021h, 021h
	. . .
0DFB	21 21 

0DFD	21 00                    DB 021h, 000h
0DFF	0A 20 62 6F     lncdq:   DB 00Ah, 020h, 062h, 06Fh, 06Ch, 078h, 07Bh, 065h, 000h
	. . .
0E07	00 

0E08	20 68 6F 64     ljyll:   DB 020h, 068h, 06Fh, 064h, 06Fh, 077h, 020h, 06Eh, 065h, 020h
	. . .
0E10	65 20 

0E12	77 69 76 75              DB 077h, 069h, 076h, 075h, 02Eh, 00Ah, 000h
	. . .
0E16	2E 0A 00 

0E19	20 6D 6F 67     ljmfx:   DB 020h, 06Dh, 06Fh, 067h, 075h, 020h, 062h, 072h, 06Fh, 073h
	. . .
0E21	6F 73 

0E23	61 74 78 3F              DB 061h, 074h, 078h, 03Fh, 00Ah, 000h
	. . .
0E27	0A 00 

0E29	0A 20 68 6F     ljmht:   DB 00Ah, 020h, 068h, 06Fh, 064h, 069h, 020h, 000h
	. . .
0E2D	64 69 20 00 

0E31	20 71 20 77     ljmpd:   DB 020h, 071h, 020h, 077h, 073h, 065h, 067h, 064h, 061h, 020h
	. . .
0E39	61 20 

0E3B	67 6F 77 6F              DB 067h, 06Fh, 077h, 06Fh, 072h, 069h, 06Ch, 02Ch, 00Ah, 020h
	. . .
0E43	0A 20 

0E45	7E 74 6F 20              DB 07Eh, 074h, 06Fh, 020h, 06Bh, 06Fh, 06Dh, 070h, 078h, 060h
	. . .
0E4D	78 60 

0E4F	74 65 72 20              DB 074h, 065h, 072h, 020h, 075h, 06Dh, 06Eh, 065h, 065h, 00Ah
	. . .
0E57	65 0A 

0E59	20 7E 65 6C              DB 020h, 07Eh, 065h, 06Ch, 06Fh, 077h, 065h, 06Bh, 061h, 020h
	. . .
0E61	61 20 

0E63	21 00                    DB 021h, 000h
0E65	20 71 20 70     ljjqz:   DB 020h, 071h, 020h, 070h, 06Fh, 07Eh, 065h, 06Dh, 075h, 02Dh
	. . .
0E6D	75 2D 

0E6F	74 6F 20 70              DB 074h, 06Fh, 020h, 070h, 072h, 06Fh, 069h, 067h, 072h, 061h
	. . .
0E77	72 61 

0E79	6C 2E 2E 2E              DB 06Ch, 02Eh, 02Eh, 02Eh, 000h
	. . .
0E7D	00 

0E7E	0A 0A 20 65     lnogj:   DB 00Ah, 00Ah, 020h, 065h, 07Dh, 065h, 020h, 070h, 061h, 072h
	. . .
0E86	61 72 

0E88	74 69 60 20              DB 074h, 069h, 060h, 020h, 03Fh, 000h
	. . .
0E8C	3F 00 

0E8E	FC 78 78 78     lnojg:   DB 0FCh, 078h, 078h, 078h, 078h, 078h, 078h, 078h, 07Fh, 07Fh
	. . .
0E96	7F 7F 

0E98	78 78 78 FC              DB 078h, 078h, 078h, 0FCh, 000h, 000h, 000h, 000h, 000h, 000h
	. . .
0EA0	00 00 

0EA2	00 00 00 00              DB 000h, 000h, 000h, 000h, 0FFh, 0FFh, 000h, 000h, 000h, 000h
	. . .
0EAA	00 00 

0EAC	00 00 FC 78              DB 000h, 000h, 0FCh, 078h, 078h, 078h, 078h, 078h, 078h, 078h
	. . .
0EB4	78 78 

0EB6	F8 F8 78 78              DB 0F8h, 0F8h, 078h, 078h, 078h, 0FCh, 000h, 000h, 000h, 000h
	. . .
0EBE	00 00 

0EC0	00 00 00 00              DB 000h, 000h, 000h, 000h, 000h, 000h, 000h, 031h, 07Bh, 07Fh
	. . .
0EC8	7B 7F 

0ECA	7E 3C 00 00              DB 07Eh, 03Ch, 000h, 000h, 000h, 001h, 003h, 007h, 00Eh, 01Ch
	. . .
0ED2	0E 1C 

0ED4	38 70 FF FF              DB 038h, 070h, 0FFh, 0FFh, 080h, 000h, 000h, 000h, 000h, 000h
	. . .
0EDC	00 00 

0EDE	FF FE 1E 1E              DB 0FFh, 0FEh, 01Eh, 01Eh, 01Eh, 01Eh, 01Eh, 01Eh, 0FEh, 0FEh
	. . .
0EE6	FE FE 

0EE8	1E 1E 1E 3F              DB 01Eh, 01Eh, 01Eh, 03Fh, 000h, 000h, 003h, 001h, 001h, 001h
	. . .
0EF0	01 01 

0EF2	01 01 01 01              DB 001h, 001h, 001h, 001h, 001h, 001h, 001h, 001h, 001h, 003h
	. . .
0EFA	01 03 

0EFC	00 00 FF FF              DB 000h, 000h, 0FFh, 0FFh, 0E0h, 0E0h, 0E0h, 0E0h, 0E0h, 0E0h
	. . .
0F04	E0 E0 

0F06	FF FF E0 E0              DB 0FFh, 0FFh, 0E0h, 0E0h, 0E0h, 0F0h, 000h, 000h, 0FEh, 0FFh
	. . .
0F0E	FE FF 

0F10	03 01 01 01              DB 003h, 001h, 001h, 001h, 001h, 003h, 0FFh, 0FEh, 000h, 000h
	. . .
0F18	00 00 

0F1A	00 00 00 00              DB 000h, 000h, 000h, 000h, 000h, 080h, 0C0h, 0E0h, 0E0h, 0E0h
	. . .
0F22	E0 E0 

0F24	E0 C0 80 00              DB 0E0h, 0C0h, 080h, 000h, 000h, 000h, 007h, 003h, 001h, 000h
	. . .
0F2C	01 00 

0F2E	00 00 00 00              DB 000h, 000h, 000h, 000h, 000h, 000h, 001h, 003h, 007h, 00Eh
	. . .
0F36	07 0E 

0F38	1C 38 FF FF              DB 01Ch, 038h, 0FFh, 0FFh, 080h, 080h, 007h, 00Fh, 01Ch, 038h
	. . .
0F40	1C 38 

0F42	70 E0 C0 80              DB 070h, 0E0h, 0C0h, 080h, 000h, 000h, 000h, 000h, 0FFh, 0FFh
	. . .
0F4A	FF FF 

0F4C	00 00 F8 F0              DB 000h, 000h, 0F8h, 0F0h, 0F0h, 0F0h, 0F0h, 0F0h, 0F0h, 0F0h
	. . .
0F54	F0 F0 

0F56	F0 F0 F0 F0              DB 0F0h, 0F0h, 0F0h, 0F0h, 0FFh, 0FEh, 00Ch, 008h, 00Fh, 007h
	. . .
0F5E	0F 07 

0F60	07 07 07 07              DB 007h, 007h, 007h, 007h, 007h, 007h, 007h, 007h, 007h, 007h
	. . .
0F68	07 07 

0F6A	07 0F 00 00              DB 007h, 00Fh, 000h, 000h, 0C0h, 080h, 080h, 080h, 0FFh, 0FFh
	. . .
0F72	FF FF 

0F74	80 80 80 80              DB 080h, 080h, 080h, 080h, 080h, 080h, 0FFh, 0FFh, 000h, 000h
	. . .
0F7C	00 00 

0F7E	00 00 00 00              DB 000h, 000h, 000h, 000h, 0F0h, 0FCh, 01Eh, 00Fh, 00Fh, 00Fh
	. . .
0F86	0F 0F 

0F88	0F 1E FC F0              DB 00Fh, 01Eh, 0FCh, 0F0h, 000h, 000h, 03Fh, 01Eh, 01Eh, 01Eh
	. . .
0F90	1E 1E 

0F92	1E 1E 1E 1E              DB 01Eh, 01Eh, 01Eh, 01Eh, 01Eh, 01Eh, 01Eh, 01Eh, 01Eh, 03Fh
	. . .
0F9A	1E 3F 

0F9C	00 00 00 00     ljvig:   DB 000h, 000h, 000h, 000h, 000h, 000h, 000h, 000h, 000h, 000h
	. . .
0FA4	00 00 

0FA6	00 FF 80 80              DB 000h, 0FFh, 080h, 080h, 080h, 080h, 080h, 080h, 080h, 080h
	. . .
0FAE	80 80 

0FB0	80 80 80 80              DB 080h, 080h, 080h, 080h, 080h, 080h, 0FFh, 000h, 000h, 000h
	. . .
0FB8	00 00 

0FBA	00 00 00 00              DB 000h, 000h, 000h, 000h, 000h, 000h, 000h, 000h, 000h, 000h
	. . .
0FC2	00 00 

0FC4	00 00 FF 01              DB 000h, 000h, 0FFh, 001h, 001h, 001h, 001h, 001h, 001h, 001h
	. . .
0FCC	01 01 

0FCE	01 01 01 01              DB 001h, 001h, 001h, 001h, 001h, 001h, 001h, 0FFh, 000h, 000h
	. . .
0FD6	00 00 

0FD8	00 00 00 00              DB 000h, 000h, 000h, 000h, 000h, 000h, 000h, 000h, 000h, 000h
	. . .
0FE0	00 00 

0FE2	00 00 00 F0              DB 000h, 000h, 000h, 0F0h, 010h, 010h, 010h, 010h, 010h, 010h
	. . .
0FEA	10 10 

0FEC	10 10 10 10              DB 010h, 010h, 010h, 010h, 010h, 010h, 010h, 010h, 0F0h, 000h
	. . .
0FF4	F0 00 

0FF6	00 00 00 00              DB 000h, 000h, 000h, 000h, 000h, 000h, 000h, 000h, 000h, 000h
	. . .
0FFE	00 00 

1000	00 00 00 00              DB 000h, 000h, 000h, 000h, 000h, 000h, 000h, 000h, 000h, 000h
	. . .
1008	00 00 

100A	00 00 00 00              DB 000h, 000h, 000h, 000h, 000h, 000h, 000h
	. . .
100E	00 00 00 

1011	00 00 00 00     ljohd:   DB 000h, 000h, 000h, 000h, 000h, 000h, 000h, 01Fh, 010h, 010h
	. . .
1019	10 10 

101B	10 10 20 20              DB 010h, 010h, 020h, 020h, 020h
	. . .
101F	20 

1020	20 20 40 40     lkamb:   DB 020h, 020h, 040h, 040h, 040h, 040h, 07Fh, 020h, 020h, 010h
	. . .
1028	20 10 

102A	10 0F 00 00              DB 010h, 00Fh, 000h, 000h, 000h, 000h, 000h, 000h, 000h, 000h
	. . .
1032	00 00 

1034	00 00 00 FF              DB 000h, 000h, 000h, 0FFh, 000h, 000h, 000h, 000h, 000h, 000h
	. . .
103C	00 00 

103E	00 00 00 00              DB 000h, 000h, 000h, 000h, 000h, 000h, 000h, 0FFh, 000h, 000h
	. . .
1046	00 00 

1048	00 00 FF 00              DB 000h, 000h, 0FFh, 000h, 000h, 000h, 000h, 000h, 000h, 000h
	. . .
1050	00 00 

1052	00 00 00 00              DB 000h, 000h, 000h, 000h, 0E0h, 030h, 030h, 028h, 028h, 044h
	. . .
105A	28 44 

105C	44 44 44 44              DB 044h, 044h, 044h, 044h, 088h, 088h, 088h, 088h, 088h, 050h
	. . .
1064	88 50 

1066	50 30 30 F0              DB 050h, 030h, 030h, 0F0h, 000h, 000h, 000h, 000h, 000h, 000h
	. . .
106E	00 00 

1070	00 00 00 00              DB 000h, 000h, 000h, 000h, 000h, 000h, 000h, 000h, 000h, 000h
	. . .
1078	00 00 

107A	00 00 00 00              DB 000h, 000h, 000h, 000h, 000h, 000h, 000h, 000h, 000h, 000h
	. . .
1082	00 00 

1084	00 00 00 00              DB 000h, 000h, 000h, 000h, 000h
	. . .
1088	00 

1089	00 00 00 00     ljnzs:   DB 000h, 000h, 000h, 000h, 00Fh, 008h, 008h, 008h, 010h, 010h
	. . .
1091	10 10 

1093	10 10 20 20              DB 010h, 010h, 020h, 020h, 020h, 03Fh, 020h, 020h, 020h, 010h
	. . .
109B	20 10 

109D	10 10 10 08              DB 010h, 010h, 010h, 008h, 008h, 008h, 00Fh, 000h, 000h, 000h
	. . .
10A5	00 00 

10A7	00 00 00 00              DB 000h, 000h, 000h, 000h, 000h, 0FFh, 000h, 000h, 000h, 000h
	. . .
10AF	00 00 

10B1	00 00 00 00              DB 000h, 000h, 000h, 000h, 000h, 000h, 0FFh, 000h, 000h, 000h
	. . .
10B9	00 00 

10BB	00 00 00 00              DB 000h, 000h, 000h, 000h, 000h, 000h, 000h, 0FFh, 000h, 000h
	. . .
10C3	00 00 

10C5	00 00 00 00              DB 000h, 000h, 000h, 000h, 000h, 000h, 0F0h, 010h, 010h, 010h
	. . .
10CD	10 10 

10CF	28 28 28 28              DB 028h, 028h, 028h, 028h, 044h, 044h, 044h, 0C4h, 044h, 044h
	. . .
10D7	44 44 

10D9	44 28 28 28              DB 044h, 028h, 028h, 028h, 028h, 010h, 010h, 010h, 0F0h, 000h
	. . .
10E1	F0 00 

10E3	00 00 00 00              DB 000h, 000h, 000h, 000h, 000h, 000h, 000h, 000h, 000h, 000h
	. . .
10EB	00 00 

10ED	00 00 00 00              DB 000h, 000h, 000h, 000h, 000h, 000h, 000h, 000h, 000h, 000h
	. . .
10F5	00 00 

10F7	00 00 00 00              DB 000h, 000h, 000h, 000h, 000h, 000h
	. . .
10FB	00 00 

10FD	00 00 00 00     ljkwa:   DB 000h, 000h, 000h, 000h, 000h, 000h, 000h, 000h, 001h, 002h
	. . .
1105	01 02 

1107	04 0F 08 08              DB 004h, 00Fh, 008h, 008h, 008h, 008h, 008h, 008h, 008h
	. . .
110F	08 

1110	08 08 08 08     lkakh:   DB 008h, 008h, 008h, 008h, 008h, 008h, 008h, 00Fh, 000h, 000h
	. . .
1118	00 00 

111A	00 00 00 00              DB 000h, 000h, 000h, 000h, 000h, 000h, 000h, 000h, 000h, 0FFh
	. . .
1122	00 FF 

1124	00 00 00 FF              DB 000h, 000h, 000h, 0FFh, 000h, 000h, 000h, 000h, 000h, 000h
	. . .
112C	00 00 

112E	00 00 00 00              DB 000h, 000h, 000h, 000h, 000h, 000h, 000h, 000h, 0FFh, 000h
	. . .
1136	FF 00 

1138	00 00 00 00              DB 000h, 000h, 000h, 000h, 000h, 000h, 000h, 000h, 000h, 000h
	. . .
1140	00 00 

1142	FF 03 05 09              DB 0FFh, 003h, 005h, 009h, 0F1h, 011h, 011h, 011h, 011h, 011h
	. . .
114A	11 11 

114C	11 11 11 11              DB 011h, 011h, 011h, 011h, 011h, 011h, 012h, 014h, 018h, 0F0h
	. . .
1154	18 F0 

1156	00 00 00 00              DB 000h, 000h, 000h, 000h, 000h, 000h, 000h, 000h, 000h, 000h
	. . .
115E	00 00 

1160	00 00 00 00              DB 000h, 000h, 000h, 000h, 000h, 000h, 000h, 000h, 000h, 000h
	. . .
1168	00 00 

116A	00 00 00 00              DB 000h, 000h, 000h, 000h, 000h, 000h, 000h, 000h
	. . .
116E	00 00 00 00 

1172	00 00 00 00     lntil:   DB 000h, 000h, 000h, 000h, 000h, 000h, 000h, 00Fh, 008h, 008h
	. . .
117A	08 08 

117C	08 08 08 08              DB 008h, 008h, 008h, 008h, 008h, 008h, 008h, 008h, 008h, 008h
	. . .
1184	08 08 

1186	08 08 0F 00              DB 008h, 008h, 00Fh, 000h, 000h, 000h, 000h, 000h, 000h, 000h
	. . .
118E	00 00 

1190	00 00 00 00              DB 000h, 000h, 000h, 000h, 000h, 000h, 000h, 000h, 0FFh, 000h
	. . .
1198	FF 00 

119A	00 00 00 00              DB 000h, 000h, 000h, 000h, 000h, 000h, 000h, 000h, 000h, 000h
	. . .
11A2	00 00 

11A4	00 00 00 FF              DB 000h, 000h, 000h, 0FFh, 000h, 000h, 000h, 000h, 000h, 000h
	. . .
11AC	00 00 

11AE	00 00 00 00              DB 000h, 000h, 000h, 000h, 000h, 000h, 000h, 000h, 000h, 0FFh
	. . .
11B6	00 FF 

11B8	11 11 11 11              DB 011h, 011h, 011h, 011h, 011h, 011h, 011h, 011h, 011h, 011h
	. . .
11C0	11 11 

11C2	11 11 11 11              DB 011h, 011h, 011h, 011h, 0FFh, 000h, 000h, 000h, 000h, 000h
	. . .
11CA	00 00 

11CC	00 00 00 00              DB 000h, 000h, 000h, 000h, 000h, 000h, 000h, 000h, 000h, 000h
	. . .
11D4	00 00 

11D6	00 00 00 00              DB 000h, 000h, 000h, 000h, 000h, 000h, 000h, 000h, 000h, 000h
	. . .
11DE	00 00 

11E0	00 00 00 00              DB 000h, 000h, 000h, 000h, 000h, 000h, 000h, 000h, 000h, 000h
	. . .
11E8	00 00 

11EA	00                       DB 000h
11EB	00 00 00 01     lngxy:   DB 000h, 000h, 000h, 001h, 001h, 001h, 001h, 001h, 002h, 002h
	. . .
11F3	02 02 

11F5	02 02 02 04              DB 002h, 002h, 002h, 004h, 004h, 004h, 004h, 007h, 002h, 002h
	. . .
11FD	02 02 

11FF	01 01 00 00              DB 001h, 001h, 000h, 000h, 000h, 000h, 000h, 000h, 000h, 000h
	. . .
1207	00 00 

1209	00 00 00 00              DB 000h, 000h, 000h, 000h, 0FFh, 000h, 000h, 000h, 000h, 000h
	. . .
1211	00 00 

1213	00 00 00 00              DB 000h, 000h, 000h, 000h, 000h, 000h, 000h, 000h, 0FFh, 000h
	. . .
121B	FF 00 

121D	00 00 00 FF              DB 000h, 000h, 000h, 0FFh, 000h, 000h, 000h, 000h, 000h, 000h
	. . .
1225	00 00 

1227	00 00 00 00              DB 000h, 000h, 000h, 000h, 000h, 0FEh, 003h, 003h, 002h, 002h
	. . .
122F	02 02 

1231	04 04 04                 DB 004h, 004h, 004h
1234	04 04 08 08     ljxin:   DB 004h, 004h, 008h, 008h, 008h, 008h, 0F8h, 005h, 005h, 003h
	. . .
123C	05 03 

123E	03 FF 00 00              DB 003h, 0FFh, 000h, 000h, 000h, 000h, 000h, 000h, 000h, 000h
	. . .
1246	00 00 

1248	00 00 00 00              DB 000h, 000h, 000h, 000h, 000h, 000h, 080h, 080h, 040h, 040h
	. . .
1250	40 40 

1252	40 40 40 80              DB 040h, 040h, 040h, 080h, 080h, 080h, 080h, 080h, 000h, 000h
	. . .
125A	00 00 

125C	00 00 00 00              DB 000h, 000h, 000h, 000h, 000h, 000h, 000h
	. . .
1260	00 00 00 

1263	00 00 00 00     lnhhl:   DB 000h, 000h, 000h, 000h, 001h, 001h, 001h, 001h, 002h, 002h
	. . .
126B	02 02 

126D	02 03 02 02              DB 002h, 003h, 002h, 002h, 002h, 001h, 001h, 001h, 001h, 000h
	. . .
1275	01 00 

1277	00 00 00 00              DB 000h, 000h, 000h, 000h, 000h, 000h, 000h, 000h, 000h, 000h
	. . .
127F	00 00 

1281	00 FF 80 80              DB 000h, 0FFh, 080h, 080h, 080h, 000h, 000h, 000h, 000h, 000h
	. . .
1289	00 00 

128B	00 00 FF 00              DB 000h, 000h, 0FFh, 000h, 000h, 000h, 000h, 000h, 000h, 000h
	. . .
1293	00 00 

1295	80 80 80 FF              DB 080h, 080h, 080h, 0FFh, 000h, 000h, 000h, 000h, 000h, 000h
	. . .
129D	00 00 

129F	00 00 FF 01              DB 000h, 000h, 0FFh, 001h, 001h, 001h, 002h, 002h, 002h, 002h
	. . .
12A7	02 02 

12A9	04 04 04 FC              DB 004h, 004h, 004h, 0FCh, 004h, 004h, 004h, 002h, 002h, 002h
	. . .
12B1	02 02 

12B3	02 01 01 01              DB 002h, 001h, 001h, 001h, 0FFh, 000h, 000h, 000h, 000h, 000h
	. . .
12BB	00 00 

12BD	00 00 00 00              DB 000h, 000h, 000h, 000h, 000h, 000h, 000h, 080h, 080h, 080h
	. . .
12C5	80 80 

12C7	80 40 40 40              DB 080h, 040h, 040h, 040h, 040h, 040h, 040h, 040h, 080h, 080h
	. . .
12CF	80 80 

12D1	80 80                    DB 080h, 080h
12D3	00 00 00 00     lnhfo:   DB 000h, 000h, 000h, 000h, 000h, 000h, 000h, 000h, 000h, 000h
	. . .
12DB	00 00 

12DD	00 00 00 00              DB 000h, 000h, 000h, 000h, 000h, 000h, 000h, 000h, 000h, 000h
	. . .
12E5	00 00 

12E7	00 00 00 00              DB 000h, 000h, 000h, 000h, 000h, 000h, 000h, 000h, 000h, 000h
	. . .
12EF	00 00 

12F1	00 00 00 00              DB 000h, 000h, 000h, 000h, 00Fh, 010h, 020h, 040h, 0FFh, 080h
	. . .
12F9	FF 80 

12FB	80 80 80 80              DB 080h, 080h, 080h, 080h, 080h, 080h, 080h, 080h, 080h, 080h
	. . .
1303	80 80 

1305	80 80 80 FF              DB 080h, 080h, 080h, 0FFh, 000h, 000h, 000h, 000h, 000h, 000h
	. . .
130D	00 00 

130F	00 00 00 00              DB 000h, 000h, 000h, 000h, 000h, 0FFh, 000h, 000h, 000h, 0FFh
	. . .
1317	00 FF 

1319	01 01 01 01              DB 001h, 001h, 001h, 001h, 001h, 001h, 001h, 001h, 001h, 001h
	. . .
1321	01 01 

1323	01 01 01 01              DB 001h, 001h, 001h, 001h, 0FFh, 000h, 000h, 000h, 000h, 000h
	. . .
132B	00 00 

132D	00 00 00 00              DB 000h, 000h, 000h, 000h, 000h, 000h, 0F0h, 030h, 050h, 090h
	. . .
1335	50 90 

1337	10 10 10 10              DB 010h, 010h, 010h, 010h, 010h, 010h, 010h, 010h, 010h, 010h
	. . .
133F	10 10 

1341	10 10 20 40              DB 010h, 010h, 020h, 040h, 080h, 000h, 000h, 000h, 000h, 000h
	. . .
1349	00 00 

134B	00 00 00 00              DB 000h, 000h, 000h, 000h
134F	FF AA 55 AA     lndxn:   DB 0FFh, 0AAh, 055h, 0AAh, 055h, 0AAh, 055h, 0FFh
	. . .
1353	55 AA 55 FF 

1357	FF AA D5 AA     lneex:   DB 0FFh, 0AAh, 0D5h, 0AAh, 0D5h, 0AAh
	. . .
135B	D5 AA 

135D	D5 AB           ljkwl:   DB 0D5h, 0ABh
135F	FF 80 80 9F     lndvb:   DB 0FFh, 080h, 080h, 09Fh, 090h, 090h, 090h, 091h, 092h, 094h
	. . .
1367	92 94 

1369	9C                       DB 09Ch
136A	FF 00 00 FF     lntat:   DB 0FFh, 000h, 000h, 0FFh, 000h, 03Ch, 0C3h, 000h, 000h, 000h
	. . .
1372	00 00 

1374	00 FF 00 00              DB 000h, 0FFh, 000h, 000h, 0FFh, 000h, 000h, 000h, 081h, 042h
	. . .
137C	81 42 

137E	24 3C                    DB 024h, 03Ch
1380	FF AB 55 AB     lkamk:   DB 0FFh, 0ABh, 055h, 0ABh, 055h, 0ABh, 055h, 0ABh
	. . .
1384	55 AB 55 AB 

1388	FF 01 01 F9     lkaco:   DB 0FFh, 001h, 001h, 0F9h, 009h, 009h, 009h, 089h, 049h, 029h
	. . .
1390	49 29 

1392	39                       DB 039h
1393	AB D5 AA D5     lnhfm:   DB 0ABh, 0D5h, 0AAh, 0D5h, 0AAh, 0D5h, 0AAh, 0FFh
	. . .
1397	AA D5 AA FF 

139B	9C 94 92 91     lngvq:   DB 09Ch, 094h, 092h, 091h, 090h, 090h, 090h, 09Fh, 080h, 080h
	. . .
13A3	80 80 

13A5	FF                       DB 0FFh
13A6	00 00 00 00     lnqjq:   DB 000h, 000h, 000h, 000h, 0C3h, 03Ch, 000h, 0FFh, 000h, 000h
	. . .
13AE	00 00 

13B0	FF 3C 24 42              DB 0FFh, 03Ch, 024h, 042h, 081h, 000h, 000h, 000h, 0FFh, 000h
	. . .
13B8	FF 00 

13BA	00 FF                    DB 000h, 0FFh
13BC	AB 55 AB 55     ljwys:   DB 0ABh, 055h, 0ABh, 055h, 0ABh, 055h, 0ABh, 0FFh
	. . .
13C0	AB 55 AB FF 

13C4	39 29 49 89     ljxlu:   DB 039h, 029h, 049h, 089h, 009h, 009h, 009h
	. . .
13C8	09 09 09 

13CB	F9 01 01 FF     lngyg:   DB 0F9h, 001h, 001h, 0FFh
13CF	3C 7E FF E7     lndxm:   DB 03Ch, 07Eh, 0FFh, 0E7h, 0E7h, 0FFh, 07Eh, 03Ch
	. . .
13D3	E7 FF 7E 3C 

13D7	3C 42 81 99     lneew:   DB 03Ch, 042h, 081h, 099h, 099h, 081h, 042h, 03Ch, 080h, 080h
	. . .
13DF	80 80 

13E1	80 80 81 81              DB 080h, 080h, 081h, 081h, 080h, 080h, 080h, 080h, 001h, 001h
	. . .
13E9	01 01 

13EB	01 01 81 81              DB 001h, 001h, 081h, 081h, 001h, 001h, 001h, 001h, 080h, 080h
	. . .
13F3	80 80 

13F5	80 80 80 80              DB 080h, 080h, 080h, 080h, 080h, 080h, 098h, 098h, 019h, 019h
	. . .
13FD	19 19 

13FF	01 01 01 01              DB 001h, 001h, 001h, 001h, 001h, 001h, 001h, 001h, 080h, 080h
	. . .
1407	80 80 

1409	80 80 81 81              DB 080h, 080h, 081h, 081h, 080h, 080h, 098h, 098h, 019h, 019h
	. . .
1411	19 19 

1413	01 01 81 81              DB 001h, 001h, 081h, 081h, 001h, 001h, 001h, 001h, 098h, 098h
	. . .
141B	98 98 

141D	80 80 80 80              DB 080h, 080h, 080h, 080h, 080h, 080h, 098h, 098h, 019h
	. . .
1425	19 

1426	19 01 01 01     lnqld:   DB 019h, 001h, 001h, 001h, 001h, 001h, 001h, 019h, 019h, 098h
	. . .
142E	19 98 

1430	98 80 80 81              DB 098h, 080h, 080h, 081h, 081h, 080h, 080h, 098h, 098h, 019h
	. . .
1438	98 19 

143A	19 01 01 81              DB 019h, 001h, 001h, 081h, 081h, 001h, 001h, 019h, 019h, 098h
	. . .
1442	19 98 

1444	98 80 80 98              DB 098h, 080h, 080h, 098h, 098h, 080h, 080h, 098h, 098h, 019h
	. . .
144C	98 19 

144E	19 01 01 19              DB 019h, 001h, 001h, 019h, 019h, 001h, 001h, 019h, 019h
	. . .
1456	19 

1457	0F 00 00 00     lnegj:   DB 00Fh, 000h, 000h, 000h, 000h, 000h, 000h, 000h, 000h, 000h
	. . .
145F	00 00 

1461	00 00 F1 00              DB 000h, 000h, 0F1h, 000h, 000h, 000h, 000h, 000h, 000h, 000h
	. . .
1469	00 00 

146B	00 00 00 00              DB 000h, 000h, 000h, 000h, 0FFh, 0FFh
	. . .
146F	FF FF 

	                END
Labels:
end                     1471
lbxjl                   880D	lbxsr                   8825
lbzbc                   90AD	lcaht                   8819
lcajp                   8829	lcaqz                   8831
lcasc                   8FF1	lcatl                   8821
lcaub                   8801	lcdyn                   A415
lcjkb                   881C	lcjko                   8FFC
lcjvt                   8824	lclal                   9F6C
lcmub                   8830	lcmwn                   8820
lcmxd                   8800	lcohd                   9A30
lcomz                   9010	lcooy                   90E0
lcopk                   9080	lcopl                   9000
lcoqi                   9680	lcqdw                   A6C4
lctan                   A030	lcuor                   B050
ldgpd                   F801	ldgqd                   FF01
ldkwn                   C438	ldldh                   C800
ldlfj                   C170	ldlft                   C010
ldrbf                   E508	ldsfc                   FAF8
ldsjj                   FF08	ldssf                   F800
ldstf                   FF00	ldswx                   F300
lfqhl                   882F	lfqqe                   8CF7
lftpp                   8833	lftsb                   8823
lfwnc                   A6DF	lgcir                   881E
lgckn                   882E	lgcuj                   8826
lgfjl                   881A	lgfvd                   8822
lgfyh                   8112	lgjaa                   A6D6
lgnol                   B512	lgozr                   C337
lgozx                   C037	lgwla                   FFF7
lgxwj                   E60B	lgzot                   FF03
lgzsn                   F243	lhikz                   F24E
lhlrv                   FF02	ljjdk                   0AFD
ljjdp                   083D	ljjds                   08FD
ljjdw                   0A9D	ljjeg                   099D
ljjgb                   082D	ljjgf                   086D
ljjgt                   090D	ljjia                   0CCD
ljjix                   031D	ljjjq                   07FD
ljjkg                   07DD	ljjle                   01ED
ljjlf                   016D	ljjmr                   064D
ljjmu                   048D	ljjnd                   0A35
ljjnn                   0935	ljjnx                   0A55
ljjqa                   08E5	ljjqp                   0905
ljjqq                   08C5	ljjqz                   0E65
ljjtf                   0155	ljjud                   0755
ljjvm                   0185	ljkwa                   10FD
ljkwl                   135D	ljmea                   0AB9
ljmer                   0A19	ljmfe                   09D9
ljmfx                   0E19	ljmgg                   0D99
ljmgk                   0DD9	ljmhq                   09C9
ljmht                   0E29	ljmiv                   0C49
ljmjw                   0099	ljmol                   0971
ljmpd                   0E31	ljmpm                   0DB1
ljmpr                   0D71	ljmqc                   0D91
ljmqh                   0D51	ljmqi                   0AA1
ljmry                   0DA1	ljmtm                   0391
ljmtn                   0311	ljmts                   0091
ljmtx                   0051	ljmug                   07F1
ljmus                   0791	ljmuu                   06D1
ljmwq                   06E1	ljmwz                   0461
ljmxj                   0741	ljnzs                   1089
ljohd                   1011	ljpqr                   2E55
ljvgi                   0ABC	ljvgx                   097C
ljvhe                   0BDC	ljvig                   0F9C
ljviq                   0CDC	ljviy                   0AEC
ljvkj                   0C2C	ljvkm                   0CEC
ljvma                   02DC	ljvmq                   06FC
ljvmr                   067C	ljvnf                   071C
ljvnp                   045C	ljvoj                   020C
ljvoo                   03CC	ljvov                   004C
ljvoz                   062C	ljvpr                   070C
ljvqd                   054C	ljvrt                   0C34
ljvst                   0B24	ljvvn                   0134
ljvwa                   0094	ljvwj                   0634
ljvwn                   0674	ljvxj                   0514
ljvye                   0284	ljvyz                   0664
ljvzg                   04E4	ljvzi                   05E4
ljwys                   13BC	ljxin                   1234
ljxlu                   13C4	ljyhm                   09B8
ljyho                   08F8	ljyjx                   0828
ljyll                   0E08	ljyon                   0228
ljyop                   0328	ljypm                   0188
ljypw                   06E8	ljyrl                   0870
ljyrz                   0910	ljysd                   0950
ljytk                   0AA0	ljytt                   0820
ljyua                   0A80	ljyvt                   0C40
ljywa                   02F0	ljyxl                   0430
ljyxr                   0570	ljyxw                   06D0
ljyyn                   0260	ljyyo                   03E0
ljyyq                   00A0	ljyyw                   01E0
ljyzx                   0420	ljyzz                   0520
ljzas                   05C0	lkaco                   1388
lkaht                   1800	lkakh                   1110
lkamb                   1020	lkamk                   1380
lkfau                   2080	lkgak                   3F88
lkysj                   5060	lnccf                   083F
lncdq                   0DFF	lncew                   09EF
lncgy                   02FF	lnchb                   037F
lncin                   047F	lnciv                   065F
lncjd                   045F	lncjq                   01AF
lnckc                   03CF	lnckg                   018F
lncko                   07AF	lncla                   05EF
lnclo                   04CF	lnclp                   044F
lncmq                   0897	lncor                   0867
lncoz                   0A47	lncpc                   0887
lncpe                   0987	lncrf                   0177
lncrm                   03D7	lncsd                   0777
lncsk                   05F7	lncsu                   0497
lnctj                   0367	lnctp                   0067
lnctu                   0387	lnctz                   0347
lncuh                   0147	lncup                   0767
lncvh                   0407	lncvi                   0587
lncvj                   0507	lncvm                   05C7
lndvb                   135F	lndxm                   13CF
lndxn                   134F	lneew                   13D7
lneex                   1357	lnegj                   1457
lnfds                   08DB	lnfdt                   085B
lnfdv                   095B	lnffd                   0A2B
lnfft                   0A0B	lnfgb                   080B
lnfif                   021B	lnfij                   025B
lnfin                   001B	lnfiw                   07BB
lnfji                   05FB	lnfjm                   079B
lnfkc                   03AB	lnfma                   06CB
lnfog                   0DF3	lnfqm                   0CA3
lnfst                   0733	lnftf                   0573
lnfth                   0613	lnfty                   03A3
lnfvt                   0603	lnfvw                   06C3
lngvq                   139B	lngxy                   11EB
lngyg                   13CB	lnhfm                   1393
lnhfo                   12D3	lnhhl                   1263
lnjuv                   3C2F	lnlwd                   2303
lnofp                   0A1E	lnoga                   08DE
lnogj                   0E7E	lnohl                   0A2E
lnohx                   086E	lnoid                   0B0E
lnojg                   0E8E	lnokd                   037E
lnokq                   02DE	lnokz                   005E
lnomc                   059E	lnonc                   02CE
lnond                   024E	lnonf                   034E
lnono                   06AE	lnoon                   040E
lnope                   09B6	lnopt                   0816
lnoqm                   0CF6	lnorb                   0D16
lnorv                   0966	lnovn                   0576
lnovy                   0596	lnown                   0026
lnoxc                   0086	lnoxi                   01C6
lnoxn                   0726	lnoya                   0686
lnpvx                   184E	lnqjq                   13A6
lnqld                   1426	lnrft                   0A3A
lnrgd                   093A	lnrgf                   087A
lnrgs                   099A	lnrhg                   0CBA
lnrjj                   094A	lnrkn                   0C4A
lnrkq                   02BA	lnrmf                   043A
lnrnc                   02AA	lnrnw                   02CA
lnron                   066A	lnroo                   07EA
lnroq                   04AA	lnrou                   04EA
lnrpf                   074A	lnrpt                   0A72
lnrqi                   0AD2	lnrqm                   0892
lnrqo                   0992	lnrrf                   0D32
lnrtt                   0C62	lnruj                   0C42
lnruk                   0DC2	lnrvx                   0672
lnrwb                   0432	lnrwf                   0472
lnrwx                   0552	lnryf                   0622
lnryn                   0422	lnryw                   0782
lnrzh                   0442	lntat                   136A
lntil                   1172	locfs                   58F7
lolqx                   7703	louhb                   775E

