	                ;*********************************************************************************************************
	                ; 
	                ; Autogenerated by DizAssembler:
	                ;   https://github.com/codenjoyme/8080-emulator/blob/master/src/main/java/spec/assembler/DizAssembler.java
	                ; From: src/main/resources/lik/apps/buran/buran.rks
	                ; In test: DizAssemblerTest.testDizAssembly()
	                ; 
	                ;*********************************************************************************************************
	                
	                         CPU  8080
	                         .ORG 00000h
	                lkahx    EQU 01840h
	                lkfau    EQU 02080h
	                lkezb    EQU 02530h
	                lkgnt    EQU 03060h
	                lkglh    EQU 03070h
	                lodqa    EQU 044DBh
	                lonea    EQU 044E6h
	                lktws    EQU 049B4h
	                lofpj    EQU 05703h
	                lolqx    EQU 07703h
	                lcncb    EQU 08000h
	                lcayz    EQU 08001h
	                lggar    EQU 08002h
	                lftxp    EQU 08003h
	                lbxyf    EQU 08005h
	                lfqwv    EQU 08007h
	                lcmsf    EQU 08008h
	                lcmzp    EQU 08010h
	                lcmpt    EQU 08018h
	                lcnbl    EQU 08020h
	                lcmyz    EQU 08030h
	                lcncf    EQU 08040h
	                lcazd    EQU 08041h
	                lcawr    EQU 08051h
	                lgfyj    EQU 08052h
	                lcndh    EQU 08400h
	                lcasc    EQU 08FF1h
	                lgfjy    EQU 08FFAh
	                lcjko    EQU 08FFCh
	                lcopl    EQU 09000h
	                lcomj    EQU 09030h
	                lfrxw    EQU 0909Fh
	                lcopq    EQU 091C0h
	                lcomf    EQU 09270h
	                lcomg    EQU 093F0h
	                lccno    EQU 09481h
	                lfskp    EQU 09727h
	                lggzl    EQU 0984Ah
	                lcoia    EQU 09890h
	                lcoaa    EQU 098A8h
	                lcbwy    EQU 098A9h
	                lggyq    EQU 098AAh
	                lbzgd    EQU 09925h
	                lcbxb    EQU 09929h
	                lghje    EQU 09982h
	                lcohq    EQU 099F0h
	                lcnzt    EQU 09A28h
	                lbzdh    EQU 09A35h
	                lghgl    EQU 09B12h
	                lcohf    EQU 09B30h
	                lccgt    EQU 09B61h
	                lcljm    EQU 09B84h
	                lfvgv    EQU 09C63h
	                lcocd    EQU 09D48h
	                lcojn    EQU 09D50h
	                lccgl    EQU 09D51h
	                lghid    EQU 09D52h
	                lbzhr    EQU 09F05h
	                lcgye    EQU 0A0D1h
	                lfwvn    EQU 0A177h
	                lctcv    EQU 0A260h
	                lctau    EQU 0A290h
	                lcgxs    EQU 0A291h
	                lglzk    EQU 0A292h
	                lctcu    EQU 0A2E0h
	                lgiyx    EQU 0A356h
	                lfzyk    EQU 0A3E3h
	                lchbd    EQU 0A421h
	                lcgoz    EQU 0A479h
	                lgipw    EQU 0A4FEh
	                lcgyn    EQU 0A671h
	                lctdw    EQU 0A6A0h
	                lfzps    EQU 0A6EBh
	                lgaad    EQU 0A703h
	                lfwyt    EQU 0A727h
	                lcsug    EQU 0A7E8h
	                lcsmj    EQU 0A818h
	                lcsyv    EQU 0A840h
	                lcsvv    EQU 0A970h
	                lcduw    EQU 0A985h
	                lcsxt    EQU 0AA20h
	                lcgur    EQU 0AA21h
	                lglwj    EQU 0AA22h
	                lglmm    EQU 0AAAAh
	                lcdtz    EQU 0AB25h
	                lgivv    EQU 0AB66h
	                lfwrw    EQU 0AE97h
	                lginc    EQU 0AEEEh
	                lcszv    EQU 0AF40h
	                lgnor    EQU 0B222h
	                lcuoj    EQU 0B250h
	                lgnmz    EQU 0B252h
	                lcuqd    EQU 0B320h
	                lcrrp    EQU 0B444h
	                lcifj    EQU 0B509h
	                lcupu    EQU 0B590h
	                lcfes    EQU 0B5CDh
	                lciol    EQU 0B761h
	                lgbhd    EQU 0B863h
	                lgbeh    EQU 0BB33h
	                lgnkp    EQU 0BB42h
	                lgnlh    EQU 0BC22h
	                lciab    EQU 0BE09h
	                ldlif    EQU 0C000h
	                ldlft    EQU 0C010h
	                lgozx    EQU 0C037h
	                ldlfj    EQU 0C170h
	                lgozr    EQU 0C337h
	                ldkwn    EQU 0C438h
	                ldmqr    EQU 0D800h
	                lhlqv    EQU 0F802h
	                ldstf    EQU 0FF00h
	                lhlrv    EQU 0FF02h
	                lgzot    EQU 0FF03h
	                ldsqg    EQU 0FFF0h
	                ldsgk    EQU 0FFF8h
	                lgwbe    EQU 0FFFFh
0000	21 00 00                 LXI H,00000h
0003	22 51 80                 SHLD lcawr
0006	CD 10 C0        lnoxd:   CALL ldlft
0009	21 30 25                 LXI H,lkezb
000C	22 FC 8F                 SHLD lcjko
000F	CD A0 07                 CALL ljyzq
0012	21 4D 09                 LXI H,ljjgx
0015	CD 38 C4                 CALL ldkwn
0018	CD A9 07                 CALL ljmms
001B	21 48 9D                 LXI H,lcocd
001E	01 41 0A                 LXI B,ljmrd
0021	CD 1E 07                 CALL lnolv
0024	CD A0 07                 CALL ljyzq
0027	21 00 80                 LXI H,lcncb
002A	3E 4F                    MVI A,04Fh
002C	36 00           ljvob:   MVI M,000h
002E	23                       INX H
002F	3D                       DCR A
0030	C2 2C 00                 JNZ ljvob
0033	21 2F 17                 LXI H,lndxz
0036	3E 20                    MVI A,020h
0038	36 00           ljymj:   MVI M,000h
003A	23                       INX H
003B	3D                       DCR A
003C	C2 38 00                 JNZ ljymj
003F	22 03 80                 SHLD lftxp
0042	3E 97                    MVI A,097h
0044	32 02 80                 STA lggar
0047	11 C0 01                 LXI D,ljyzm
004A	21 A0 10                 LXI H,lkama
004D	22 FC 8F                 SHLD lcjko
0050	44                       MOV B,H
0051	EB                       XCHG
0052	EB              lnrvp:   XCHG
0053	2A FC 8F                 LHLD lcjko
0056	60                       MOV H,B
0057	7D                       MOV A,L
0058	C6 0A                    ADI 00Ah
005A	6F                       MOV L,A
005B	22 FC 8F                 SHLD lcjko
005E	EB                       XCHG
005F	CD 38 C4                 CALL ldkwn
0062	23                       INX H
0063	7E                       MOV A,M
0064	A7                       ANA A
0065	C2 52 00                 JNZ lnrvp
0068	2A 51 80                 LHLD lcawr
006B	7D                       MOV A,L
006C	54                       MOV D,H
006D	21 DB 44                 LXI H,lodqa
0070	22 FC 8F                 SHLD lcjko
0073	BA                       CMP D
0074	DA 7B 00                 JC lnfib
0077	57                       MOV D,A
0078	32 52 80                 STA lgfyj
007B	CD 70 07        lnfib:   CALL ljyxj
007E	7A                       MOV A,D
007F	21 E6 44                 LXI H,lonea
0082	22 FC 8F                 SHLD lcjko
0085	CD 70 07                 CALL ljyxj
0088	2A BE 01        ljypk:   LHLD lnokg
008B	CD AE 07                 CALL lnonq
008E	01 1F 05                 LXI B,0051Fh
0091	CD DD 00                 CALL ljjjg
0094	CD A0 07                 CALL ljyzq
0097	CD 37 C3                 CALL lgozr
009A	CD 32 07                 CALL lnrvv
009D	FE 02                    CPI 002h
009F	CA E4 00                 JZ ljvya
00A2	FE 03                    CPI 003h
00A4	CA F1 00                 JZ ljmtg
00A7	FE 06                    CPI 006h
00A9	C2 88 00                 JNZ ljypk
00AC	7D                       MOV A,L
00AD	FE BE                    CPI 0BEh
00AF	D0                       RNC
00B0	FE B4                    CPI 0B4h
00B2	D2 45 01                 JNC ljjvr
00B5	FE AA                    CPI 0AAh
00B7	D2 2A 01                 JNC lnrnn
00BA	21 30 90                 LXI H,lcomj
00BD	11 70 30                 LXI D,lkglh
00C0	0E 00                    MVI C,000h
00C2	CD 0B 01                 CALL lnflb
00C5	21 A0 A6                 LXI H,lctdw
00C8	11 40 18                 LXI D,lkahx
00CB	CD 0B 01                 CALL lnflb
00CE	21 48 10                 LXI H,lkacz
00D1	22 FC 8F                 SHLD lcjko
00D4	21 C5 07                 LXI H,ljjwo
00D7	CD 38 C4                 CALL ldkwn
00DA	C3 88 00                 JMP ljypk
00DD	71              ljjjg:   MOV M,C
00DE	2B                       DCX H
00DF	05                       DCR B
00E0	C2 DD 00                 JNZ ljjjg
00E3	C9                       RET
00E4	3A BE 01        ljvya:   LDA lnokg
00E7	FE AA                    CPI 0AAh
00E9	DA 88 00                 JC ljypk
00EC	3E F6                    MVI A,0F6h
00EE	C3 FB 00                 JMP lnfia
00F1	3A BE 01        ljmtg:   LDA lnokg
00F4	FE BE                    CPI 0BEh
00F6	D2 88 00                 JNC ljypk
00F9	3E 0A                    MVI A,00Ah
00FB	2A BE 01        lnfia:   LHLD lnokg
00FE	85                       ADD L
00FF	32 BE 01                 STA lnokg
0102	01 00 05                 LXI B,00500h
0105	CD DD 00                 CALL ljjjg
0108	C3 88 00                 JMP ljypk
010B	43              lnflb:   MOV B,E
010C	71              ljvot:   MOV M,C
010D	23                       INX H
010E	05                       DCR B
010F	C2 0C 01                 JNZ ljvot
0112	7D                       MOV A,L
0113	93                       SUB E
0114	6F                       MOV L,A
0115	24                       INR H
0116	15                       DCR D
0117	C2 0B 01                 JNZ lnflb
011A	C9                       RET
011B	C5              lnfip:   PUSH B
011C	0E 7F                    MVI C,07Fh
011E	CD 37 C0                 CALL lgozx
0121	0E 08                    MVI C,008h
0123	CD 37 C0                 CALL lgozx
0126	C1                       POP B
0127	C3 37 C0                 JMP lgozx
012A	3A DE 01        lnrnn:   LDA lnola
012D	3C                       INR A
012E	FE 34                    CPI 034h
0130	DA 35 01                 JC ljjsl
0133	3E 31                    MVI A,031h
0135	32 DE 01        ljjsl:   STA lnola
0138	4F                       MOV C,A
0139	21 B4 49                 LXI H,lktws
013C	22 FC 8F                 SHLD lcjko
013F	CD 1B 01                 CALL lnfip
0142	C3 88 00                 JMP ljypk
0145	CD 10 C0        ljjvr:   CALL ldlft
0148	3A DE 01                 LDA lnola
014B	D6 2F                    SUI 02Fh
014D	4F                       MOV C,A
014E	3E FF                    MVI A,0FFh
0150	A7              ljyxb:   ANA A
0151	1F                       RAR
0152	0D                       DCR C
0153	C2 50 01                 JNZ ljyxb
0156	32 07 80                 STA lfqwv
0159	CD 61 07                 CALL ljmwt
015C	CD 8E 07                 CALL lnoog
015F	21 18 A8                 LXI H,lcsmj
0162	22 FC 8F                 SHLD lcjko
0165	21 B4 07                 LXI H,ljvwk
0168	CD 38 C4                 CALL ldkwn
016B	21 E8 A7                 LXI H,lcsug
016E	01 DF 15                 LXI B,lndwo
0171	CD 1E 07                 CALL lnolv
0174	21 00 90                 LXI H,lcopl
0177	01 C3 0E                 LXI B,lnfqy
017A	CD A4 07                 CALL ljvyw
017D	CD 1E 07                 CALL lnolv
0180	21 CD B5                 LXI H,lcfes
0183	01 81 10                 LXI B,ljojo
0186	CD A0 07                 CALL ljyzq
0189	CD 1E 07                 CALL lnolv
018C	CD 47 06                 CALL lncvd
018F	AF                       XRA A
0190	32 18 80        ljyww:   STA lcmpt
0193	21 07 80                 LXI H,lfqwv
0196	4E                       MOV C,M
0197	A1                       ANA C
0198	CA A3 01                 JZ lnfug
019B	E6 01                    ANI 001h
019D	CA BC 03                 JZ ljvli
01A0	C3 2D 05                 JMP ljjmh
01A3	CD 32 06        lnfug:   CALL lnrvt
01A6	7D                       MOV A,L
01A7	E6 AB                    ANI 0ABh
01A9	C2 43 02                 JNZ lnfur
01AC	06 07                    MVI B,007h
01AE	21 08 80                 LXI H,lcmsf
01B1	CD FB 05        ljmte:   CALL lnfji
01B4	CA 10 02                 JZ ljywn
01B7	05                       DCR B
01B8	C2 B1 01                 JNZ ljmte
01BB	C3 BC 03                 JMP ljvli
	                
01BE	A8 92           lnokg:   DB 0A8h, 092h
01C0	69 6E 73 74     ljyzm:   DB 069h, 06Eh, 073h, 074h, 072h, 075h, 06Bh, 063h, 069h, 071h
	. . .
01C8	69 71 

01CA	00 75 72 6F              DB 000h, 075h, 072h, 06Fh, 077h, 065h, 06Eh, 078h, 020h, 073h
	. . .
01D2	20 73 

01D4	6C 6F 76 6E              DB 06Ch, 06Fh, 076h, 06Eh, 06Fh, 073h, 074h, 069h, 020h, 020h
	. . .
01DC	20 20 

01DE	32 00 69 67     lnola:   DB 032h, 000h, 069h, 067h, 072h, 061h, 000h, 077h, 079h, 068h
	. . .
01E6	79 68 

01E8	6F 64 00 20              DB 06Fh, 064h, 000h, 020h, 000h, 075h, 06Eh, 069h, 07Eh, 074h
	. . .
01F0	7E 74 

01F2	6F 76 65 6E              DB 06Fh, 076h, 065h, 06Eh, 06Fh, 020h, 063h, 065h, 06Ch, 065h
	. . .
01FA	6C 65 

01FC	6A 00 6C 75              DB 06Ah, 000h, 06Ch, 075h, 07Eh, 07Bh, 069h, 06Ah, 020h, 072h
	. . .
0204	20 72 

0206	65 7A 75 6C              DB 065h, 07Ah, 075h, 06Ch, 078h, 074h, 061h, 074h, 000h, 000h
	. . .
020E	00 00 

0210	3C              ljywn:   INR A
0211	CD 07 06                 CALL lncuz
0214	CD 32 06                 CALL lnrvt
0217	EB                       XCHG
0218	21 20 80                 LXI H,lcnbl
021B	CD 1D 06                 CALL ljjkb
021E	CD 32 06        lnokn:   CALL lnrvt
0221	7C                       MOV A,H
0222	E6 7E                    ANI 07Eh
0224	FE 11                    CPI 011h
0226	DA 1E 02                 JC lnokn
0229	57                       MOV D,A
022A	5D                       MOV E,L
022B	21 30 80                 LXI H,lcmyz
022E	CD 1D 06                 CALL ljjkb
0231	3E 80                    MVI A,080h
0233	21 10 80                 LXI H,lcmzp
0236	CD 07 06                 CALL lncuz
0239	CD 61 07                 CALL ljmwt
023C	21 40 80                 LXI H,lcncf
023F	34                       INR M
0240	CD 61 07                 CALL ljmwt
0243	CD 47 06        lnfur:   CALL lncvd
0246	06 01                    MVI B,001h
0248	21 08 80        ljyph:   LXI H,lcmsf
024B	CD FB 05                 CALL lnfji
024E	CA B3 03                 JZ lnfrm
0251	21 20 80                 LXI H,lcnbl
0254	CD 12 06                 CALL lnrwj
0257	D5                       PUSH D
0258	21 30 80                 LXI H,lcmyz
025B	CD 12 06                 CALL lnrwj
025E	EB                       XCHG
025F	D1                       POP D
0260	CD E6 05                 CALL lnoxy
0263	2D                       DCR L
0264	2D                       DCR L
0265	0E 03                    MVI C,003h
0267	1E 04           lncth:   MVI E,004h
0269	36 00           ljmlp:   MVI M,000h
026B	2C                       INR L
026C	1D                       DCR E
026D	C2 69 02                 JNZ ljmlp
0270	11 FC 00                 LXI D,000FCh
0273	19                       DAD D
0274	0D                       DCR C
0275	C2 67 02                 JNZ lncth
0278	CD 32 06                 CALL lnrvt
027B	7C                       MOV A,H
027C	1E 04                    MVI E,004h
027E	CD A1 05                 CALL ljmww
0281	A7                       ANA A
0282	1F                       RAR
0283	DA 87 02                 JC lncts
0286	2F                       CMA
0287	4F              lncts:   MOV C,A
0288	21 10 80        ljypc:   LXI H,lcmzp
028B	CD FB 05                 CALL lnfji
028E	81                       ADD C
028F	CD 07 06                 CALL lncuz
0292	CD 3D 05                 CALL ljjjv
0295	7A                       MOV A,D
0296	A7                       ANA A
0297	C2 9F 02                 JNZ lnchk
029A	0E 80           lnrlg:   MVI C,080h
029C	C3 88 02                 JMP ljypc
029F	7C              lnchk:   MOV A,H
02A0	FE 10                    CPI 010h
02A2	DA 9A 02                 JC lnrlg
02A5	FE 80                    CPI 080h
02A7	D2 9A 02                 JNC lnrlg
02AA	CD E6 05                 CALL lnoxy
02AD	2D                       DCR L
02AE	2D                       DCR L
02AF	22 05 80                 SHLD lbxyf
02B2	21 18 80                 LXI H,lcmpt
02B5	CD FB 05                 CALL lnfji
02B8	E5                       PUSH H
02B9	F5                       PUSH PSW
02BA	1E 05                    MVI E,005h
02BC	CD A1 05                 CALL ljmww
02BF	21 2F 16                 LXI H,lndxx
02C2	11 08 00                 LXI D,00008h
02C5	CD A8 05                 CALL ljyqc
02C8	F1                       POP PSW
02C9	E1                       POP H
02CA	3C                       INR A
02CB	CD 07 06                 CALL lncuz
02CE	A7                       ANA A
02CF	C2 B3 03                 JNZ lnfrm
02D2	C5                       PUSH B
02D3	21 20 80                 LXI H,lcnbl
02D6	CD 12 06                 CALL lnrwj
02D9	D5                       PUSH D
02DA	21 30 80                 LXI H,lcmyz
02DD	CD 12 06                 CALL lnrwj
02E0	14                       INR D
02E1	CD 1D 06                 CALL ljjkb
02E4	E1                       POP H
02E5	AF                       XRA A
02E6	32 00 80                 STA lcncb
02E9	47                       MOV B,A
02EA	4F                       MOV C,A
02EB	3E 88                    MVI A,088h
02ED	94                       SUB H
02EE	D2 F6 02                 JNC lnotw
02F1	32 00 80                 STA lcncb
02F4	2F                       CMA
02F5	3C                       INR A
02F6	67              lnotw:   MOV H,A
02F7	3E E0                    MVI A,0E0h
02F9	92                       SUB D
02FA	2F                       CMA
02FB	3C                       INR A
02FC	16 FF                    MVI D,0FFh
02FE	5F                       MOV E,A
02FF	19              lncgy:   DAD D
0300	03                       INX B
0301	7C                       MOV A,H
0302	A7                       ANA A
0303	C2 FF 02                 JNZ lncgy
0306	78                       MOV A,B
0307	A7                       ANA A
0308	CA 0D 03                 JZ ljjlj
030B	0E FF                    MVI C,0FFh
030D	79              ljjlj:   MOV A,C
030E	A7                       ANA A
030F	1F                       RAR
0310	A7                       ANA A
0311	1F                       RAR
0312	A7                       ANA A
0313	1F                       RAR
0314	21 00 80                 LXI H,lcncb
0317	34                       INR M
0318	35                       DCR M
0319	C2 1E 03                 JNZ lnokp
031C	2F                       CMA
031D	3C                       INR A
031E	C6 80           lnokp:   ADI 080h
0320	C1                       POP B
0321	F5                       PUSH PSW
0322	F1              lnrxb:   POP PSW
0323	F5                       PUSH PSW
0324	CD 3D 05                 CALL ljjjv
0327	CD E6 05                 CALL lnoxy
032A	24                       INR H
032B	CD AE 07                 CALL lnonq
032E	3E 80                    MVI A,080h
0330	CA 38 03                 JZ ljymd
0333	0F              lnfrn:   RRC
0334	0D                       DCR C
0335	C2 33 03                 JNZ lnfrn
0338	77              ljymd:   MOV M,A
0339	7D                       MOV A,L
033A	A7                       ANA A
033B	C2 22 03                 JNZ lnrxb
033E	F1                       POP PSW
033F	21 01 01                 LXI H,00101h
0342	22 F1 8F        lnrxv:   SHLD lcasc
0345	CD 70 C1                 CALL ldlfj
0348	24                       INR H
0349	2C                       INR L
034A	2C                       INR L
034B	7D                       MOV A,L
034C	FE 3C                    CPI 03Ch
034E	DA 42 03                 JC lnrxv
0351	22 F1 8F        ljmtr:   SHLD lcasc
0354	CD 70 C1                 CALL ldlfj
0357	25                       DCR H
0358	2D                       DCR L
0359	2D                       DCR L
035A	F2 51 03                 JP ljmtr
035D	21 80 20                 LXI H,lkfau
0360	22 F1 8F                 SHLD lcasc
0363	CD A9 07                 CALL ljmms
0366	21 FF FF                 LXI H,lgwbe
0369	22 FA 8F                 SHLD lgfjy
036C	CD 10 C0                 CALL ldlft
036F	CD A0 07                 CALL ljyzq
0372	21 02 F8                 LXI H,lhlqv
0375	11 20 00                 LXI D,00020h
0378	06 32                    MVI B,032h
037A	73              lnrkx:   MOV M,E
037B	CD 17 07                 CALL lncsp
037E	36 00                    MVI M,000h
0380	78                       MOV A,B
0381	CD 17 07                 CALL lncsp
0384	04                       INR B
0385	78                       MOV A,B
0386	FE C8                    CPI 0C8h
0388	C2 7A 03                 JNZ lnrkx
038B	AF                       XRA A
038C	67                       MOV H,A
038D	6F                       MOV L,A
038E	22 FA 8F                 SHLD lgfjy
0391	3A 41 80                 LDA lcazd
0394	32 51 80                 STA lcawr
0397	C3 06 00                 JMP lnoxd
039A	AF 57 5F 1A              DB 0AFh, 057h, 05Fh, 01Ah, 067h, 013h, 01Ah, 06Fh, 013h, 022h
	. . .
03A2	13 22 

03A4	03 80 CD 32              DB 003h, 080h, 0CDh, 032h, 007h, 0C0h, 07Ah, 0FEh, 009h, 0C2h
	. . .
03AC	09 C2 

03AE	9D 03 C3 9A              DB 09Dh, 003h, 0C3h, 09Ah, 003h
	. . .
03B2	03 

03B3	04              lnfrm:   INR B
03B4	78                       MOV A,B
03B5	FE 08                    CPI 008h
03B7	C2 48 02                 JNZ ljyph
03BA	06 00                    MVI B,000h
03BC	CD 32 07        ljvli:   CALL lnrvv
03BF	F5                       PUSH PSW
03C0	3A 08 80                 LDA lcmsf
03C3	A7                       ANA A
03C4	C2 E4 03                 JNZ ljvxu
03C7	F1                       POP PSW
03C8	FE 06                    CPI 006h
03CA	C2 28 05                 JNZ ljyqd
03CD	21 08 80                 LXI H,lcmsf
03D0	34                       INR M
03D1	21 00 84                 LXI H,lcndh
03D4	22 20 80                 SHLD lcnbl
03D7	21 00 D8                 LXI H,ldmqr
03DA	22 30 80                 SHLD lcmyz
03DD	AF                       XRA A
03DE	32 10 80                 STA lcmzp
03E1	C3 02 04                 JMP lnrzd
03E4	3A 18 80        ljvxu:   LDA lcmpt
03E7	E6 03                    ANI 003h
03E9	CA EE 03                 JZ lnomo
03EC	E1                       POP H
03ED	F5                       PUSH PSW
03EE	F1              lnomo:   POP PSW
03EF	21 10 80                 LXI H,lcmzp
03F2	FE 09                    CPI 009h
03F4	CA FE 03                 JZ lnokc
03F7	FE 07                    CPI 007h
03F9	C2 FD 03                 JNZ ljjik
03FC	35                       DCR M
03FD	35              ljjik:   DCR M
03FE	34              lnokc:   INR M
03FF	3A 10 80                 LDA lcmzp
0402	CD 3D 05        lnrzd:   CALL ljjjv
0405	E5                       PUSH H
0406	D5                       PUSH D
0407	06 07                    MVI B,007h
0409	21 08 80        ljmnp:   LXI H,lcmsf
040C	CD FB 05                 CALL lnfji
040F	CA EE 04                 JZ lnooa
0412	E1                       POP H
0413	E5                       PUSH H
0414	7C                       MOV A,H
0415	21 20 80                 LXI H,lcnbl
0418	CD 12 06                 CALL lnrwj
041B	92                       SUB D
041C	F2 21 04                 JP ljmwv
041F	2F                       CMA
0420	3C                       INR A
0421	FE 03           ljmwv:   CPI 003h
0423	D2 EE 04                 JNC lnooa
0426	D1                       POP D
0427	E1                       POP H
0428	E5                       PUSH H
0429	D5                       PUSH D
042A	7C                       MOV A,H
042B	21 30 80                 LXI H,lcmyz
042E	CD 12 06                 CALL lnrwj
0431	92                       SUB D
0432	F2 37 04                 JP lncsf
0435	2F                       CMA
0436	3C                       INR A
0437	FE 03           lncsf:   CPI 003h
0439	D2 EE 04                 JNC lnooa
043C	D1                       POP D
043D	E1                       POP H
043E	CD E6 05                 CALL lnoxy
0441	AF                       XRA A
0442	11 F8 FF                 LXI D,ldsgk
0445	19              ljjwv:   DAD D
0446	22 05 80                 SHLD lbxyf
0449	F5                       PUSH PSW
044A	CD AE 07                 CALL lnonq
044D	F1                       POP PSW
044E	F5                       PUSH PSW
044F	11 20 00                 LXI D,00020h
0452	21 6F 16                 LXI H,lndyb
0455	CD A8 05                 CALL ljyqc
0458	CD A0 07                 CALL ljyzq
045B	F1                       POP PSW
045C	F5                       PUSH PSW
045D	C5                       PUSH B
045E	A7                       ANA A
045F	C2 6A 04                 JNZ lnrov
0462	06 14                    MVI B,014h
0464	0B              ljvzh:   DCX B
0465	78                       MOV A,B
0466	A7                       ANA A
0467	C2 64 04                 JNZ ljvzh
046A	C6 03           lnrov:   ADI 003h
046C	07                       RLC
046D	07                       RLC
046E	21 00 C0                 LXI H,ldlif
0471	1E 00                    MVI E,000h
0473	47                       MOV B,A
0474	48              ljvwv:   MOV C,B
0475	7E                       MOV A,M
0476	E6 20                    ANI 020h
0478	32 02 F8        ljynt:   STA lhlqv
047B	0D                       DCR C
047C	C2 78 04                 JNZ ljynt
047F	23                       INX H
0480	1D                       DCR E
0481	C2 74 04                 JNZ ljvwv
0484	C1                       POP B
0485	2A 05 80                 LHLD lbxyf
0488	11 F0 FF                 LXI D,ldsqg
048B	F1                       POP PSW
048C	3C                       INR A
048D	FE 07                    CPI 007h
048F	DA 45 04                 JC ljjwv
0492	AF                       XRA A
0493	32 00 80                 STA lcncb
0496	21 08 80                 LXI H,lcmsf
0499	77                       MOV M,A
049A	CD 07 06                 CALL lncuz
049D	21 18 80                 LXI H,lcmpt
04A0	CD 07 06                 CALL lncuz
04A3	CD 61 07                 CALL ljmwt
04A6	CD 8E 07                 CALL lnoog
04A9	21 41 80                 LXI H,lcazd
04AC	7E                       MOV A,M
04AD	3C                       INR A
04AE	27                       DAA
04AF	77                       MOV M,A
04B0	2B                       DCX H
04B1	35                       DCR M
04B2	FE 80                    CPI 080h
04B4	D2 C0 04                 JNC ljzaq
04B7	CD 61 07                 CALL ljmwt
04BA	CD 8E 07                 CALL lnoog
04BD	C3 2D 05                 JMP ljjmh
04C0	0E 33           ljzaq:   MVI C,033h
04C2	CD 10 C0                 CALL ldlft
04C5	CD A4 07                 CALL ljvyw
04C8	21 00 90                 LXI H,lcopl
04CB	11 60 30                 LXI D,lkgnt
04CE	D5                       PUSH D
04CF	CD 0B 01                 CALL lnflb
04D2	D1                       POP D
04D3	21 9F 90                 LXI H,lfrxw
04D6	CD 0B 01                 CALL lnflb
04D9	CD A0 07                 CALL ljyzq
04DC	21 73 10                 LXI H,lnhfh
04DF	22 FC 8F                 SHLD lcjko
04E2	21 76 09                 LXI H,lnopj
04E5	CD 38 C4                 CALL ldkwn
04E8	CD 37 C3                 CALL lgozr
04EB	C3 06 00                 JMP lnoxd
04EE	05              lnooa:   DCR B
04EF	C2 09 04                 JNZ ljmnp
04F2	D1                       POP D
04F3	E1                       POP H
04F4	7C                       MOV A,H
04F5	A7                       ANA A
04F6	CA 02 05                 JZ lnrzf
04F9	7A                       MOV A,D
04FA	A7                       ANA A
04FB	CA 02 05                 JZ lnrzf
04FE	3C                       INR A
04FF	C2 08 05                 JNZ ljyqt
0502	32 08 80        lnrzf:   STA lcmsf
0505	C3 2D 05                 JMP ljjmh
0508	E5              ljyqt:   PUSH H
0509	2A 01 80                 LHLD lcayz
050C	3A 00 80                 LDA lcncb
050F	77                       MOV M,A
0510	E1                       POP H
0511	CD E6 05                 CALL lnoxy
0514	24                       INR H
0515	3E 80                    MVI A,080h
0517	CA 1F 05                 JZ lncjb
051A	0F              lnrmx:   RRC
051B	0D                       DCR C
051C	C2 1A 05                 JNZ lnrmx
051F	4E              lncjb:   MOV C,M
0520	77                       MOV M,A
0521	79                       MOV A,C
0522	32 00 80                 STA lcncb
0525	22 01 80                 SHLD lcayz
0528	A7              ljyqd:   ANA A
0529	3D              ljmnb:   DCR A
052A	C2 29 05                 JNZ ljmnb
052D	3A 41 80        ljjmh:   LDA lcazd
0530	07                       RLC
0531	2F                       CMA
0532	3D              lnrwd:   DCR A
0533	C2 32 05                 JNZ lnrwd
0536	3A 18 80                 LDA lcmpt
0539	3C                       INR A
053A	C3 90 01                 JMP ljyww
053D	21 20 80        ljjjv:   LXI H,lcnbl
0540	CD 12 06                 CALL lnrwj
0543	D5                       PUSH D
0544	21 30 80                 LXI H,lcmyz
0547	CD 12 06                 CALL lnrwj
054A	60                       MOV H,B
054B	C1                       POP B
054C	A7                       ANA A
054D	17                       RAL
054E	D2 70 05                 JNC ljyxr
0551	05                       DCR B
0552	A7                       ANA A
0553	17                       RAL
0554	D2 66 05                 JNC lnoxz
0557	15                       DCR D
0558	A7                       ANA A
0559	17                       RAL
055A	D2 87 05                 JNC lncvi
055D	81              ljjkp:   ADD C
055E	D2 62 05                 JNC lnryt
0561	04                       INR B
0562	4F              lnryt:   MOV C,A
0563	C3 8E 05                 JMP lnooo
0566	A7              lnoxz:   ANA A
0567	17                       RAL
0568	DA 87 05                 JC lncvi
056B	14              lnflv:   INR D
056C	2F                       CMA
056D	C3 5D 05                 JMP ljjkp
0570	A7              ljyxr:   ANA A
0571	17                       RAL
0572	DA 7F 05                 JC lncip
0575	15                       DCR D
0576	A7                       ANA A
0577	17                       RAL
0578	D2 5D 05                 JNC ljjkp
057B	04              lnfjj:   INR B
057C	C3 88 05                 JMP ljyqs
057F	A7              lncip:   ANA A
0580	17                       RAL
0581	D2 7B 05                 JNC lnfjj
0584	C3 6B 05                 JMP lnflv
0587	2F              lncvi:   CMA
0588	83              ljyqs:   ADD E
0589	D2 8D 05                 JNC ljjmw
058C	14                       INR D
058D	5F              ljjmw:   MOV E,A
058E	C5              lnooo:   PUSH B
058F	44                       MOV B,H
0590	21 30 80                 LXI H,lcmyz
0593	CD 1D 06                 CALL ljjkb
0596	E1                       POP H
0597	EB                       XCHG
0598	E5                       PUSH H
0599	21 20 80                 LXI H,lcnbl
059C	CD 1D 06                 CALL ljjkb
059F	E1                       POP H
05A0	C9                       RET
05A1	A7              ljmww:   ANA A
05A2	1F                       RAR
05A3	1D                       DCR E
05A4	C2 A1 05                 JNZ ljmww
05A7	C9                       RET
05A8	A7              ljyqc:   ANA A
05A9	CA B1 05                 JZ ljmuk
05AC	19              ljvpi:   DAD D
05AD	3D                       DCR A
05AE	C2 AC 05                 JNZ ljvpi
05B1	7B              ljmuk:   MOV A,E
05B2	A7                       ANA A
05B3	1F                       RAR
05B4	C5                       PUSH B
05B5	F5              ljjtq:   PUSH PSW
05B6	56                       MOV D,M
05B7	23                       INX H
05B8	5E                       MOV E,M
05B9	23                       INX H
05BA	06 00                    MVI B,000h
05BC	E5                       PUSH H
05BD	79                       MOV A,C
05BE	A7                       ANA A
05BF	CA D0 05                 JZ ljyyg
05C2	61                       MOV H,C
05C3	7A              lnfwg:   MOV A,D
05C4	1F                       RAR
05C5	57                       MOV D,A
05C6	7B                       MOV A,E
05C7	1F                       RAR
05C8	5F                       MOV E,A
05C9	78                       MOV A,B
05CA	1F                       RAR
05CB	47                       MOV B,A
05CC	25                       DCR H
05CD	C2 C3 05                 JNZ lnfwg
05D0	2A 05 80        ljyyg:   LHLD lbxyf
05D3	72                       MOV M,D
05D4	24                       INR H
05D5	73                       MOV M,E
05D6	24                       INR H
05D7	70                       MOV M,B
05D8	25                       DCR H
05D9	25                       DCR H
05DA	2C                       INR L
05DB	22 05 80                 SHLD lbxyf
05DE	E1                       POP H
05DF	F1                       POP PSW
05E0	3D                       DCR A
05E1	C2 B5 05                 JNZ ljjtq
05E4	C1                       POP B
05E5	C9                       RET
05E6	6C              lnoxy:   MOV L,H
05E7	7A                       MOV A,D
05E8	4A                       MOV C,D
05E9	1E 03                    MVI E,003h
05EB	CD A1 05                 CALL ljmww
05EE	5F                       MOV E,A
05EF	C6 97                    ADI 097h
05F1	67                       MOV H,A
05F2	7B                       MOV A,E
05F3	07                       RLC
05F4	07                       RLC
05F5	07                       RLC
05F6	91                       SUB C
05F7	2F                       CMA
05F8	3C                       INR A
05F9	4F                       MOV C,A
05FA	C9                       RET
05FB	C5              lnfji:   PUSH B
05FC	E5                       PUSH H
05FD	23              ljjjy:   INX H
05FE	05                       DCR B
05FF	C2 FD 05                 JNZ ljjjy
0602	7E                       MOV A,M
0603	E1                       POP H
0604	C1                       POP B
0605	A7                       ANA A
0606	C9                       RET
0607	C5              lncuz:   PUSH B
0608	E5                       PUSH H
0609	23              ljmnh:   INX H
060A	05                       DCR B
060B	C2 09 06                 JNZ ljmnh
060E	77                       MOV M,A
060F	E1                       POP H
0610	C1                       POP B
0611	C9                       RET
0612	C5              lnrwj:   PUSH B
0613	E5                       PUSH H
0614	CD 28 06                 CALL ljypt
0617	5E                       MOV E,M
0618	23                       INX H
0619	56                       MOV D,M
061A	E1                       POP H
061B	C1                       POP B
061C	C9                       RET
061D	C5              ljjkb:   PUSH B
061E	E5                       PUSH H
061F	CD 28 06                 CALL ljypt
0622	73                       MOV M,E
0623	23                       INX H
0624	72                       MOV M,D
0625	E1                       POP H
0626	C1                       POP B
0627	C9                       RET
0628	04              ljypt:   INR B
0629	05                       DCR B
062A	C8                       RZ
062B	23              lnflh:   INX H
062C	23                       INX H
062D	05                       DCR B
062E	C2 2B 06                 JNZ lnflh
0631	C9                       RET
0632	2A 03 80        lnrvt:   LHLD lftxp
0635	0E 10                    MVI C,010h
0637	7C              lncrx:   MOV A,H
0638	29                       DAD H
0639	E6 60                    ANI 060h
063B	EA 3F 06                 JPE lncib
063E	23                       INX H
063F	0D              lncib:   DCR C
0640	C2 37 06                 JNZ lncrx
0643	22 03 80                 SHLD lftxp
0646	C9                       RET
0647	CD A4 07        lncvd:   CALL ljvyw
064A	3E 04                    MVI A,004h
064C	32 50 9D                 STA lcojn
064F	32 C0 91                 STA lcopq
0652	32 F0 93                 STA lcomg
0655	32 4A 98                 STA lggzl
0658	32 21 A4                 STA lchbd
065B	32 27 A7                 STA lfwyt
065E	32 66 AB                 STA lgivv
0661	32 70 A9                 STA lcsvv
0664	32 30 9B                 STA lcohf
0667	32 35 9A                 STA lbzdh
066A	32 70 92                 STA lcomf
066D	32 81 94                 STA lccno
0670	32 25 AB                 STA lcdtz
0673	32 A8 98                 STA lcoaa
0676	32 AA 98                 STA lggyq
0679	32 40 AF                 STA lcszv
067C	32 50 B2                 STA lcuoj
067F	32 22 B2                 STA lgnor
0682	32 20 B3                 STA lcuqd
0685	32 44 B4                 STA lcrrp
0688	32 09 B5                 STA lcifj
068B	32 90 B5                 STA lcupu
068E	32 EE AE                 STA lginc
0691	32 FE A4                 STA lgipw
0694	32 EB A6                 STA lfzps
0697	32 F0 99                 STA lcohq
069A	32 90 A2                 STA lctau
069D	32 92 A2                 STA lglzk
06A0	32 52 9D                 STA lghid
06A3	32 20 AA                 STA lcsxt
06A6	32 22 AA                 STA lglwj
06A9	32 85 A9                 STA lcduw
06AC	32 40 A8                 STA lcsyv
06AF	32 77 A1                 STA lfwvn
06B2	32 60 A2                 STA lctcv
06B5	32 56 A3                 STA lgiyx
06B8	32 79 A4                 STA lcgoz
06BB	32 71 A6                 STA lcgyn
06BE	3E 01                    MVI A,001h
06C0	32 52 B2                 STA lgnmz
06C3	32 28 9A                 STA lcnzt
06C6	32 25 99                 STA lbzgd
06C9	32 AA AA                 STA lglmm
06CC	32 27 97                 STA lfskp
06CF	32 D1 A0                 STA lcgye
06D2	32 E0 A2                 STA lctcu
06D5	32 E3 A3                 STA lfzyk
06D8	32 97 AE                 STA lfwrw
06DB	32 33 BB                 STA lgbeh
06DE	32 42 BB                 STA lgnkp
06E1	32 09 BE                 STA lciab
06E4	32 22 BC                 STA lgnlh
06E7	32 63 B8                 STA lgbhd
06EA	32 61 B7                 STA lciol
06ED	32 29 99                 STA lcbxb
06F0	32 05 9F                 STA lbzhr
06F3	32 12 9B                 STA lghgl
06F6	32 90 98                 STA lcoia
06F9	32 82 99                 STA lghje
06FC	32 61 9B                 STA lccgt
06FF	32 63 9C                 STA lfvgv
0702	32 84 9B                 STA lcljm
0705	3E 0E                    MVI A,00Eh
0707	32 51 9D                 STA lccgl
070A	32 91 A2                 STA lcgxs
070D	32 21 AA                 STA lcgur
0710	32 A9 98                 STA lcbwy
0713	CD A0 07                 CALL ljyzq
0716	C9                       RET
0717	3D              lncsp:   DCR A
0718	E3                       XTHL
0719	E3                       XTHL
071A	C2 17 07                 JNZ lncsp
071D	C9                       RET
071E	0A              lnolv:   LDAX B
071F	03                       INX B
0720	57                       MOV D,A
0721	0A              ljmwp:   LDAX B
0722	03                       INX B
0723	77                       MOV M,A
0724	23                       INX H
0725	15                       DCR D
0726	C2 21 07                 JNZ ljmwp
0729	0A                       LDAX B
072A	03                       INX B
072B	A7                       ANA A
072C	C8                       RZ
072D	5F                       MOV E,A
072E	19                       DAD D
072F	C3 1E 07                 JMP lnolv
0732	C5              lnrvv:   PUSH B
0733	3E 91                    MVI A,091h
0735	32 03 FF                 STA lgzot
0738	0E 00                    MVI C,000h
073A	3A 00 FF                 LDA ldstf
073D	06 08                    MVI B,008h
073F	1F              lncid:   RAR
0740	D2 56 07                 JNC lnovv
0743	0C                       INR C
0744	05                       DCR B
0745	C2 3F 07                 JNZ lncid
0748	3A 02 FF                 LDA lhlrv
074B	06 03                    MVI B,003h
074D	1F              ljjmt:   RAR
074E	D2 56 07                 JNC lnovv
0751	0C                       INR C
0752	05                       DCR B
0753	C2 4D 07                 JNZ ljjmt
0756	3E 82           lnovv:   MVI A,082h
0758	32 03 FF                 STA lgzot
075B	79                       MOV A,C
075C	2F                       CMA
075D	C6 0C                    ADI 00Ch
075F	C1                       POP B
0760	C9                       RET
0761	21 D0 05        ljmwt:   LXI H,005D0h
0764	22 FC 8F                 SHLD lcjko
0767	21 31 09                 LXI H,ljmoh
076A	CD 38 C4                 CALL ldkwn
076D	3A 40 80                 LDA lcncf
0770	C5              ljyxj:   PUSH B
0771	47                       MOV B,A
0772	CD 7B 07                 CALL lnfjb
0775	78                       MOV A,B
0776	CD 7F 07                 CALL lncih
0779	C1                       POP B
077A	C9                       RET
077B	0F              lnfjb:   RRC
077C	0F                       RRC
077D	0F                       RRC
077E	0F                       RRC
077F	E6 0F           lncih:   ANI 00Fh
0781	FE 0A                    CPI 00Ah
0783	DA 88 07                 JC ljyqk
0786	C6 07                    ADI 007h
0788	C6 30           ljyqk:   ADI 030h
078A	4F                       MOV C,A
078B	C3 37 C0                 JMP lgozx
078E	21 E0 05        lnoog:   LXI H,005E0h
0791	22 FC 8F                 SHLD lcjko
0794	21 3F 09                 LXI H,lncch
0797	CD 38 C4                 CALL ldkwn
079A	3A 41 80                 LDA lcazd
079D	C3 70 07                 JMP ljyxj
07A0	AF              ljyzq:   XRA A
07A1	C3 B0 07                 JMP ljyxe
07A4	3E 40           ljvyw:   MVI A,040h
07A6	C3 B0 07                 JMP ljyxe
07A9	3E 80           ljmms:   MVI A,080h
07AB	C3 B0 07                 JMP ljyxe
07AE	3E C0           lnonq:   MVI A,0C0h
07B0	32 02 FF        ljyxe:   STA lhlrv
07B3	C9                       RET
	                
07B4	2A 20 41 44     ljvwk:   DB 02Ah, 020h, 041h, 044h, 044h, 020h, 02Ah, 000h, 020h, 02Ah
	. . .
07BC	20 2A 

07BE	20 31 39 38              DB 020h, 031h, 039h, 038h, 039h, 020h, 02Ah
	. . .
07C2	39 20 2A 

07C5	77 79 20 2D     ljjwo:   DB 077h, 079h, 020h, 02Dh, 020h, 070h, 069h, 06Ch, 06Fh, 074h
	. . .
07CD	6F 74 

07CF	20 6B 6F 73              DB 020h, 06Bh, 06Fh, 073h, 06Dh, 069h, 07Eh, 065h, 073h, 06Bh
	. . .
07D7	73 6B 

07D9	6F 67 6F 20              DB 06Fh, 067h, 06Fh, 020h, 06Bh, 06Fh, 072h, 061h, 062h, 06Ch
	. . .
07E1	62 6C 

07E3	71 20 74 69              DB 071h, 020h, 074h, 069h, 070h, 061h, 020h, 022h, 062h, 075h
	. . .
07EB	62 75 

07ED	72 61 6E 22              DB 072h, 061h, 06Eh, 022h, 00Ah, 020h, 020h, 020h, 06Eh, 061h
	. . .
07F5	6E 61 

07F7	20 73 74 6F              DB 020h, 073h, 074h, 06Fh, 072h, 06Fh, 06Eh, 065h, 020h, 070h
	. . .
07FF	20 70 

0801	72 6F 74 69              DB 072h, 06Fh, 074h, 069h, 077h, 06Eh, 069h, 06Bh, 061h, 020h
	. . .
0809	61 20 

080B	6D 61 6E 65              DB 06Dh, 061h, 06Eh, 065h, 077h, 072h, 065h, 06Eh, 06Eh, 079h
	. . .
0813	6E 79 

0815	65 20 73 70              DB 065h, 020h, 073h, 070h, 075h, 074h, 06Eh, 069h, 06Bh, 069h
	. . .
081D	6B 69 

081F	2D 69 73 74              DB 02Dh, 069h, 073h, 074h, 072h, 065h, 062h, 069h, 074h, 065h
	. . .
0827	74 65 

0829	6C 69 0A 20              DB 06Ch, 069h, 00Ah, 020h, 020h, 020h, 073h, 020h, 06Ch, 061h
	. . .
0831	6C 61 

0833	7A 65 72 6E              DB 07Ah, 065h, 072h, 06Eh, 079h, 06Dh, 020h, 077h, 06Fh, 06Fh
	. . .
083B	6F 6F 

083D	72 75 76 65              DB 072h, 075h, 076h, 065h, 06Eh, 069h, 065h, 06Dh, 020h, 06Dh
	. . .
0845	20 6D 

0847	61 6C 6F 6A              DB 061h, 06Ch, 06Fh, 06Ah, 020h, 064h, 061h, 06Ch, 078h, 06Eh
	. . .
084F	78 6E 

0851	6F 73 74 69              DB 06Fh, 073h, 074h, 069h, 00Ah, 020h, 020h, 020h, 077h, 061h
	. . .
0859	77 61 

085B	7B 61 20 7A              DB 07Bh, 061h, 020h, 07Ah, 061h, 064h, 061h, 07Eh, 061h, 020h
	. . .
0863	61 20 

0865	2D 20 75 6E              DB 02Dh, 020h, 075h, 06Eh, 069h, 07Eh, 074h, 06Fh, 076h, 069h
	. . .
086D	76 69 

086F	74 78 20 61              DB 074h, 078h, 020h, 061h, 070h, 070h, 061h, 072h, 061h, 074h
	. . .
0877	61 74 

0879	79 20 70 72              DB 079h, 020h, 070h, 072h, 069h, 07Bh, 065h, 06Ch, 078h, 063h
	. . .
0881	78 63 

0883	65 77 20 72              DB 065h, 077h, 020h, 072h, 061h, 06Eh, 078h, 07Bh, 065h, 02Ch
	. . .
088B	65 2C 

088D	0A 20 20 20              DB 00Ah, 020h, 020h, 020h, 07Eh, 065h, 06Dh, 020h, 06Fh, 06Eh
	. . .
0895	6F 6E 

0897	69 20 70 72              DB 069h, 020h, 070h, 072h, 069h, 062h, 06Ch, 069h, 07Ah, 071h
	. . .
089F	7A 71 

08A1	74 73 71 20              DB 074h, 073h, 071h, 020h, 06Eh, 061h, 020h, 072h, 061h, 073h
	. . .
08A9	61 73 

08AB	73 74 6F 71              DB 073h, 074h, 06Fh, 071h, 06Eh, 069h, 065h, 020h, 077h, 079h
	. . .
08B3	77 79 

08B5	73 74 72 65              DB 073h, 074h, 072h, 065h, 06Ch, 061h, 00Ah, 020h, 020h, 020h
	. . .
08BD	20 20 

08BF	6E 61 20 6B              DB 06Eh, 061h, 020h, 06Bh, 06Fh, 072h, 061h, 062h, 06Ch, 065h
	. . .
08C7	6C 65 

08C9	20 69 6D 65              DB 020h, 069h, 06Dh, 065h, 065h, 074h, 073h, 071h, 020h, 06Eh
	. . .
08D1	20 6E 

08D3	65 6F 67 72              DB 065h, 06Fh, 067h, 072h, 061h, 06Eh, 069h, 07Eh, 065h, 06Eh
	. . .
08DB	65 6E 

08DD	6E 79 6A 20              DB 06Eh, 079h, 06Ah, 020h, 07Ah, 061h, 070h, 061h, 073h, 020h
	. . .
08E5	73 20 

08E7	75 70 72 61              DB 075h, 070h, 072h, 061h, 077h, 06Ch, 071h, 065h, 06Dh, 079h
	. . .
08EF	6D 79 

08F1	68 20 72 61              DB 068h, 020h, 072h, 061h, 06Bh, 065h, 074h, 00Ah, 020h, 020h
	. . .
08F9	20 20 

08FB	20 70 75 73              DB 020h, 070h, 075h, 073h, 06Bh, 020h, 072h, 061h, 06Bh, 065h
	. . .
0903	6B 65 

0905	74 79 20 2D              DB 074h, 079h, 020h, 02Dh, 020h, 070h, 072h, 06Fh, 062h, 065h
	. . .
090D	62 65 

090F	6C 0A 20 20              DB 06Ch, 00Ah, 020h, 020h, 020h, 075h, 070h, 072h, 061h, 077h
	. . .
0917	61 77 

0919	6C 65 6E 69              DB 06Ch, 065h, 06Eh, 069h, 065h, 020h, 02Dh, 020h, 06Bh, 06Ch
	. . .
0921	6B 6C 

0923	61 77 69 7B              DB 061h, 077h, 069h, 07Bh, 069h, 020h, 06Bh, 075h, 072h, 073h
	. . .
092B	72 73 

092D	6F 72 61 00              DB 06Fh, 072h, 061h, 000h
0931	77 69 76 75     ljmoh:   DB 077h, 069h, 076h, 075h, 020h, 063h, 065h, 06Ch, 065h, 06Ah
	. . .
0939	65 6A 

093B	20 2D 20 00              DB 020h, 02Dh, 020h, 000h
093F	75 6E 69 7E     lncch:   DB 075h, 06Eh, 069h, 07Eh, 074h, 06Fh, 076h, 065h, 06Eh, 06Fh
	. . .
0947	6E 6F 

0949	20 2D 20 00              DB 020h, 02Dh, 020h, 000h
094D	2A 20 2A 20     ljjgx:   DB 02Ah, 020h, 02Ah, 020h, 02Ah, 020h, 020h, 07Ah, 020h, 077h
	. . .
0955	20 77 

0957	20 65 20 7A              DB 020h, 065h, 020h, 07Ah, 020h, 064h, 020h, 06Eh, 020h, 079h
	. . .
095F	20 79 

0961	20 65 20 20              DB 020h, 065h, 020h, 020h, 020h, 077h, 020h, 06Fh, 020h, 06Ah
	. . .
0969	20 6A 

096B	20 6E 20 79              DB 020h, 06Eh, 020h, 079h, 020h, 02Ah, 020h, 02Ah, 020h, 02Ah
	. . .
0973	20 2A 

0975	00                       DB 000h
0976	75 63 65 6C     lnopj:   DB 075h, 063h, 065h, 06Ch, 065h, 077h, 07Bh, 069h, 065h, 020h
	. . .
097E	65 20 

0980	69 73 74 72              DB 069h, 073h, 074h, 072h, 065h, 062h, 069h, 074h, 065h, 06Ch
	. . .
0988	65 6C 

098A	69 20 61 67              DB 069h, 020h, 061h, 067h, 072h, 065h, 073h, 073h, 069h, 077h
	. . .
0992	69 77 

0994	6E 79 68 20              DB 06Eh, 079h, 068h, 020h, 067h, 075h, 06Dh, 061h, 06Eh, 06Fh
	. . .
099C	6E 6F 

099E	69 64 6F 77              DB 069h, 064h, 06Fh, 077h, 00Ah, 020h, 020h, 020h, 020h, 077h
	. . .
09A6	20 77 

09A8	20 70 61 6E              DB 020h, 070h, 061h, 06Eh, 069h, 06Bh, 065h, 020h, 070h, 06Fh
	. . .
09B0	70 6F 

09B2	6B 69 64 61              DB 06Bh, 069h, 064h, 061h, 060h, 074h, 020h, 06Fh, 06Bh, 06Fh
	. . .
09BA	6B 6F 

09BC	6C 6F 7A 65              DB 06Ch, 06Fh, 07Ah, 065h, 06Dh, 06Eh, 06Fh, 065h, 020h, 070h
	. . .
09C4	20 70 

09C6	72 6F 73 74              DB 072h, 06Fh, 073h, 074h, 072h, 061h, 06Eh, 073h, 074h, 077h
	. . .
09CE	74 77 

09D0	6F 2E 0A 20              DB 06Fh, 02Eh, 00Ah, 020h, 020h, 020h, 020h, 072h, 065h, 07Bh
	. . .
09D8	65 7B 

09DA	65 6E 69 65              DB 065h, 06Eh, 069h, 065h, 06Dh, 020h, 077h, 073h, 065h, 06Dh
	. . .
09E2	65 6D 

09E4	69 72 6E 6F              DB 069h, 072h, 06Eh, 06Fh, 067h, 06Fh, 020h, 073h, 06Fh, 077h
	. . .
09EC	6F 77 

09EE	65 74 61 20              DB 065h, 074h, 061h, 020h, 077h, 061h, 06Dh, 020h, 070h, 072h
	. . .
09F6	70 72 

09F8	69 73 77 61              DB 069h, 073h, 077h, 061h, 069h, 077h, 061h, 065h, 074h, 073h
	. . .
0A00	74 73 

0A02	71 20 7A 77              DB 071h, 020h, 07Ah, 077h, 061h, 06Eh, 069h, 065h, 00Ah, 020h
	. . .
0A0A	0A 20 

0A0C	20 20 20 22              DB 020h, 020h, 020h, 022h, 073h, 06Bh, 072h, 06Fh, 06Dh, 06Eh
	. . .
0A14	6D 6E 

0A16	79 6A 20 67              DB 079h, 06Ah, 020h, 067h, 065h, 072h, 06Fh, 06Ah, 020h, 06Fh
	. . .
0A1E	20 6F 

0A20	62 6F 7A 72              DB 062h, 06Fh, 07Ah, 072h, 069h, 06Dh, 06Fh, 06Ah, 020h, 077h
	. . .
0A28	20 77 

0A2A	73 65 6C 65              DB 073h, 065h, 06Ch, 065h, 06Eh, 06Eh, 06Fh, 06Ah, 022h, 02Eh
	. . .
0A32	22 2E 

0A34	20 70 6F 7A              DB 020h, 070h, 06Fh, 07Ah, 064h, 072h, 061h, 077h, 06Ch, 071h
	. . .
0A3C	6C 71 

0A3E	60 21 00                 DB 060h, 021h, 000h
0A41	0D 0F 30 40     ljmrd:   DB 00Dh, 00Fh, 030h, 040h, 080h, 081h, 080h, 042h, 020h, 010h
	. . .
0A49	20 10 

0A4B	08 04 02 01              DB 008h, 004h, 002h, 001h, 0F3h, 015h, 0FFh, 000h, 088h, 000h
	. . .
0A53	88 00 

0A55	10 00 20 00              DB 010h, 000h, 020h, 000h, 000h, 000h, 000h, 000h, 000h, 080h
	. . .
0A5D	00 80 

0A5F	40 20 10 08              DB 040h, 020h, 010h, 008h, 004h, 002h, 001h, 0EBh, 01Bh, 0FFh
	. . .
0A67	1B FF 

0A69	00 07 0A 1C              DB 000h, 007h, 00Ah, 01Ch, 000h, 038h, 028h, 028h, 038h, 028h
	. . .
0A71	38 28 

0A73	26 29 11 09              DB 026h, 029h, 011h, 009h, 007h, 000h, 000h, 000h, 000h, 000h
	. . .
0A7B	00 00 

0A7D	80 40 20 18              DB 080h, 040h, 020h, 018h, 006h, 001h, 0E5h, 01Fh, 0FFh, 000h
	. . .
0A85	FF 00 

0A87	00 00 00 00              DB 000h, 000h, 000h, 000h, 000h, 000h, 000h, 000h, 001h, 000h
	. . .
0A8F	01 00 

0A91	00 00 00 00              DB 000h, 000h, 000h, 000h, 000h, 000h, 000h, 000h, 000h, 000h
	. . .
0A99	00 00 

0A9B	00 00 00 00              DB 000h, 000h, 000h, 000h, 080h, 060h, 018h, 006h, 001h, 0E1h
	. . .
0AA3	01 E1 

0AA5	23 FF 00 00              DB 023h, 0FFh, 000h, 000h, 000h, 000h, 000h, 030h, 07Ch, 018h
	. . .
0AAD	7C 18 

0AAF	C0 F0 60 00              DB 0C0h, 0F0h, 060h, 000h, 000h, 000h, 000h, 010h, 000h, 000h
	. . .
0AB7	00 00 

0AB9	00 00 40 00              DB 000h, 000h, 040h, 000h, 000h, 000h, 000h, 000h, 000h, 000h
	. . .
0AC1	00 00 

0AC3	00 80 60 18              DB 000h, 080h, 060h, 018h, 006h, 001h, 0DDh, 02Bh, 080h, 078h
	. . .
0ACB	80 78 

0ACD	06 01 00 00              DB 006h, 001h, 000h, 000h, 000h, 040h, 000h, 000h, 000h, 000h
	. . .
0AD5	00 00 

0AD7	00 00 00 00              DB 000h, 000h, 000h, 000h, 000h, 000h, 000h, 000h, 000h, 004h
	. . .
0ADF	00 04 

0AE1	00 00 00 00              DB 000h, 000h, 000h, 000h, 010h, 000h, 000h, 000h, 000h, 000h
	. . .
0AE9	00 00 

0AEB	00 00 80 E0              DB 000h, 000h, 080h, 0E0h, 058h, 026h, 011h, 008h, 004h, 002h
	. . .
0AF3	04 02 

0AF5	01 D8 30 80              DB 001h, 0D8h, 030h, 080h, 060h, 018h, 006h, 001h, 000h, 000h
	. . .
0AFD	00 00 

0AFF	00 00 10 00              DB 000h, 000h, 010h, 000h, 000h, 000h, 000h, 000h, 000h, 000h
	. . .
0B07	00 00 

0B09	00 00 00 00              DB 000h, 000h, 000h, 000h, 000h, 000h, 001h, 000h, 000h, 000h
	. . .
0B11	00 00 

0B13	00 04 00 00              DB 000h, 004h, 000h, 000h, 000h, 000h, 000h, 000h, 080h, 060h
	. . .
0B1B	80 60 

0B1D	18 06 01 80              DB 018h, 006h, 001h, 080h, 040h, 020h, 010h, 008h, 004h, 002h
	. . .
0B25	04 02 

0B27	01 D4 34 80              DB 001h, 0D4h, 034h, 080h, 060h, 018h, 006h, 001h, 000h, 000h
	. . .
0B2F	00 00 

0B31	00 00 00 04              DB 000h, 000h, 000h, 004h, 000h, 000h, 000h, 000h, 000h, 000h
	. . .
0B39	00 00 

0B3B	00 00 00 00              DB 000h, 000h, 000h, 000h, 000h, 000h, 000h, 000h, 000h, 000h
	. . .
0B43	00 00 

0B45	00 00 01 00              DB 000h, 000h, 001h, 000h, 000h, 000h, 000h, 000h, 080h, 060h
	. . .
0B4D	80 60 

0B4F	18 06 01 00              DB 018h, 006h, 001h, 000h, 000h, 000h, 000h, 080h, 040h, 020h
	. . .
0B57	40 20 

0B59	10 08 04 02              DB 010h, 008h, 004h, 002h, 001h, 0D0h, 03Ch, 080h, 060h, 018h
	. . .
0B61	60 18 

0B63	06 01 00 00              DB 006h, 001h, 000h, 000h, 000h, 000h, 000h, 000h, 001h, 000h
	. . .
0B6B	01 00 

0B6D	00 00 00 00              DB 000h, 000h, 000h, 000h, 000h, 000h, 000h, 040h, 000h, 000h
	. . .
0B75	00 00 

0B77	00 00 00 00              DB 000h, 000h, 000h, 000h, 000h, 000h, 000h, 000h, 000h, 000h
	. . .
0B7F	00 00 

0B81	00 00 80 60              DB 000h, 000h, 080h, 060h, 018h, 006h, 001h, 000h, 000h, 000h
	. . .
0B89	00 00 

0B8B	00 00 00 00              DB 000h, 000h, 000h, 000h, 000h, 080h, 040h, 020h, 010h, 008h
	. . .
0B93	10 08 

0B95	08 04 04 02              DB 008h, 004h, 004h, 002h, 002h, 001h, 001h, 0C8h, 048h, 080h
	. . .
0B9D	48 80 

0B9F	60 18 06 01              DB 060h, 018h, 006h, 001h, 000h, 000h, 000h, 000h, 000h, 000h
	. . .
0BA7	00 00 

0BA9	00 00 00 00              DB 000h, 000h, 000h, 000h, 000h, 000h, 000h, 000h, 000h, 000h
	. . .
0BB1	00 00 

0BB3	10 00 00 00              DB 010h, 000h, 000h, 000h, 000h, 040h, 000h, 000h, 000h, 000h
	. . .
0BBB	00 00 

0BBD	00 00 00 00              DB 000h, 000h, 000h, 000h, 080h, 060h, 018h, 006h, 001h, 000h
	. . .
0BC5	01 00 

0BC7	00 00 00 00              DB 000h, 000h, 000h, 000h, 000h, 000h, 000h, 000h, 000h, 000h
	. . .
0BCF	00 00 

0BD1	00 00 00 00              DB 000h, 000h, 000h, 000h, 000h, 080h, 080h, 040h, 040h, 020h
	. . .
0BD9	40 20 

0BDB	20 10 10 08              DB 020h, 010h, 010h, 008h, 008h, 004h, 004h, 002h, 002h, 001h
	. . .
0BE3	02 01 

0BE5	01 BC 52 80              DB 001h, 0BCh, 052h, 080h, 060h, 018h, 006h, 001h, 000h, 000h
	. . .
0BED	00 00 

0BEF	00 40 00 00              DB 000h, 040h, 000h, 000h, 000h, 000h, 000h, 000h, 000h, 000h
	. . .
0BF7	00 00 

0BF9	00 00 00 00              DB 000h, 000h, 000h, 000h, 000h, 004h, 000h, 000h, 000h, 000h
	. . .
0C01	00 00 

0C03	10 00 00 00              DB 010h, 000h, 000h, 000h, 000h, 000h, 000h, 000h, 080h, 060h
	. . .
0C0B	80 60 

0C0D	18 06 01 00              DB 018h, 006h, 001h, 000h, 000h, 000h, 000h, 000h, 000h, 000h
	. . .
0C15	00 00 

0C17	00 00 00 00              DB 000h, 000h, 000h, 000h, 000h, 000h, 000h, 000h, 000h, 000h
	. . .
0C1F	00 00 

0C21	00 00 00 00              DB 000h, 000h, 000h, 000h, 000h, 000h, 000h, 000h, 000h, 000h
	. . .
0C29	00 00 

0C2B	00 80 80 40              DB 000h, 080h, 080h, 040h, 040h, 020h, 020h, 010h, 010h, 008h
	. . .
0C33	10 08 

0C35	08 04 04 02              DB 008h, 004h, 004h, 002h, 001h, 0B2h, 052h, 080h, 067h, 018h
	. . .
0C3D	67 18 

0C3F	06 01 00 00              DB 006h, 001h, 000h, 000h, 000h, 000h, 010h, 000h, 000h, 000h
	. . .
0C47	00 00 

0C49	00 00 00 00              DB 000h, 000h, 000h, 000h, 000h, 000h, 000h, 000h, 000h, 000h
	. . .
0C51	00 00 

0C53	01 00 00 00              DB 001h, 000h, 000h, 000h, 000h, 004h, 000h, 000h, 000h, 000h
	. . .
0C5B	00 00 

0C5D	00 00 80 60              DB 000h, 000h, 080h, 060h, 018h, 006h, 001h, 000h, 000h, 000h
	. . .
0C65	00 00 

0C67	00 00 00 00              DB 000h, 000h, 000h, 000h, 000h, 000h, 000h, 000h, 000h, 000h
	. . .
0C6F	00 00 

0C71	00 00 00 00              DB 000h, 000h, 000h, 000h, 000h, 000h, 000h, 000h, 000h, 000h
	. . .
0C79	00 00 

0C7B	00 00 00 00              DB 000h, 000h, 000h, 000h, 000h, 000h, 000h, 000h, 000h, 000h
	. . .
0C83	00 00 

0C85	00 00 00 00              DB 000h, 000h, 000h, 000h, 080h, 061h, 019h, 006h, 001h, 0AEh
	. . .
0C8D	01 AE 

0C8F	56 1F E0 00              DB 056h, 01Fh, 0E0h, 000h, 000h, 080h, 060h, 018h, 006h, 001h
	. . .
0C97	06 01 

0C99	00 00 00 00              DB 000h, 000h, 000h, 000h, 000h, 004h, 000h, 000h, 000h, 000h
	. . .
0CA1	00 00 

0CA3	00 00 00 00              DB 000h, 000h, 000h, 000h, 000h, 000h, 000h, 000h, 000h, 000h
	. . .
0CAB	00 00 

0CAD	00 00 00 00              DB 000h, 000h, 000h, 000h, 001h, 000h, 000h, 000h, 000h, 000h
	. . .
0CB5	00 00 

0CB7	80 60 18 06              DB 080h, 060h, 018h, 006h, 001h, 000h, 000h, 000h, 000h, 000h
	. . .
0CBF	00 00 

0CC1	00 00 00 00              DB 000h, 000h, 000h, 000h, 000h, 000h, 000h, 000h, 000h, 000h
	. . .
0CC9	00 00 

0CCB	00 00 00 00              DB 000h, 000h, 000h, 000h, 000h, 000h, 000h, 001h, 001h, 002h
	. . .
0CD3	01 02 

0CD5	04 04 09 11              DB 004h, 004h, 009h, 011h, 012h, 024h, 048h, 048h, 090h, 020h
	. . .
0CDD	90 20 

0CDF	40 40 80 60              DB 040h, 040h, 080h, 060h, 018h, 006h, 001h, 0A8h, 057h, 001h
	. . .
0CE7	57 01 

0CE9	7E 80 00 00              DB 07Eh, 080h, 000h, 000h, 000h, 000h, 000h, 000h, 000h, 080h
	. . .
0CF1	00 80 

0CF3	60 18 06 01              DB 060h, 018h, 006h, 001h, 000h, 000h, 000h, 000h, 000h, 000h
	. . .
0CFB	00 00 

0CFD	01 00 00 00              DB 001h, 000h, 000h, 000h, 000h, 000h, 000h, 000h, 000h, 040h
	. . .
0D05	00 40 

0D07	00 00 00 00              DB 000h, 000h, 000h, 000h, 000h, 000h, 000h, 000h, 000h, 000h
	. . .
0D0F	00 00 

0D11	00 00 00 00              DB 000h, 000h, 000h, 000h, 080h, 060h, 018h, 006h, 001h, 000h
	. . .
0D19	01 00 

0D1B	00 00 00 00              DB 000h, 000h, 000h, 000h, 000h, 001h, 001h, 002h, 004h, 004h
	. . .
0D23	04 04 

0D25	08 10 11 22              DB 008h, 010h, 011h, 022h, 044h, 044h, 088h, 010h, 02Ch, 023h
	. . .
0D2D	2C 23 

0D2F	40 80 00 00              DB 040h, 080h, 000h, 000h, 000h, 000h, 000h, 000h, 001h, 002h
	. . .
0D37	01 02 

0D39	04 08 10 20              DB 004h, 008h, 010h, 020h, 040h, 080h, 0A8h, 050h, 007h, 0F8h
	. . .
0D41	07 F8 

0D43	00 00 00 00              DB 000h, 000h, 000h, 000h, 000h, 000h, 000h, 000h, 000h, 000h
	. . .
0D4B	00 00 

0D4D	00 00 00 80              DB 000h, 000h, 000h, 080h, 060h, 018h, 006h, 001h, 000h, 000h
	. . .
0D55	00 00 

0D57	00 00 00 00              DB 000h, 000h, 000h, 000h, 000h, 000h, 000h, 000h, 000h, 000h
	. . .
0D5F	00 00 

0D61	01 01 00 00              DB 001h, 001h, 000h, 000h, 000h, 000h, 000h, 000h, 000h, 000h
	. . .
0D69	00 00 

0D6B	00 00 00 00              DB 000h, 000h, 000h, 000h, 000h, 000h, 000h, 000h, 080h, 060h
	. . .
0D73	80 60 

0D75	18 26 41 42              DB 018h, 026h, 041h, 042h, 084h, 008h, 010h, 010h, 020h, 040h
	. . .
0D7D	20 40 

0D7F	80 80 00 00              DB 080h, 080h, 000h, 000h, 000h, 000h, 000h, 000h, 000h, 000h
	. . .
0D87	00 00 

0D89	C1 32 0C 08              DB 0C1h, 032h, 00Ch, 008h, 010h, 020h, 040h, 080h, 0AFh, 049h
	. . .
0D91	AF 49 

0D93	1F E0 00 00              DB 01Fh, 0E0h, 000h, 000h, 000h, 000h, 000h, 000h, 000h, 000h
	. . .
0D9B	00 00 

0D9D	00 00 00 00              DB 000h, 000h, 000h, 000h, 000h, 000h, 000h, 000h, 000h, 000h
	. . .
0DA5	00 00 

0DA7	80 60 18 06              DB 080h, 060h, 018h, 006h, 001h, 000h, 000h, 000h, 03Fh, 040h
	. . .
0DAF	3F 40 

0DB1	40 80 80 00              DB 040h, 080h, 080h, 000h, 000h, 0C0h, 030h, 00Ch, 003h, 000h
	. . .
0DB9	03 00 

0DBB	00 00 00 00              DB 000h, 000h, 000h, 000h, 000h, 000h, 000h, 000h, 000h, 000h
	. . .
0DC3	00 00 

0DC5	00 00 00 00              DB 000h, 000h, 000h, 000h, 000h, 0FFh, 080h, 040h, 020h, 010h
	. . .
0DCD	20 10 

0DCF	08 04 02 01              DB 008h, 004h, 002h, 001h, 000h, 001h, 002h, 004h, 008h, 010h
	. . .
0DD7	08 10 

0DD9	20 40 80 B6              DB 020h, 040h, 080h, 0B6h, 042h, 07Fh, 080h, 000h, 000h, 000h
	. . .
0DE1	00 00 

0DE3	00 00 00 00              DB 000h, 000h, 000h, 000h, 000h, 000h, 000h, 000h, 000h, 000h
	. . .
0DEB	00 00 

0DED	00 00 00 00              DB 000h, 000h, 000h, 000h, 001h, 001h, 002h, 004h, 004h, 008h
	. . .
0DF5	04 08 

0DF7	90 60 19 07              DB 090h, 060h, 019h, 007h, 0FFh, 000h, 000h, 000h, 000h, 000h
	. . .
0DFF	00 00 

0E01	00 00 00 00              DB 000h, 000h, 000h, 000h, 000h, 0C0h, 030h, 00Ch, 003h, 000h
	. . .
0E09	03 00 

0E0B	01 01 02 02              DB 001h, 001h, 002h, 002h, 004h, 004h, 008h, 008h, 010h, 010h
	. . .
0E13	10 10 

0E15	20 E0 00 00              DB 020h, 0E0h, 000h, 000h, 000h, 000h, 000h, 000h, 000h, 000h
	. . .
0E1D	00 00 

0E1F	80 BE 2F E0              DB 080h, 0BEh, 02Fh, 0E0h, 018h, 006h, 001h, 000h, 000h, 000h
	. . .
0E27	00 00 

0E29	01 01 02 04              DB 001h, 001h, 002h, 004h, 004h, 008h, 011h, 012h, 022h, 044h
	. . .
0E31	22 44 

0E33	44 88 0C 13              DB 044h, 088h, 00Ch, 013h, 010h, 020h, 040h, 040h, 080h, 080h
	. . .
0E3B	80 80 

0E3D	00 00 FF 00              DB 000h, 000h, 0FFh, 000h, 000h, 000h, 000h, 000h, 000h, 000h
	. . .
0E45	00 00 

0E47	00 00 00 00              DB 000h, 000h, 000h, 000h, 001h, 000h, 000h, 0E0h, 01Eh, 001h
	. . .
0E4F	1E 01 

0E51	D4 2D 80 60              DB 0D4h, 02Dh, 080h, 060h, 058h, 096h, 021h, 020h, 041h, 041h
	. . .
0E59	41 41 

0E5B	82 82 02 04              DB 082h, 082h, 002h, 004h, 004h, 008h, 008h, 008h, 010h, 010h
	. . .
0E63	10 10 

0E65	E0 20 20 40              DB 0E0h, 020h, 020h, 040h, 040h, 080h, 080h, 080h, 0FFh, 000h
	. . .
0E6D	FF 00 

0E6F	00 00 00 00              DB 000h, 000h, 000h, 000h, 000h, 000h, 001h, 006h, 018h, 060h
	. . .
0E77	18 60 

0E79	80 60 18 06              DB 080h, 060h, 018h, 006h, 001h, 0E0h, 01Fh, 0D7h, 028h, 080h
	. . .
0E81	28 80 

0E83	80 00 00 00              DB 080h, 000h, 000h, 000h, 000h, 000h, 000h, 000h, 000h, 000h
	. . .
0E8B	00 00 

0E8D	00 00 00 00              DB 000h, 000h, 000h, 000h, 000h, 000h, 000h, 000h, 000h, 000h
	. . .
0E95	00 00 

0E97	00 FF 00 00              DB 000h, 0FFh, 000h, 000h, 000h, 001h, 006h, 018h, 060h, 098h
	. . .
0E9F	60 98 

0EA1	06 01 00 01              DB 006h, 001h, 000h, 001h, 006h, 018h, 060h, 080h, 080h, 0EEh
	. . .
0EA9	80 EE 

0EAB	0D F8 06 01              DB 00Dh, 0F8h, 006h, 001h, 060h, 098h, 006h, 001h, 000h, 001h
	. . .
0EB3	00 01 

0EB5	06 98 60 80              DB 006h, 098h, 060h, 080h, 0F5h, 007h, 080h, 060h, 018h, 006h
	. . .
0EBD	18 06 

0EBF	98 60 80 00              DB 098h, 060h, 080h, 000h
0EC3	41 FF FF FF     lnfqy:   DB 041h, 0FFh, 0FFh, 0FFh, 0FFh, 0FFh, 0FFh, 0FFh, 0FFh, 0FAh
	. . .
0ECB	FF FA 

0ECD	F5 FA F5 EF              DB 0F5h, 0FAh, 0F5h, 0EFh, 0FFh, 0EBh, 0F5h, 0EAh, 0F5h, 0EAh
	. . .
0ED5	F5 EA 

0ED7	BF FF FF FF              DB 0BFh, 0FFh, 0FFh, 0FFh, 0FFh, 0EBh, 0BEh, 0FFh, 07Fh, 0FFh
	. . .
0EDF	7F FF 

0EE1	7F FF FF FF              DB 07Fh, 0FFh, 0FFh, 0FFh, 0EBh, 0FDh, 0FEh, 0FDh, 0FEh, 0FDh
	. . .
0EE9	FE FD 

0EEB	EA F5 EF FD              DB 0EAh, 0F5h, 0EFh, 0FDh, 0FFh, 055h, 0FFh, 055h, 0FFh, 055h
	. . .
0EF3	FF 55 

0EF5	FF 55 BF 55              DB 0FFh, 055h, 0BFh, 055h, 0AAh, 055h, 0AAh, 055h, 0AAh, 055h
	. . .
0EFD	AA 55 

0EFF	AA 55 2A 15              DB 0AAh, 055h, 02Ah, 015h, 002h, 001h, 0BFh, 043h, 0FFh, 0FFh
	. . .
0F07	FF FF 

0F09	FF FF FF FF              DB 0FFh, 0FFh, 0FFh, 0FFh, 0FFh, 05Fh, 0BFh, 06Fh, 0BFh, 05Fh
	. . .
0F11	BF 5F 

0F13	FF DF FF DF              DB 0FFh, 0DFh, 0FFh, 0DFh, 0EFh, 0FFh, 0FFh, 07Fh, 0F7h, 0FFh
	. . .
0F1B	F7 FF 

0F1D	F7 FB FD FE              DB 0F7h, 0FBh, 0FDh, 0FEh, 0F5h, 0FAh, 0F5h, 0FAh, 0F5h, 0FAh
	. . .
0F25	F5 FA 

0F27	F5 EA D5 AA              DB 0F5h, 0EAh, 0D5h, 0AAh, 055h, 0AAh, 055h, 0AAh, 055h, 0FFh
	. . .
0F2F	55 FF 

0F31	55 FF 55 FF              DB 055h, 0FFh, 055h, 0FFh, 055h, 0FFh, 055h, 0FFh, 055h, 0FFh
	. . .
0F39	55 FF 

0F3B	55 AF 55 AB              DB 055h, 0AFh, 055h, 0ABh, 055h, 0AAh, 055h, 0AAh, 055h, 0AAh
	. . .
0F43	55 AA 

0F45	55 AA 55 2A              DB 055h, 0AAh, 055h, 02Ah, 005h, 0BDh, 044h, 0FFh, 0FFh, 0FFh
	. . .
0F4D	FF FF 

0F4F	FF FF FF FF              DB 0FFh, 0FFh, 0FFh, 0FFh, 0F3h, 0EFh, 0DFh, 0FFh, 0FFh, 0FFh
	. . .
0F57	FF FF 

0F59	FF FF EF FF              DB 0FFh, 0FFh, 0EFh, 0FFh, 0EEh, 0DDh, 0FEh, 0FDh, 0FAh, 0F5h
	. . .
0F61	FA F5 

0F63	FA F5 AA 55              DB 0FAh, 0F5h, 0AAh, 055h, 0AAh, 055h, 0AAh, 055h, 0AAh, 055h
	. . .
0F6B	AA 55 

0F6D	AA 55 AA 55              DB 0AAh, 055h, 0AAh, 055h, 0AAh, 055h, 0AAh, 055h, 0AAh, 055h
	. . .
0F75	AA 55 

0F77	AA 55 AA 55              DB 0AAh, 055h, 0AAh, 055h, 0EAh, 055h, 0EAh, 055h, 0FAh, 055h
	. . .
0F7F	FA 55 

0F81	FA 55 FA 55              DB 0FAh, 055h, 0FAh, 055h, 0FEh, 055h, 0BFh, 055h, 0AAh, 055h
	. . .
0F89	AA 55 

0F8B	AA 55 AA 55              DB 0AAh, 055h, 0AAh, 055h, 01Fh, 0BCh, 043h, 0FFh, 0FFh, 0FFh
	. . .
0F93	FF FF 

0F95	F5 FF F5 FF              DB 0F5h, 0FFh, 0F5h, 0FFh, 0FDh, 0FFh, 0FFh, 0FFh, 0FFh, 0FFh
	. . .
0F9D	FF FF 

0F9F	FF FD EA D5              DB 0FFh, 0FDh, 0EAh, 0D5h, 0BFh, 07Fh, 0EAh, 0FFh, 0AAh, 0FFh
	. . .
0FA7	AA FF 

0FA9	AA 7F AA 7F              DB 0AAh, 07Fh, 0AAh, 07Fh, 0AAh, 05Fh, 0AAh, 055h, 0AAh, 055h
	. . .
0FB1	AA 55 

0FB3	AA 55 AA 55              DB 0AAh, 055h, 0AAh, 055h, 0AAh, 055h, 0AAh, 055h, 0AAh, 055h
	. . .
0FBB	AA 55 

0FBD	AA 55 AA 55              DB 0AAh, 055h, 0AAh, 055h, 0AAh, 055h, 0AAh, 055h, 0AAh, 055h
	. . .
0FC5	AA 55 

0FC7	AA 55 AA 55              DB 0AAh, 055h, 0AAh, 055h, 0AAh, 055h, 0AAh, 055h, 0FBh, 055h
	. . .
0FCF	FB 55 

0FD1	AA 55 AB 58              DB 0AAh, 055h, 0ABh, 058h, 0BDh, 042h, 0C0h, 0F0h, 0FCh, 07Eh
	. . .
0FD9	FC 7E 

0FDB	FF 57 FF 55              DB 0FFh, 057h, 0FFh, 055h, 0FFh, 0FDh, 0FFh, 0FFh, 05Fh, 0B9h
	. . .
0FE3	5F B9 

0FE5	75 EA 7F AA              DB 075h, 0EAh, 07Fh, 0AAh, 0FFh, 0AAh, 0FFh, 0AAh, 0FFh, 0AAh
	. . .
0FED	FF AA 

0FEF	FF AA F7 AA              DB 0FFh, 0AAh, 0F7h, 0AAh, 0D5h, 0AAh, 055h, 0AAh, 055h, 0AAh
	. . .
0FF7	55 AA 

0FF9	55 AA 55 AA              DB 055h, 0AAh, 055h, 0AAh, 055h, 0AAh, 055h, 0AAh, 055h, 0AAh
	. . .
1001	55 AA 

1003	55 AA 55 AA              DB 055h, 0AAh, 055h, 0AAh, 055h, 0AAh, 055h, 0AAh, 055h, 0AAh
	. . .
100B	55 AA 

100D	55 AA 57 AF              DB 055h, 0AAh, 057h, 0AFh, 05Fh, 0BFh, 0FFh, 0FFh, 0FEh, 0F8h
	. . .
1015	FE F8 

1017	E0 80 C2 39              DB 0E0h, 080h, 0C2h, 039h, 080h, 0C0h, 0F0h, 0F8h, 0FCh, 0FEh
	. . .
101F	FC FE 

1021	FE FF FF EB              DB 0FEh, 0FFh, 0FFh, 0EBh, 0FDh, 0AFh, 0FDh, 0AAh, 0FDh, 0AAh
	. . .
1029	FD AA 

102B	FD AA FD AA              DB 0FDh, 0AAh, 0FDh, 0AAh, 0FFh, 0AAh, 0FFh, 0AAh, 0FFh, 0AAh
	. . .
1033	FF AA 

1035	7F EA 7F AA              DB 07Fh, 0EAh, 07Fh, 0AAh, 07Fh, 0AAh, 05Fh, 0AAh, 057h, 0AAh
	. . .
103D	57 AA 

103F	55 AA 55 AA              DB 055h, 0AAh, 055h, 0AAh, 055h, 0AAh, 055h, 0AAh, 055h
	. . .
1047	55 

1048	AA 55 AA 5F     lkacz:   DB 0AAh, 055h, 0AAh, 05Fh, 0BFh, 07Fh, 0FEh, 0FCh, 0F8h, 0F0h
	. . .
1050	F8 F0 

1052	E0 C0 CF 2A              DB 0E0h, 0C0h, 0CFh, 02Ah, 080h, 0C0h, 0C0h, 0E0h, 060h, 0F0h
	. . .
105A	60 F0 

105C	70 B8 58 AC              DB 070h, 0B8h, 058h, 0ACh, 054h, 0ACh, 056h, 0AAh, 0D6h, 0AAh
	. . .
1064	D6 AA 

1066	DE AE DD AB              DB 0DEh, 0AEh, 0DDh, 0ABh, 0D5h, 0ABh, 0F5h, 0AAh, 0D6h, 0AAh
	. . .
106E	D6 AA 

1070	D6 AA 56                 DB 0D6h, 0AAh, 056h
1073	AC 54 AC 50     lnhfh:   DB 0ACh, 054h, 0ACh, 050h, 0A8h, 058h, 0B0h, 050h, 0A0h, 060h
	. . .
107B	A0 60 

107D	C0 C0 80 00              DB 0C0h, 0C0h, 080h, 000h
1081	2D 01 01 01     ljojo:   DB 02Dh, 001h, 001h, 001h, 001h, 001h, 001h, 001h, 001h, 001h
	. . .
1089	01 01 

108B	03 03 03 03              DB 003h, 003h, 003h, 003h, 003h, 003h, 003h, 003h, 003h, 003h
	. . .
1093	03 03 

1095	03 02 03 02              DB 003h, 002h, 003h, 002h, 003h, 002h, 003h, 002h, 003h, 002h
	. . .
109D	03 02 

109F	03                       DB 003h
10A0	02 03 02 03     lkama:   DB 002h, 003h, 002h, 003h, 002h, 003h, 002h, 001h, 001h, 001h
	. . .
10A8	01 01 

10AA	01 01 01 01              DB 001h, 001h, 001h, 001h, 001h, 0B5h, 051h, 001h, 001h, 002h
	. . .
10B2	01 02 

10B4	03 02 05 06              DB 003h, 002h, 005h, 006h, 005h, 00Ah, 00Dh, 00Ah, 00Dh, 01Bh
	. . .
10BC	0D 1B 

10BE	15 1B 15 2B              DB 015h, 01Bh, 015h, 02Bh, 035h, 02Bh, 035h, 06Fh, 057h, 07Fh
	. . .
10C6	57 7F 

10C8	7F 7F FF FF              DB 07Fh, 07Fh, 0FFh, 0FFh, 0FFh, 0FFh, 0FFh, 0FFh, 0FFh, 0FFh
	. . .
10D0	FF FF 

10D2	FF FD FD FF              DB 0FFh, 0FDh, 0FDh, 0FFh, 0FFh, 0FFh, 0DFh, 0DFh, 0DFh, 0FDh
	. . .
10DA	DF FD 

10DC	FA FA FA FA              DB 0FAh, 0FAh, 0FAh, 0FAh, 0FDh, 0FFh, 0FFh, 0FFh, 07Fh, 05Bh
	. . .
10E4	7F 5B 

10E6	57 AB 55 AA              DB 057h, 0ABh, 055h, 0AAh, 055h, 0AAh, 055h, 0AAh, 055h, 0AAh
	. . .
10EE	55 AA 

10F0	55 AA 55 AA              DB 055h, 0AAh, 055h, 0AAh, 055h, 0ABh, 057h, 0AFh, 05Fh, 0AFh
	. . .
10F8	5F AF 

10FA	5F AF DF BB              DB 05Fh, 0AFh, 0DFh, 0BBh, 0FBh, 0FBh, 0FFh, 0FFh, 09Dh, 063h
	. . .
1102	9D 63 

1104	01 01 03 03              DB 001h, 001h, 003h, 003h, 007h, 005h, 00Eh, 00Dh, 01Ah, 015h
	. . .
110C	1A 15 

110E	2A 35 6A 55              DB 02Ah, 035h, 06Ah, 055h, 06Ah, 0D5h, 0AAh, 0D5h, 0AAh, 055h
	. . .
1116	AA 55 

1118	AA 55 AB 55              DB 0AAh, 055h, 0ABh, 055h, 0ABh, 055h, 0BFh, 055h, 0BFh, 055h
	. . .
1120	BF 55 

1122	FF 55 FF 55              DB 0FFh, 055h, 0FFh, 055h, 0FFh, 0F5h, 0FFh, 0F5h, 0FFh, 0FDh
	. . .
112A	FF FD 

112C	FF FD FF FF              DB 0FFh, 0FDh, 0FFh, 0FFh, 0FFh, 0FFh, 0FFh, 0FFh, 0FFh, 0FFh
	. . .
1134	FF FF 

1136	FF FF FE FF              DB 0FFh, 0FFh, 0FEh, 0FFh, 0FFh, 0FFh, 0FFh, 0FFh, 0FFh, 0FFh
	. . .
113E	FF FF 

1140	FF FF FF FF              DB 0FFh, 0FFh, 0FFh, 0FFh, 0FFh, 0FFh, 0FFh, 0DFh, 0DFh, 0FFh
	. . .
1148	DF FF 

114A	FF FF FF FF              DB 0FFh, 0FFh, 0FFh, 0FFh, 0FFh, 0FFh, 0FFh, 0FFh, 0FFh, 07Fh
	. . .
1152	FF 7F 

1154	FD 7A FA FA              DB 0FDh, 07Ah, 0FAh, 0FAh, 0FDh, 0FFh, 0FFh, 0FFh, 0FFh, 0FFh
	. . .
115C	FF FF 

115E	EF EF FF BF              DB 0EFh, 0EFh, 0FFh, 0BFh, 0BFh, 0FFh, 0FFh, 0FFh, 0FFh, 090h
	. . .
1166	FF 90 

1168	70 01 03 03              DB 070h, 001h, 003h, 003h, 007h, 00Fh, 00Fh, 01Fh, 03Fh, 03Fh
	. . .
1170	3F 3F 

1172	7F 7B F7 F7              DB 07Fh, 07Bh, 0F7h, 0F7h, 0EFh, 0FFh, 0FFh, 0FFh, 0FFh, 055h
	. . .
117A	FF 55 

117C	FF 55 FF 55              DB 0FFh, 055h, 0FFh, 055h, 0FFh, 055h, 0BFh, 055h, 0BFh, 055h
	. . .
1184	BF 55 

1186	BF 55 FF 55              DB 0BFh, 055h, 0FFh, 055h, 0BFh, 055h, 0FFh, 055h, 0FFh, 055h
	. . .
118E	FF 55 

1190	FF 55 FF 55              DB 0FFh, 055h, 0FFh, 055h, 0FFh, 055h, 0FFh, 055h, 0FFh, 055h
	. . .
1198	FF 55 

119A	FF 55 FF 55              DB 0FFh, 055h, 0FFh, 055h, 0FFh, 055h, 0FFh, 055h, 0FFh, 0D5h
	. . .
11A2	FF D5 

11A4	FF D5 FF F7              DB 0FFh, 0D5h, 0FFh, 0F7h, 0FFh, 0FFh, 0FFh, 0FFh, 0FFh, 0FFh
	. . .
11AC	FF FF 

11AE	FF FF FF FF              DB 0FFh, 0FFh, 0FFh, 0FFh, 0FFh, 0FFh, 0FFh, 0FFh, 0FFh, 0FFh
	. . .
11B6	FF FF 

11B8	FF FF FF FF              DB 0FFh, 0FFh, 0FFh, 0FFh, 0FFh, 0FFh, 0FFh, 0FFh, 0FDh, 0FFh
	. . .
11C0	FD FF 

11C2	FF FD FF FF              DB 0FFh, 0FDh, 0FFh, 0FFh, 0FFh, 0FFh, 0FFh, 0FEh, 0FFh, 0FFh
	. . .
11CA	FF FF 

11CC	FF FF FF FF              DB 0FFh, 0FFh, 0FFh, 0FFh, 0FFh, 0FFh, 0FFh, 0FFh, 0FFh, 0FFh
	. . .
11D4	FF FF 

11D6	FF FF FF 85              DB 0FFh, 0FFh, 0FFh, 085h, 07Bh, 001h, 003h, 007h, 007h, 00Fh
	. . .
11DE	07 0F 

11E0	1F 3F 3F 7F              DB 01Fh, 03Fh, 03Fh, 07Fh, 0FFh, 0FFh, 0FFh, 0FFh, 0FFh, 0FFh
	. . .
11E8	FF FF 

11EA	FF FF FF FF              DB 0FFh, 0FFh, 0FFh, 0FFh, 0FEh, 0FDh, 0FFh, 0FFh, 0FFh, 0FFh
	. . .
11F2	FF FF 

11F4	FF FF FF FF              DB 0FFh, 0FFh, 0FFh, 0FFh, 0FFh, 0FFh, 0FFh, 0FFh, 07Fh, 0FFh
	. . .
11FC	7F FF 

11FE	7F FF 7F FF              DB 07Fh, 0FFh, 07Fh, 0FFh, 05Fh, 0FFh, 057h, 0FFh, 057h, 0FFh
	. . .
1206	57 FF 

1208	57 FF 57 FF              DB 057h, 0FFh, 057h, 0FFh, 057h, 0FFh, 057h, 0FFh, 057h, 0FFh
	. . .
1210	57 FF 

1212	57 FF 57 FF              DB 057h, 0FFh, 057h, 0FFh, 05Fh, 0FFh, 05Fh, 0FFh, 05Fh, 0FFh
	. . .
121A	5F FF 

121C	7F FF 7F FF              DB 07Fh, 0FFh, 07Fh, 0FFh, 0FFh, 0FFh, 0FFh, 0FFh, 0FFh, 0FFh
	. . .
1224	FF FF 

1226	FF FF FF 7F              DB 0FFh, 0FFh, 0FFh, 07Fh, 0FFh, 0FFh, 0FFh, 0FFh, 0FFh, 0FFh
	. . .
122E	FF FF 

1230	FF FF FF FF              DB 0FFh, 0FFh, 0FFh, 0FFh, 0FFh, 0FFh, 0FFh, 0FFh, 0FFh, 0FFh
	. . .
1238	FF FF 

123A	FE FE FE FE              DB 0FEh, 0FEh, 0FEh, 0FEh, 0FFh, 0FFh, 0FFh, 0FFh, 0FFh, 0FFh
	. . .
1242	FF FF 

1244	FF FF FF FF              DB 0FFh, 0FFh, 0FFh, 0FFh, 0FFh, 0FFh, 0FFh, 0FFh, 0FFh, 0FEh
	. . .
124C	FF FE 

124E	FD FA FD FA              DB 0FDh, 0FAh, 0FDh, 0FAh, 0F5h, 0EAh, 0D5h, 0AAh, 07Ch, 084h
	. . .
1256	7C 84 

1258	01 03 07 0F              DB 001h, 003h, 007h, 00Fh, 01Fh, 03Fh, 07Fh, 07Fh, 0FFh, 0FFh
	. . .
1260	FF FF 

1262	FF FF FF FE              DB 0FFh, 0FFh, 0FFh, 0FEh, 0FDh, 0FBh, 0FBh, 0F7h, 0F7h, 0F9h
	. . .
126A	F7 F9 

126C	FF FE FD FA              DB 0FFh, 0FEh, 0FDh, 0FAh, 0F9h, 0FFh, 0FFh, 0FFh, 0FFh, 0FFh
	. . .
1274	FF FF 

1276	FF FF FF FF              DB 0FFh, 0FFh, 0FFh, 0FFh, 0FFh, 0FFh, 0F3h, 0CBh, 0DBh, 0BBh
	. . .
127E	DB BB 

1280	BB 77 77 6F              DB 0BBh, 077h, 077h, 06Fh, 04Fh, 03Fh, 0FFh, 0FFh, 0BFh, 0FFh
	. . .
1288	BF FF 

128A	FF FF FF FF              DB 0FFh, 0FFh, 0FFh, 0FFh, 0FFh, 0FFh, 0FFh, 0FFh, 0FFh, 0FFh
	. . .
1292	FF FF 

1294	FF FF FF FF              DB 0FFh, 0FFh, 0FFh, 0FFh, 0FFh, 0FFh, 0BFh, 0FFh, 0FFh, 0FFh
	. . .
129C	FF FF 

129E	FF FF FF FF              DB 0FFh, 0FFh, 0FFh, 0FFh, 0FFh, 0FFh, 0FFh, 0FFh, 0FFh, 0FFh
	. . .
12A6	FF FF 

12A8	FF FF FF FF              DB 0FFh, 0FFh, 0FFh, 0FFh, 0FFh, 0FFh, 0BFh, 05Fh, 05Fh, 0BFh
	. . .
12B0	5F BF 

12B2	FE FE FF FF              DB 0FEh, 0FEh, 0FFh, 0FFh, 0FFh, 0FFh, 0FFh, 0FFh, 0FFh, 0FFh
	. . .
12BA	FF FF 

12BC	FF FF 9F 6F              DB 0FFh, 0FFh, 09Fh, 06Fh, 0F7h, 0F7h, 0F7h, 0F7h, 06Fh, 09Fh
	. . .
12C4	6F 9F 

12C6	FF FF FF FF              DB 0FFh, 0FFh, 0FFh, 0FFh, 0FFh, 0FFh, 0FFh, 0FEh, 0FDh, 0FAh
	. . .
12CE	FD FA 

12D0	D5 AE 57 AF              DB 0D5h, 0AEh, 057h, 0AFh, 05Fh, 0BFh, 05Fh, 0BFh, 05Fh, 0BFh
	. . .
12D8	5F BF 

12DA	7F FE 74 8C              DB 07Fh, 0FEh, 074h, 08Ch, 001h, 002h, 005h, 00Fh, 01Fh, 03Fh
	. . .
12E2	1F 3F 

12E4	7F FF FF FE              DB 07Fh, 0FFh, 0FFh, 0FEh, 0FFh, 0FFh, 0FFh, 0FFh, 0FFh, 0EEh
	. . .
12EC	FF EE 

12EE	DF FE FF CE              DB 0DFh, 0FEh, 0FFh, 0CEh, 037h, 0F7h, 0EFh, 0EFh, 0DFh, 0BFh
	. . .
12F6	DF BF 

12F8	7F FF FF 7F              DB 07Fh, 0FFh, 0FFh, 07Fh, 07Fh, 0FFh, 0FFh, 0FFh, 0FFh, 0FFh
	. . .
1300	FF FF 

1302	FF FF FF FF              DB 0FFh, 0FFh, 0FFh, 0FFh, 0FFh, 0FFh, 0FFh, 0FFh, 0FEh, 0FFh
	. . .
130A	FE FF 

130C	FE FF FF FD              DB 0FEh, 0FFh, 0FFh, 0FDh, 0FFh, 0FFh, 0FFh, 0FFh, 0FFh, 0FFh
	. . .
1314	FF FF 

1316	FF FF FF FF              DB 0FFh, 0FFh, 0FFh, 0FFh, 0FFh, 0FFh, 0FFh, 0FFh, 0FFh, 0FFh
	. . .
131E	FF FF 

1320	FF FF FF FF              DB 0FFh, 0FFh, 0FFh, 0FFh, 0FFh, 0FFh, 0FFh, 0FFh, 0FFh, 0FFh
	. . .
1328	FF FF 

132A	FF FF FF FF              DB 0FFh, 0FFh, 0FFh, 0FFh, 0FFh, 0FFh, 0FFh, 0FFh, 0FFh, 0FFh
	. . .
1332	FF FF 

1334	FF FF FF FF              DB 0FFh, 0FFh, 0FFh, 0FFh, 0FFh, 0FFh, 0FFh, 0FFh, 0FFh, 0FFh
	. . .
133C	FF FF 

133E	FF 7F BF BF              DB 0FFh, 07Fh, 0BFh, 0BFh, 07Fh, 0FFh, 0FFh, 0FFh, 0FFh, 0FFh
	. . .
1346	FF FF 

1348	DF DF FF FF              DB 0DFh, 0DFh, 0FFh, 0FFh, 0FFh, 0FFh, 0FFh, 0FFh, 0FFh, 0FFh
	. . .
1350	FF FF 

1352	FF FF FF FF              DB 0FFh, 0FFh, 0FFh, 0FFh, 0FFh, 0FEh, 0FDh, 0EAh, 0D5h, 0AAh
	. . .
135A	D5 AA 

135C	75 AA 75 EA              DB 075h, 0AAh, 075h, 0EAh, 0F5h, 0EAh, 0D5h, 0AAh, 0D5h, 0AAh
	. . .
1364	D5 AA 

1366	55 AA 55 AA              DB 055h, 0AAh, 055h, 0AAh, 06Dh, 093h, 001h, 003h, 006h, 01Dh
	. . .
136E	06 1D 

1370	2A 55 AA 55              DB 02Ah, 055h, 0AAh, 055h, 0AAh, 055h, 0EAh, 0D5h, 0EAh, 0D5h
	. . .
1378	EA D5 

137A	AA 55 AA 55              DB 0AAh, 055h, 0AAh, 055h, 0EAh, 0D5h, 0AAh, 055h, 0ABh, 057h
	. . .
1382	AB 57 

1384	AF 5F FF E3              DB 0AFh, 05Fh, 0FFh, 0E3h, 0DBh, 0BBh, 077h, 06Fh, 01Fh, 0FFh
	. . .
138C	1F FF 

138E	FF FF FF FF              DB 0FFh, 0FFh, 0FFh, 0FFh, 0FFh, 0FFh, 0FFh, 0FFh, 0FFh, 0FFh
	. . .
1396	FF FF 

1398	FF FF FF FF              DB 0FFh, 0FFh, 0FFh, 0FFh, 0FFh, 0FFh, 0FFh, 0FFh, 0FFh, 0FFh
	. . .
13A0	FF FF 

13A2	FF FF FF FF              DB 0FFh, 0FFh, 0FFh, 0FFh, 0FFh, 0FFh, 0FFh, 0FFh, 0FFh, 0FFh
	. . .
13AA	FF FF 

13AC	FF FF FF FF              DB 0FFh, 0FFh, 0FFh, 0FFh, 0FFh, 0FFh, 0FFh, 0FFh, 0FFh, 0FFh
	. . .
13B4	FF FF 

13B6	FF FF FF FF              DB 0FFh, 0FFh, 0FFh, 0FFh, 0FFh, 0FFh, 0FFh, 0FFh, 0FFh, 0FFh
	. . .
13BE	FF FF 

13C0	FF FF FF FF              DB 0FFh, 0FFh, 0FFh, 0FFh, 0FFh, 0FFh, 0FFh, 0FFh, 0FFh, 0FFh
	. . .
13C8	FF FF 

13CA	FF FF DF AF              DB 0FFh, 0FFh, 0DFh, 0AFh, 0AFh, 0DFh, 0FFh, 0FFh, 0FFh, 0FFh
	. . .
13D2	FF FF 

13D4	FE FD FA FD              DB 0FEh, 0FDh, 0FAh, 0FDh, 0FAh, 0F5h, 0FAh, 0F5h, 0FAh, 0FDh
	. . .
13DC	FA FD 

13DE	FE FD FE FF              DB 0FEh, 0FDh, 0FEh, 0FFh, 0FEh, 0FDh, 0FEh, 0FDh, 0FEh, 0FDh
	. . .
13E6	FE FD 

13E8	FA F5 AA 55              DB 0FAh, 0F5h, 0AAh, 055h, 0AAh, 055h, 0AAh, 055h, 0AAh, 055h
	. . .
13F0	AA 55 

13F2	AB 57 AF 5F              DB 0ABh, 057h, 0AFh, 05Fh, 0BFh, 055h, 0AAh, 055h, 0AAh, 057h
	. . .
13FA	AA 57 

13FC	AB 5F AF 67              DB 0ABh, 05Fh, 0AFh, 067h, 099h, 001h, 003h, 00Eh, 015h, 02Ah
	. . .
1404	15 2A 

1406	D5 AA 55 AA              DB 0D5h, 0AAh, 055h, 0AAh, 055h, 0AAh, 055h, 0AAh, 055h, 0ABh
	. . .
140E	55 AB 

1410	57 AA 55 AA              DB 057h, 0AAh, 055h, 0AAh, 055h, 0AAh, 055h, 0AAh, 055h, 0ABh
	. . .
1418	55 AB 

141A	57 AF 5F FE              DB 057h, 0AFh, 05Fh, 0FEh, 0FEh, 0FFh, 0FFh, 0FFh, 0FFh, 0FFh
	. . .
1422	FF FF 

1424	FF FF FF FF              DB 0FFh, 0FFh, 0FFh, 0FFh, 0FFh, 0FFh, 0FFh, 0FFh, 0FFh, 0FAh
	. . .
142C	FF FA 

142E	F5 EA D5 EA              DB 0F5h, 0EAh, 0D5h, 0EAh, 0D5h, 0EAh, 0F5h, 0EAh, 0D5h, 0EAh
	. . .
1436	D5 EA 

1438	D5 AA D5 AA              DB 0D5h, 0AAh, 0D5h, 0AAh, 055h, 0AAh, 055h, 0AAh, 0D5h, 0AAh
	. . .
1440	D5 AA 

1442	D5 AA D5 FA              DB 0D5h, 0AAh, 0D5h, 0FAh, 0FFh, 0FFh, 0FFh, 0FFh, 0FFh, 0FFh
	. . .
144A	FF FF 

144C	FF FF FF FF              DB 0FFh, 0FFh, 0FFh, 0FFh, 0FFh, 0FFh, 0FFh, 0FFh, 0FFh, 0FFh
	. . .
1454	FF FF 

1456	FF FF FF FF              DB 0FFh, 0FFh, 0FFh, 0FFh, 0FFh, 0FFh, 0FFh, 0FEh, 0FDh, 0FBh
	. . .
145E	FD FB 

1460	FB BB FD FE              DB 0FBh, 0BBh, 0FDh, 0FEh, 0FFh, 0FFh, 0EFh, 0FFh, 0FFh, 0FFh
	. . .
1468	FF FF 

146A	FD FA F5 AA              DB 0FDh, 0FAh, 0F5h, 0AAh, 055h, 0AAh, 055h, 0AAh, 055h, 0AAh
	. . .
1472	55 AA 

1474	55 AA 55 AA              DB 055h, 0AAh, 055h, 0AAh, 055h, 0AAh, 055h, 0AAh, 055h, 0AAh
	. . .
147C	55 AA 

147E	55 AA 55 AA              DB 055h, 0AAh, 055h, 0AAh, 055h, 0AAh, 055h, 0AAh, 055h, 0BAh
	. . .
1486	55 BA 

1488	7F BF 7F FF              DB 07Fh, 0BFh, 07Fh, 0FFh, 0FFh, 0FFh, 0F7h, 0FFh, 0FFh, 0FEh
	. . .
1490	FF FE 

1492	FF FF FF FF              DB 0FFh, 0FFh, 0FFh, 0FFh, 0FFh, 0FFh, 0FFh, 0FFh, 062h, 09Eh
	. . .
149A	62 9E 

149C	01 06 0D 3A              DB 001h, 006h, 00Dh, 03Ah, 055h, 0AAh, 055h, 0AAh, 055h, 0AAh
	. . .
14A4	55 AA 

14A6	55 AA 55 AA              DB 055h, 0AAh, 055h, 0AAh, 055h, 0AAh, 05Dh, 0FFh, 0FFh, 0FAh
	. . .
14AE	FF FA 

14B0	F5 EA 55 BA              DB 0F5h, 0EAh, 055h, 0BAh, 055h, 0AAh, 055h, 0AAh, 0FDh, 0FAh
	. . .
14B8	FD FA 

14BA	FD 9F 5F BF              DB 0FDh, 09Fh, 05Fh, 0BFh, 07Fh, 0FFh, 0FFh, 0FFh, 0EFh, 0DFh
	. . .
14C2	EF DF 

14C4	FF FF FF FF              DB 0FFh, 0FFh, 0FFh, 0FFh, 0F7h, 0EBh, 0D5h, 0AAh, 055h, 0AAh
	. . .
14CC	55 AA 

14CE	55 AA 55 AA              DB 055h, 0AAh, 055h, 0AAh, 055h, 0AAh, 055h, 0AAh, 055h, 0AAh
	. . .
14D6	55 AA 

14D8	55 AA 55 AA              DB 055h, 0AAh, 055h, 0AAh, 055h, 0AAh, 055h, 0AAh, 055h, 0ABh
	. . .
14E0	55 AB 

14E2	55 AB 5F BF              DB 055h, 0ABh, 05Fh, 0BFh, 0FFh, 0FFh, 0FFh, 0FFh, 0FFh, 0FFh
	. . .
14EA	FF FF 

14EC	F7 FF FF EF              DB 0F7h, 0FFh, 0FFh, 0EFh, 0FFh, 0FFh, 0FFh, 0FFh, 03Fh, 03Fh
	. . .
14F4	3F 3F 

14F6	FF FF FF FF              DB 0FFh, 0FFh, 0FFh, 0FFh, 0FEh, 0FDh, 0FDh, 03Eh, 0DFh, 0EFh
	. . .
14FE	DF EF 

1500	EF EF DF 3F              DB 0EFh, 0EFh, 0DFh, 03Fh, 0FFh, 0FFh, 0FFh, 0EAh, 0D5h, 0AAh
	. . .
1508	D5 AA 

150A	55 AA 55 AA              DB 055h, 0AAh, 055h, 0AAh, 055h, 0AAh, 055h, 0AAh, 055h, 0AAh
	. . .
1512	55 AA 

1514	55 AA 55 AA              DB 055h, 0AAh, 055h, 0AAh, 055h, 0AAh, 055h, 0AAh, 055h, 0AAh
	. . .
151C	55 AA 

151E	55 AA 55 AA              DB 055h, 0AAh, 055h, 0AAh, 055h, 0AAh, 055h, 0ABh, 057h, 0AFh
	. . .
1526	57 AF 

1528	FF FC FB FB              DB 0FFh, 0FCh, 0FBh, 0FBh, 0BCh, 05Fh, 0BFh, 0FFh, 07Fh, 0B3h
	. . .
1530	7F B3 

1532	73 FF FF FF              DB 073h, 0FFh, 0FFh, 0FFh, 07Fh, 0FFh, 0DFh, 0FFh, 05Eh, 0A2h
	. . .
153A	5E A2 

153C	03 0E 35 6A              DB 003h, 00Eh, 035h, 06Ah, 055h, 0AAh, 055h, 0AAh, 055h, 0AAh
	. . .
1544	55 AA 

1546	55 AA 55 AA              DB 055h, 0AAh, 055h, 0AAh, 055h, 0AAh, 055h, 0AAh, 055h, 0AAh
	. . .
154E	55 AA 

1550	57 AF 57 AF              DB 057h, 0AFh, 057h, 0AFh, 05Fh, 0BFh, 05Fh, 0BFh, 055h, 0AAh
	. . .
1558	55 AA 

155A	55 AA 55 AF              DB 055h, 0AAh, 055h, 0AFh, 05Fh, 0FFh, 0FFh, 0FFh, 0FFh, 0FFh
	. . .
1562	FF FF 

1564	FF FF FF FF              DB 0FFh, 0FFh, 0FFh, 0FFh, 0FFh, 0FEh, 0FDh, 0FAh, 0F5h, 0AAh
	. . .
156C	F5 AA 

156E	55 AA 55 AA              DB 055h, 0AAh, 055h, 0AAh, 055h, 0AAh, 055h, 0AAh, 055h, 0AAh
	. . .
1576	55 AA 

1578	55 AA 55 AA              DB 055h, 0AAh, 055h, 0AAh, 055h, 0AAh, 055h, 0AAh, 055h, 0ABh
	. . .
1580	55 AB 

1582	7F FF FF FF              DB 07Fh, 0FFh, 0FFh, 0FFh, 0FFh, 0FFh, 0FFh, 0FFh, 0FFh, 0FBh
	. . .
158A	FF FB 

158C	F5 FB FF FF              DB 0F5h, 0FBh, 0FFh, 0FFh, 0FFh, 0FFh, 0FFh, 0FFh, 0FFh, 0FFh
	. . .
1594	FF FF 

1596	FF FF FF FF              DB 0FFh, 0FFh, 0FFh, 0FFh, 0EFh, 0FFh, 0FFh, 0FFh, 07Fh, 0BFh
	. . .
159E	7F BF 

15A0	BF 7F FF FF              DB 0BFh, 07Fh, 0FFh, 0FFh, 0FFh, 0FFh, 0FFh, 0FFh, 0FFh, 0FAh
	. . .
15A8	FF FA 

15AA	55 AA 55 AA              DB 055h, 0AAh, 055h, 0AAh, 055h, 0AAh, 055h, 0AAh, 055h, 0AAh
	. . .
15B2	55 AA 

15B4	55 AA 55 AA              DB 055h, 0AAh, 055h, 0AAh, 055h, 0AAh, 055h, 0AAh, 055h, 0AAh
	. . .
15BC	55 AA 

15BE	55 AA 55 AA              DB 055h, 0AAh, 055h, 0AAh, 055h, 0AAh, 055h, 0AAh, 055h, 0AAh
	. . .
15C6	55 AA 

15C8	55 AA FD FE              DB 055h, 0AAh, 0FDh, 0FEh, 0FFh, 0FEh, 07Fh, 07Fh, 0FFh, 0FFh
	. . .
15D0	FF FF 

15D2	FF FF FF FF              DB 0FFh, 0FFh, 0FFh, 0FFh, 0FFh, 0FFh, 0FFh, 0FFh, 0FFh, 0FFh
	. . .
15DA	FF FF 

15DC	FF FF 00                 DB 0FFh, 0FFh, 000h
15DF	11 01 01 01     lndwo:   DB 011h, 001h, 001h, 001h, 001h, 002h, 002h, 002h, 002h, 002h
	. . .
15E7	02 02 

15E9	0C 30 C0 80              DB 00Ch, 030h, 0C0h, 080h, 080h, 09Fh, 0F0h, 01Fh, 0DFh, 028h
	. . .
15F1	DF 28 

15F3	18 24 5A 42              DB 018h, 024h, 05Ah, 042h, 042h, 099h, 0A5h, 0A5h, 0BDh, 081h
	. . .
15FB	BD 81 

15FD	99 81 81 A5              DB 099h, 081h, 081h, 0A5h, 081h, 081h, 081h, 081h, 081h, 081h
	. . .
1605	81 81 

1607	81 81 81 81              DB 081h, 081h, 081h, 081h, 081h, 081h, 081h, 081h, 081h, 099h
	. . .
160F	81 99 

1611	99 99 99 99              DB 099h, 099h, 099h, 099h, 099h, 0FFh, 099h, 0FFh, 018h, 018h
	. . .
1619	18 18 

161B	E8 11 80 80              DB 0E8h, 011h, 080h, 080h, 080h, 080h, 040h, 040h, 040h, 040h
	. . .
1623	40 40 

1625	40 30 0C 03              DB 040h, 030h, 00Ch, 003h, 001h, 001h, 0F9h, 00Fh, 0F8h, 000h
	. . .
162D	F8 00 

162F	00 00 00 00     lndxx:   DB 000h, 000h, 000h, 000h, 000h, 080h, 000h, 000h, 000h, 000h
	. . .
1637	00 00 

1639	00 00 01 C0              DB 000h, 000h, 001h, 0C0h, 000h, 000h, 000h, 000h, 000h, 000h
	. . .
1641	00 00 

1643	02 A0 00 00              DB 002h, 0A0h, 000h, 000h, 000h, 000h, 000h, 000h, 006h, 0B0h
	. . .
164B	06 B0 

164D	00 00 00 00              DB 000h, 000h, 000h, 000h, 000h, 000h, 01Dh, 0B8h, 000h, 000h
	. . .
1655	00 00 

1657	00 00 1D B8              DB 000h, 000h, 01Dh, 0B8h, 01Dh, 0B8h, 000h, 000h, 000h, 000h
	. . .
165F	00 00 

1661	3D DE 25 D2              DB 03Dh, 0DEh, 025h, 0D2h, 03Dh, 0DEh, 0F9h, 09Fh, 08Fh, 0F1h
	. . .
1669	8F F1 

166B	8B D1 F9 9F              DB 08Bh, 0D1h, 0F9h, 09Fh
166F	00 00 00 00     lndyb:   DB 000h, 000h, 000h, 000h, 000h, 000h, 000h, 000h, 000h, 000h
	. . .
1677	00 00 

1679	00 00 01 C0              DB 000h, 000h, 001h, 0C0h, 003h, 0E0h, 003h, 0E0h, 003h, 0E0h
	. . .
1681	03 E0 

1683	01 C0 00 00              DB 001h, 0C0h, 000h, 000h, 000h, 000h, 000h, 000h, 000h, 000h
	. . .
168B	00 00 

168D	00 00 00 00              DB 000h, 000h, 000h, 000h, 000h, 000h, 000h, 000h, 001h, 000h
	. . .
1695	01 00 

1697	0A 10 00 00              DB 00Ah, 010h, 000h, 000h, 012h, 080h, 003h, 0E0h, 00Bh, 0F0h
	. . .
169F	0B F0 

16A1	03 E0 01 A8              DB 003h, 0E0h, 001h, 0A8h, 010h, 040h, 000h, 088h, 000h, 000h
	. . .
16A9	00 00 

16AB	00 00 00 00              DB 000h, 000h, 000h, 000h, 000h, 000h, 000h, 000h, 000h, 000h
	. . .
16B3	00 00 

16B5	10 08 02 80              DB 010h, 008h, 002h, 080h, 001h, 0C0h, 005h, 000h, 00Dh, 0D8h
	. . .
16BD	0D D8 

16BF	11 60 07 52              DB 011h, 060h, 007h, 052h, 005h, 0A8h, 002h, 080h, 020h, 020h
	. . .
16C7	20 20 

16C9	00 04 00 00              DB 000h, 004h, 000h, 000h, 002h, 020h, 000h, 000h, 000h, 000h
	. . .
16D1	00 00 

16D3	10 08 00 80              DB 010h, 008h, 000h, 080h, 000h, 040h, 00Bh, 020h, 002h, 044h
	. . .
16DB	02 44 

16DD	04 A0 21 48              DB 004h, 0A0h, 021h, 048h, 005h, 041h, 012h, 090h, 008h, 040h
	. . .
16E5	08 40 

16E7	40 00 02 20              DB 040h, 000h, 002h, 020h, 000h, 002h, 000h, 000h, 000h, 000h
	. . .
16EF	00 00 

16F1	20 04 00 80              DB 020h, 004h, 000h, 080h, 000h, 000h, 090h, 000h, 004h, 040h
	. . .
16F9	04 40 

16FB	08 12 01 00              DB 008h, 012h, 001h, 000h, 042h, 0A1h, 004h, 000h, 001h, 040h
	. . .
1703	01 40 

1705	40 24 08 00              DB 040h, 024h, 008h, 000h, 000h, 000h, 000h, 020h, 004h, 000h
	. . .
170D	04 00 

170F	00 00 00 80              DB 000h, 000h, 000h, 080h, 000h, 000h, 020h, 002h, 008h, 000h
	. . .
1717	08 00 

1719	00 00 01 09              DB 000h, 000h, 001h, 009h, 000h, 000h, 080h, 000h, 000h, 000h
	. . .
1721	00 00 

1723	00 00 01 00              DB 000h, 000h, 001h, 000h, 000h, 001h, 010h, 000h, 000h, 000h
	. . .
172B	00 00 

172D	00 10                    DB 000h, 010h
172F	25 55 AA 55     lndxz:   DB 025h, 055h, 0AAh, 055h, 0AAh, 055h, 0AAh, 055h, 0AAh, 055h
	. . .
1737	AA 55 

1739	AA 55 AA 55              DB 0AAh, 055h, 0AAh, 055h, 0AAh, 055h, 0AAh, 055h, 0AAh, 055h
	. . .
1741	AA 55 

1743	AA 55 AA 55              DB 0AAh, 055h, 0AAh, 055h, 0AAh, 055h, 0AAh, 0FDh, 0FEh, 0FFh
	. . .
174B	FE FF 

174D	FE 7F 7F FF              DB 0FEh, 07Fh, 07Fh, 0FFh, 0FFh, 0FFh, 0FFh, 0FFh, 0FFh, 0FFh
	. . .
1755	FF FF 

1757	FF FF FF FF              DB 0FFh, 0FFh, 0FFh, 0FFh, 0FFh, 0FFh, 0FFh, 000h, 011h, 001h
	. . .
175F	11 01 

1761	01 01 01 02              DB 001h, 001h, 001h, 002h, 002h, 002h, 002h, 002h, 00Ch, 030h
	. . .
1769	0C 30 

176B	C0 80 80 9F              DB 0C0h, 080h, 080h, 09Fh, 0F0h, 01Fh, 0DFh, 028h, 018h, 024h
	. . .
1773	18 24 

1775	5A 42 42 99              DB 05Ah, 042h, 042h, 099h, 0A5h, 0A5h, 0BDh, 081h, 099h, 081h
	. . .
177D	99 81 

177F	81 A5 81 81              DB 081h, 0A5h, 081h, 081h, 081h, 081h, 081h, 081h, 081h, 081h
	. . .
1787	81 81 

1789	81 81 81 81              DB 081h, 081h, 081h, 081h, 081h, 081h, 081h, 099h, 000h, 000h
	. . .
1791	00 00 

1793	00 00 01 00              DB 000h, 000h, 001h, 000h, 000h, 001h, 010h, 000h
	. . .
1797	00 01 10 00 

	                END
Labels:
end                     179B
lbxyf                   8005	lbzdh                   9A35
lbzgd                   9925	lbzhr                   9F05
lcasc                   8FF1	lcawr                   8051
lcayz                   8001	lcazd                   8041
lcbwy                   98A9	lcbxb                   9929
lccgl                   9D51	lccgt                   9B61
lccno                   9481	lcdtz                   AB25
lcduw                   A985	lcfes                   B5CD
lcgoz                   A479	lcgur                   AA21
lcgxs                   A291	lcgye                   A0D1
lcgyn                   A671	lchbd                   A421
lciab                   BE09	lcifj                   B509
lciol                   B761	lcjko                   8FFC
lcljm                   9B84	lcmpt                   8018
lcmsf                   8008	lcmyz                   8030
lcmzp                   8010	lcnbl                   8020
lcncb                   8000	lcncf                   8040
lcndh                   8400	lcnzt                   9A28
lcoaa                   98A8	lcocd                   9D48
lcohf                   9B30	lcohq                   99F0
lcoia                   9890	lcojn                   9D50
lcomf                   9270	lcomg                   93F0
lcomj                   9030	lcopl                   9000
lcopq                   91C0	lcrrp                   B444
lcsmj                   A818	lcsug                   A7E8
lcsvv                   A970	lcsxt                   AA20
lcsyv                   A840	lcszv                   AF40
lctau                   A290	lctcu                   A2E0
lctcv                   A260	lctdw                   A6A0
lcuoj                   B250	lcupu                   B590
lcuqd                   B320	ldkwn                   C438
ldlfj                   C170	ldlft                   C010
ldlif                   C000	ldmqr                   D800
ldsgk                   FFF8	ldsqg                   FFF0
ldstf                   FF00	lfqwv                   8007
lfrxw                   909F	lfskp                   9727
lftxp                   8003	lfvgv                   9C63
lfwrw                   AE97	lfwvn                   A177
lfwyt                   A727	lfzps                   A6EB
lfzyk                   A3E3	lgaad                   A703
lgbeh                   BB33	lgbhd                   B863
lgfjy                   8FFA	lgfyj                   8052
lggar                   8002	lggyq                   98AA
lggzl                   984A	lghgl                   9B12
lghid                   9D52	lghje                   9982
lginc                   AEEE	lgipw                   A4FE
lgivv                   AB66	lgiyx                   A356
lglmm                   AAAA	lglwj                   AA22
lglzk                   A292	lgnkp                   BB42
lgnlh                   BC22	lgnmz                   B252
lgnor                   B222	lgozr                   C337
lgozx                   C037	lgwbe                   FFFF
lgzot                   FF03	lhlqv                   F802
lhlrv                   FF02	ljjgx                   094D
ljjik                   03FD	ljjjg                   00DD
ljjjv                   053D	ljjjy                   05FD
ljjkb                   061D	ljjkp                   055D
ljjlj                   030D	ljjmh                   052D
ljjmt                   074D	ljjmw                   058D
ljjsl                   0135	ljjtq                   05B5
ljjvr                   0145	ljjwo                   07C5
ljjwv                   0445	ljmlp                   0269
ljmms                   07A9	ljmnb                   0529
ljmnh                   0609	ljmnp                   0409
ljmoh                   0931	ljmrd                   0A41
ljmte                   01B1	ljmtg                   00F1
ljmtr                   0351	ljmuk                   05B1
ljmwp                   0721	ljmwt                   0761
ljmwv                   0421	ljmww                   05A1
ljojo                   1081	ljvli                   03BC
ljvob                   002C	ljvot                   010C
ljvpi                   05AC	ljvwk                   07B4
ljvwv                   0474	ljvxu                   03E4
ljvya                   00E4	ljvyw                   07A4
ljvzh                   0464	ljymd                   0338
ljymj                   0038	ljynt                   0478
ljypc                   0288	ljyph                   0248
ljypk                   0088	ljypt                   0628
ljyqc                   05A8	ljyqd                   0528
ljyqk                   0788	ljyqs                   0588
ljyqt                   0508	ljywn                   0210
ljyww                   0190	ljyxb                   0150
ljyxe                   07B0	ljyxj                   0770
ljyxr                   0570	ljyyg                   05D0
ljyzm                   01C0	ljyzq                   07A0
ljzaq                   04C0	lkacz                   1048
lkahx                   1840	lkama                   10A0
lkezb                   2530	lkfau                   2080
lkglh                   3070	lkgnt                   3060
lktws                   49B4	lncch                   093F
lncgy                   02FF	lnchk                   029F
lncib                   063F	lncid                   073F
lncih                   077F	lncip                   057F
lncjb                   051F	lncrx                   0637
lncsf                   0437	lncsp                   0717
lncth                   0267	lncts                   0287
lncuz                   0607	lncvd                   0647
lncvi                   0587	lndwo                   15DF
lndxx                   162F	lndxz                   172F
lndyb                   166F	lnfia                   00FB
lnfib                   007B	lnfip                   011B
lnfjb                   077B	lnfji                   05FB
lnfjj                   057B	lnflb                   010B
lnflh                   062B	lnflv                   056B
lnfqy                   0EC3	lnfrm                   03B3
lnfrn                   0333	lnfug                   01A3
lnfur                   0243	lnfwg                   05C3
lnhfh                   1073	lnokc                   03FE
lnokg                   01BE	lnokn                   021E
lnokp                   031E	lnola                   01DE
lnolv                   071E	lnomo                   03EE
lnonq                   07AE	lnooa                   04EE
lnoog                   078E	lnooo                   058E
lnopj                   0976	lnotw                   02F6
lnovv                   0756	lnoxd                   0006
lnoxy                   05E6	lnoxz                   0566
lnrkx                   037A	lnrlg                   029A
lnrmx                   051A	lnrnn                   012A
lnrov                   046A	lnrvp                   0052
lnrvt                   0632	lnrvv                   0732
lnrwd                   0532	lnrwj                   0612
lnrxb                   0322	lnrxv                   0342
lnryt                   0562	lnrzd                   0402
lnrzf                   0502	lodqa                   44DB
lofpj                   5703	lolqx                   7703
lonea                   44E6	
