0004  21 0D 00  LXI H,000D  (1)  BC:0000  DE:0000  HL:0004  AF:0056  SP:7FFD  PC:0004   
0007  CD 50 00  CALL 0050   (1)  BC:0000  DE:0000  HL:000D  AF:0056  SP:7FFD  PC:0007   
0050  C5        PUSH B      (2)  BC:0000  DE:0000  HL:000D  AF:0056  SP:7FFB  PC:0050   
0051  D5        PUSH D      (2)  BC:0000  DE:0000  HL:000D  AF:0056  SP:7FF9  PC:0051   
0052  E5        PUSH H      (2)  BC:0000  DE:0000  HL:000D  AF:0056  SP:7FF7  PC:0052   
0053  F5        PUSH PSW    (2)  BC:0000  DE:0000  HL:000D  AF:0056  SP:7FF5  PC:0053   
0054  7E        MOV A,M     (2)  BC:0000  DE:0000  HL:000D  AF:0056  SP:7FF3  PC:0054   
0055  FE 24     CPI 24      (2)  BC:0000  DE:0000  HL:000D  AF:0D56  SP:7FF3  PC:0055   
0057  CA 62 00  JZ 0062     (2)  BC:0000  DE:0000  HL:000D  AF:0D83  SP:7FF3  PC:0057   
005A  7E        MOV A,M     (2)  BC:0000  DE:0000  HL:000D  AF:0D83  SP:7FF3  PC:005A   
005B  CD 67 00  CALL 0067   (2)  BC:0000  DE:0000  HL:000D  AF:0D83  SP:7FF3  PC:005B   
005E  23        INX H       (2)  BC:0000  DE:0000  HL:000D  AF:0D83  SP:7FF3  PC:005E   
005F  C3 54 00  JMP 0054    (2)  BC:0000  DE:0000  HL:000E  AF:0D83  SP:7FF3  PC:005F   
0054  7E        MOV A,M     (2)  BC:0000  DE:0000  HL:000E  AF:0D83  SP:7FF3  PC:0054   
0055  FE 24     CPI 24      (2)  BC:0000  DE:0000  HL:000E  AF:0A83  SP:7FF3  PC:0055   
0057  CA 62 00  JZ 0062     (2)  BC:0000  DE:0000  HL:000E  AF:0A83  SP:7FF3  PC:0057   
005A  7E        MOV A,M     (2)  BC:0000  DE:0000  HL:000E  AF:0A83  SP:7FF3  PC:005A   
005B  CD 67 00  CALL 0067   (2)  BC:0000  DE:0000  HL:000E  AF:0A83  SP:7FF3  PC:005B   
005E  23        INX H       (2)  BC:0000  DE:0000  HL:000E  AF:0A83  SP:7FF3  PC:005E   
005F  C3 54 00  JMP 0054    (2)  BC:0000  DE:0000  HL:000F  AF:0A83  SP:7FF3  PC:005F   
0054  7E        MOV A,M     (2)  BC:0000  DE:0000  HL:000F  AF:0A83  SP:7FF3  PC:0054   
0055  FE 24     CPI 24      (2)  BC:0000  DE:0000  HL:000F  AF:3883  SP:7FF3  PC:0055   
0057  CA 62 00  JZ 0062     (2)  BC:0000  DE:0000  HL:000F  AF:3806  SP:7FF3  PC:0057   
005A  7E        MOV A,M     (2)  BC:0000  DE:0000  HL:000F  AF:3806  SP:7FF3  PC:005A   
005B  CD 67 00  CALL 0067   (2)  BC:0000  DE:0000  HL:000F  AF:3806  SP:7FF3  PC:005B   
005E  23        INX H       (2)  BC:0000  DE:0000  HL:000F  AF:3806  SP:7FF3  PC:005E   
005F  C3 54 00  JMP 0054    (2)  BC:0000  DE:0000  HL:0010  AF:3806  SP:7FF3  PC:005F   
0054  7E        MOV A,M     (2)  BC:0000  DE:0000  HL:0010  AF:3806  SP:7FF3  PC:0054   
0055  FE 24     CPI 24      (2)  BC:0000  DE:0000  HL:0010  AF:3006  SP:7FF3  PC:0055   
0057  CA 62 00  JZ 0062     (2)  BC:0000  DE:0000  HL:0010  AF:3016  SP:7FF3  PC:0057   
005A  7E        MOV A,M     (2)  BC:0000  DE:0000  HL:0010  AF:3016  SP:7FF3  PC:005A   
005B  CD 67 00  CALL 0067   (2)  BC:0000  DE:0000  HL:0010  AF:3016  SP:7FF3  PC:005B   
005E  23        INX H       (2)  BC:0000  DE:0000  HL:0010  AF:3016  SP:7FF3  PC:005E   
005F  C3 54 00  JMP 0054    (2)  BC:0000  DE:0000  HL:0011  AF:3016  SP:7FF3  PC:005F   
0054  7E        MOV A,M     (2)  BC:0000  DE:0000  HL:0011  AF:3016  SP:7FF3  PC:0054   
0055  FE 24     CPI 24      (2)  BC:0000  DE:0000  HL:0011  AF:3816  SP:7FF3  PC:0055   
0057  CA 62 00  JZ 0062     (2)  BC:0000  DE:0000  HL:0011  AF:3806  SP:7FF3  PC:0057   
005A  7E        MOV A,M     (2)  BC:0000  DE:0000  HL:0011  AF:3806  SP:7FF3  PC:005A   
005B  CD 67 00  CALL 0067   (2)  BC:0000  DE:0000  HL:0011  AF:3806  SP:7FF3  PC:005B   
005E  23        INX H       (2)  BC:0000  DE:0000  HL:0011  AF:3806  SP:7FF3  PC:005E   
005F  C3 54 00  JMP 0054    (2)  BC:0000  DE:0000  HL:0012  AF:3806  SP:7FF3  PC:005F   
0054  7E        MOV A,M     (2)  BC:0000  DE:0000  HL:0012  AF:3806  SP:7FF3  PC:0054   
0055  FE 24     CPI 24      (2)  BC:0000  DE:0000  HL:0012  AF:3006  SP:7FF3  PC:0055   
0057  CA 62 00  JZ 0062     (2)  BC:0000  DE:0000  HL:0012  AF:3016  SP:7FF3  PC:0057   
005A  7E        MOV A,M     (2)  BC:0000  DE:0000  HL:0012  AF:3016  SP:7FF3  PC:005A   
005B  CD 67 00  CALL 0067   (2)  BC:0000  DE:0000  HL:0012  AF:3016  SP:7FF3  PC:005B   
005E  23        INX H       (2)  BC:0000  DE:0000  HL:0012  AF:3016  SP:7FF3  PC:005E   
005F  C3 54 00  JMP 0054    (2)  BC:0000  DE:0000  HL:0013  AF:3016  SP:7FF3  PC:005F   
0054  7E        MOV A,M     (2)  BC:0000  DE:0000  HL:0013  AF:3016  SP:7FF3  PC:0054   
0055  FE 24     CPI 24      (2)  BC:0000  DE:0000  HL:0013  AF:2016  SP:7FF3  PC:0055   
0057  CA 62 00  JZ 0062     (2)  BC:0000  DE:0000  HL:0013  AF:2097  SP:7FF3  PC:0057   
005A  7E        MOV A,M     (2)  BC:0000  DE:0000  HL:0013  AF:2097  SP:7FF3  PC:005A   
005B  CD 67 00  CALL 0067   (2)  BC:0000  DE:0000  HL:0013  AF:2097  SP:7FF3  PC:005B   
005E  23        INX H       (2)  BC:0000  DE:0000  HL:0013  AF:2097  SP:7FF3  PC:005E   
005F  C3 54 00  JMP 0054    (2)  BC:0000  DE:0000  HL:0014  AF:2097  SP:7FF3  PC:005F   
0054  7E        MOV A,M     (2)  BC:0000  DE:0000  HL:0014  AF:2097  SP:7FF3  PC:0054   
0055  FE 24     CPI 24      (2)  BC:0000  DE:0000  HL:0014  AF:5097  SP:7FF3  PC:0055   
0057  CA 62 00  JZ 0062     (2)  BC:0000  DE:0000  HL:0014  AF:5012  SP:7FF3  PC:0057   
005A  7E        MOV A,M     (2)  BC:0000  DE:0000  HL:0014  AF:5012  SP:7FF3  PC:005A   
005B  CD 67 00  CALL 0067   (2)  BC:0000  DE:0000  HL:0014  AF:5012  SP:7FF3  PC:005B   
005E  23        INX H       (2)  BC:0000  DE:0000  HL:0014  AF:5012  SP:7FF3  PC:005E   
005F  C3 54 00  JMP 0054    (2)  BC:0000  DE:0000  HL:0015  AF:5012  SP:7FF3  PC:005F   
0054  7E        MOV A,M     (2)  BC:0000  DE:0000  HL:0015  AF:5012  SP:7FF3  PC:0054   
0055  FE 24     CPI 24      (2)  BC:0000  DE:0000  HL:0015  AF:5212  SP:7FF3  PC:0055   
0057  CA 62 00  JZ 0062     (2)  BC:0000  DE:0000  HL:0015  AF:5216  SP:7FF3  PC:0057   
005A  7E        MOV A,M     (2)  BC:0000  DE:0000  HL:0015  AF:5216  SP:7FF3  PC:005A   
005B  CD 67 00  CALL 0067   (2)  BC:0000  DE:0000  HL:0015  AF:5216  SP:7FF3  PC:005B   
005E  23        INX H       (2)  BC:0000  DE:0000  HL:0015  AF:5216  SP:7FF3  PC:005E   
005F  C3 54 00  JMP 0054    (2)  BC:0000  DE:0000  HL:0016  AF:5216  SP:7FF3  PC:005F   
0054  7E        MOV A,M     (2)  BC:0000  DE:0000  HL:0016  AF:5216  SP:7FF3  PC:0054   
0055  FE 24     CPI 24      (2)  BC:0000  DE:0000  HL:0016  AF:4516  SP:7FF3  PC:0055   
0057  CA 62 00  JZ 0062     (2)  BC:0000  DE:0000  HL:0016  AF:4506  SP:7FF3  PC:0057   
005A  7E        MOV A,M     (2)  BC:0000  DE:0000  HL:0016  AF:4506  SP:7FF3  PC:005A   
005B  CD 67 00  CALL 0067   (2)  BC:0000  DE:0000  HL:0016  AF:4506  SP:7FF3  PC:005B   
005E  23        INX H       (2)  BC:0000  DE:0000  HL:0016  AF:4506  SP:7FF3  PC:005E   
005F  C3 54 00  JMP 0054    (2)  BC:0000  DE:0000  HL:0017  AF:4506  SP:7FF3  PC:005F   
0054  7E        MOV A,M     (2)  BC:0000  DE:0000  HL:0017  AF:4506  SP:7FF3  PC:0054   
0055  FE 24     CPI 24      (2)  BC:0000  DE:0000  HL:0017  AF:4C06  SP:7FF3  PC:0055   
0057  CA 62 00  JZ 0062     (2)  BC:0000  DE:0000  HL:0017  AF:4C06  SP:7FF3  PC:0057   
005A  7E        MOV A,M     (2)  BC:0000  DE:0000  HL:0017  AF:4C06  SP:7FF3  PC:005A   
005B  CD 67 00  CALL 0067   (2)  BC:0000  DE:0000  HL:0017  AF:4C06  SP:7FF3  PC:005B   
005E  23        INX H       (2)  BC:0000  DE:0000  HL:0017  AF:4C06  SP:7FF3  PC:005E   
005F  C3 54 00  JMP 0054    (2)  BC:0000  DE:0000  HL:0018  AF:4C06  SP:7FF3  PC:005F   
0054  7E        MOV A,M     (2)  BC:0000  DE:0000  HL:0018  AF:4C06  SP:7FF3  PC:0054   
0055  FE 24     CPI 24      (2)  BC:0000  DE:0000  HL:0018  AF:4906  SP:7FF3  PC:0055   
0057  CA 62 00  JZ 0062     (2)  BC:0000  DE:0000  HL:0018  AF:4902  SP:7FF3  PC:0057   
005A  7E        MOV A,M     (2)  BC:0000  DE:0000  HL:0018  AF:4902  SP:7FF3  PC:005A   
005B  CD 67 00  CALL 0067   (2)  BC:0000  DE:0000  HL:0018  AF:4902  SP:7FF3  PC:005B   
005E  23        INX H       (2)  BC:0000  DE:0000  HL:0018  AF:4902  SP:7FF3  PC:005E   
005F  C3 54 00  JMP 0054    (2)  BC:0000  DE:0000  HL:0019  AF:4902  SP:7FF3  PC:005F   
0054  7E        MOV A,M     (2)  BC:0000  DE:0000  HL:0019  AF:4902  SP:7FF3  PC:0054   
0055  FE 24     CPI 24      (2)  BC:0000  DE:0000  HL:0019  AF:4D02  SP:7FF3  PC:0055   
0057  CA 62 00  JZ 0062     (2)  BC:0000  DE:0000  HL:0019  AF:4D02  SP:7FF3  PC:0057   
005A  7E        MOV A,M     (2)  BC:0000  DE:0000  HL:0019  AF:4D02  SP:7FF3  PC:005A   
005B  CD 67 00  CALL 0067   (2)  BC:0000  DE:0000  HL:0019  AF:4D02  SP:7FF3  PC:005B   
005E  23        INX H       (2)  BC:0000  DE:0000  HL:0019  AF:4D02  SP:7FF3  PC:005E   
005F  C3 54 00  JMP 0054    (2)  BC:0000  DE:0000  HL:001A  AF:4D02  SP:7FF3  PC:005F   
0054  7E        MOV A,M     (2)  BC:0000  DE:0000  HL:001A  AF:4D02  SP:7FF3  PC:0054   
0055  FE 24     CPI 24      (2)  BC:0000  DE:0000  HL:001A  AF:4902  SP:7FF3  PC:0055   
0057  CA 62 00  JZ 0062     (2)  BC:0000  DE:0000  HL:001A  AF:4902  SP:7FF3  PC:0057   
005A  7E        MOV A,M     (2)  BC:0000  DE:0000  HL:001A  AF:4902  SP:7FF3  PC:005A   
005B  CD 67 00  CALL 0067   (2)  BC:0000  DE:0000  HL:001A  AF:4902  SP:7FF3  PC:005B   
005E  23        INX H       (2)  BC:0000  DE:0000  HL:001A  AF:4902  SP:7FF3  PC:005E   
005F  C3 54 00  JMP 0054    (2)  BC:0000  DE:0000  HL:001B  AF:4902  SP:7FF3  PC:005F   
0054  7E        MOV A,M     (2)  BC:0000  DE:0000  HL:001B  AF:4902  SP:7FF3  PC:0054   
0055  FE 24     CPI 24      (2)  BC:0000  DE:0000  HL:001B  AF:4E02  SP:7FF3  PC:0055   
0057  CA 62 00  JZ 0062     (2)  BC:0000  DE:0000  HL:001B  AF:4E02  SP:7FF3  PC:0057   
005A  7E        MOV A,M     (2)  BC:0000  DE:0000  HL:001B  AF:4E02  SP:7FF3  PC:005A   
005B  CD 67 00  CALL 0067   (2)  BC:0000  DE:0000  HL:001B  AF:4E02  SP:7FF3  PC:005B   
005E  23        INX H       (2)  BC:0000  DE:0000  HL:001B  AF:4E02  SP:7FF3  PC:005E   
005F  C3 54 00  JMP 0054    (2)  BC:0000  DE:0000  HL:001C  AF:4E02  SP:7FF3  PC:005F   
0054  7E        MOV A,M     (2)  BC:0000  DE:0000  HL:001C  AF:4E02  SP:7FF3  PC:0054   
0055  FE 24     CPI 24      (2)  BC:0000  DE:0000  HL:001C  AF:4102  SP:7FF3  PC:0055   
0057  CA 62 00  JZ 0062     (2)  BC:0000  DE:0000  HL:001C  AF:4116  SP:7FF3  PC:0057   
005A  7E        MOV A,M     (2)  BC:0000  DE:0000  HL:001C  AF:4116  SP:7FF3  PC:005A   
005B  CD 67 00  CALL 0067   (2)  BC:0000  DE:0000  HL:001C  AF:4116  SP:7FF3  PC:005B   
005E  23        INX H       (2)  BC:0000  DE:0000  HL:001C  AF:4116  SP:7FF3  PC:005E   
005F  C3 54 00  JMP 0054    (2)  BC:0000  DE:0000  HL:001D  AF:4116  SP:7FF3  PC:005F   
0054  7E        MOV A,M     (2)  BC:0000  DE:0000  HL:001D  AF:4116  SP:7FF3  PC:0054   
0055  FE 24     CPI 24      (2)  BC:0000  DE:0000  HL:001D  AF:5216  SP:7FF3  PC:0055   
0057  CA 62 00  JZ 0062     (2)  BC:0000  DE:0000  HL:001D  AF:5216  SP:7FF3  PC:0057   
005A  7E        MOV A,M     (2)  BC:0000  DE:0000  HL:001D  AF:5216  SP:7FF3  PC:005A   
005B  CD 67 00  CALL 0067   (2)  BC:0000  DE:0000  HL:001D  AF:5216  SP:7FF3  PC:005B   
005E  23        INX H       (2)  BC:0000  DE:0000  HL:001D  AF:5216  SP:7FF3  PC:005E   
005F  C3 54 00  JMP 0054    (2)  BC:0000  DE:0000  HL:001E  AF:5216  SP:7FF3  PC:005F   
0054  7E        MOV A,M     (2)  BC:0000  DE:0000  HL:001E  AF:5216  SP:7FF3  PC:0054   
0055  FE 24     CPI 24      (2)  BC:0000  DE:0000  HL:001E  AF:5916  SP:7FF3  PC:0055   
0057  CA 62 00  JZ 0062     (2)  BC:0000  DE:0000  HL:001E  AF:5906  SP:7FF3  PC:0057   
005A  7E        MOV A,M     (2)  BC:0000  DE:0000  HL:001E  AF:5906  SP:7FF3  PC:005A   
005B  CD 67 00  CALL 0067   (2)  BC:0000  DE:0000  HL:001E  AF:5906  SP:7FF3  PC:005B   
005E  23        INX H       (2)  BC:0000  DE:0000  HL:001E  AF:5906  SP:7FF3  PC:005E   
005F  C3 54 00  JMP 0054    (2)  BC:0000  DE:0000  HL:001F  AF:5906  SP:7FF3  PC:005F   
0054  7E        MOV A,M     (2)  BC:0000  DE:0000  HL:001F  AF:5906  SP:7FF3  PC:0054   
0055  FE 24     CPI 24      (2)  BC:0000  DE:0000  HL:001F  AF:2006  SP:7FF3  PC:0055   
0057  CA 62 00  JZ 0062     (2)  BC:0000  DE:0000  HL:001F  AF:2097  SP:7FF3  PC:0057   
005A  7E        MOV A,M     (2)  BC:0000  DE:0000  HL:001F  AF:2097  SP:7FF3  PC:005A   
005B  CD 67 00  CALL 0067   (2)  BC:0000  DE:0000  HL:001F  AF:2097  SP:7FF3  PC:005B   
005E  23        INX H       (2)  BC:0000  DE:0000  HL:001F  AF:2097  SP:7FF3  PC:005E   
005F  C3 54 00  JMP 0054    (2)  BC:0000  DE:0000  HL:0020  AF:2097  SP:7FF3  PC:005F   
0054  7E        MOV A,M     (2)  BC:0000  DE:0000  HL:0020  AF:2097  SP:7FF3  PC:0054   
0055  FE 24     CPI 24      (2)  BC:0000  DE:0000  HL:0020  AF:5497  SP:7FF3  PC:0055   
0057  CA 62 00  JZ 0062     (2)  BC:0000  DE:0000  HL:0020  AF:5406  SP:7FF3  PC:0057   
005A  7E        MOV A,M     (2)  BC:0000  DE:0000  HL:0020  AF:5406  SP:7FF3  PC:005A   
005B  CD 67 00  CALL 0067   (2)  BC:0000  DE:0000  HL:0020  AF:5406  SP:7FF3  PC:005B   
005E  23        INX H       (2)  BC:0000  DE:0000  HL:0020  AF:5406  SP:7FF3  PC:005E   
005F  C3 54 00  JMP 0054    (2)  BC:0000  DE:0000  HL:0021  AF:5406  SP:7FF3  PC:005F   
0054  7E        MOV A,M     (2)  BC:0000  DE:0000  HL:0021  AF:5406  SP:7FF3  PC:0054   
0055  FE 24     CPI 24      (2)  BC:0000  DE:0000  HL:0021  AF:4506  SP:7FF3  PC:0055   
0057  CA 62 00  JZ 0062     (2)  BC:0000  DE:0000  HL:0021  AF:4506  SP:7FF3  PC:0057   
005A  7E        MOV A,M     (2)  BC:0000  DE:0000  HL:0021  AF:4506  SP:7FF3  PC:005A   
005B  CD 67 00  CALL 0067   (2)  BC:0000  DE:0000  HL:0021  AF:4506  SP:7FF3  PC:005B   
005E  23        INX H       (2)  BC:0000  DE:0000  HL:0021  AF:4506  SP:7FF3  PC:005E   
005F  C3 54 00  JMP 0054    (2)  BC:0000  DE:0000  HL:0022  AF:4506  SP:7FF3  PC:005F   
0054  7E        MOV A,M     (2)  BC:0000  DE:0000  HL:0022  AF:4506  SP:7FF3  PC:0054   
0055  FE 24     CPI 24      (2)  BC:0000  DE:0000  HL:0022  AF:5306  SP:7FF3  PC:0055   
0057  CA 62 00  JZ 0062     (2)  BC:0000  DE:0000  HL:0022  AF:5312  SP:7FF3  PC:0057   
005A  7E        MOV A,M     (2)  BC:0000  DE:0000  HL:0022  AF:5312  SP:7FF3  PC:005A   
005B  CD 67 00  CALL 0067   (2)  BC:0000  DE:0000  HL:0022  AF:5312  SP:7FF3  PC:005B   
005E  23        INX H       (2)  BC:0000  DE:0000  HL:0022  AF:5312  SP:7FF3  PC:005E   
005F  C3 54 00  JMP 0054    (2)  BC:0000  DE:0000  HL:0023  AF:5312  SP:7FF3  PC:005F   
0054  7E        MOV A,M     (2)  BC:0000  DE:0000  HL:0023  AF:5312  SP:7FF3  PC:0054   
0055  FE 24     CPI 24      (2)  BC:0000  DE:0000  HL:0023  AF:5412  SP:7FF3  PC:0055   
0057  CA 62 00  JZ 0062     (2)  BC:0000  DE:0000  HL:0023  AF:5406  SP:7FF3  PC:0057   
005A  7E        MOV A,M     (2)  BC:0000  DE:0000  HL:0023  AF:5406  SP:7FF3  PC:005A   
005B  CD 67 00  CALL 0067   (2)  BC:0000  DE:0000  HL:0023  AF:5406  SP:7FF3  PC:005B   
005E  23        INX H       (2)  BC:0000  DE:0000  HL:0023  AF:5406  SP:7FF3  PC:005E   
005F  C3 54 00  JMP 0054    (2)  BC:0000  DE:0000  HL:0024  AF:5406  SP:7FF3  PC:005F   
0054  7E        MOV A,M     (2)  BC:0000  DE:0000  HL:0024  AF:5406  SP:7FF3  PC:0054   
0055  FE 24     CPI 24      (2)  BC:0000  DE:0000  HL:0024  AF:5306  SP:7FF3  PC:0055   
0057  CA 62 00  JZ 0062     (2)  BC:0000  DE:0000  HL:0024  AF:5312  SP:7FF3  PC:0057   
005A  7E        MOV A,M     (2)  BC:0000  DE:0000  HL:0024  AF:5312  SP:7FF3  PC:005A   
005B  CD 67 00  CALL 0067   (2)  BC:0000  DE:0000  HL:0024  AF:5312  SP:7FF3  PC:005B   
005E  23        INX H       (2)  BC:0000  DE:0000  HL:0024  AF:5312  SP:7FF3  PC:005E   
005F  C3 54 00  JMP 0054    (2)  BC:0000  DE:0000  HL:0025  AF:5312  SP:7FF3  PC:005F   
0054  7E        MOV A,M     (2)  BC:0000  DE:0000  HL:0025  AF:5312  SP:7FF3  PC:0054   
0055  FE 24     CPI 24      (2)  BC:0000  DE:0000  HL:0025  AF:0D12  SP:7FF3  PC:0055   
0057  CA 62 00  JZ 0062     (2)  BC:0000  DE:0000  HL:0025  AF:0D83  SP:7FF3  PC:0057   
005A  7E        MOV A,M     (2)  BC:0000  DE:0000  HL:0025  AF:0D83  SP:7FF3  PC:005A   
005B  CD 67 00  CALL 0067   (2)  BC:0000  DE:0000  HL:0025  AF:0D83  SP:7FF3  PC:005B   
005E  23        INX H       (2)  BC:0000  DE:0000  HL:0025  AF:0D83  SP:7FF3  PC:005E   
005F  C3 54 00  JMP 0054    (2)  BC:0000  DE:0000  HL:0026  AF:0D83  SP:7FF3  PC:005F   
0054  7E        MOV A,M     (2)  BC:0000  DE:0000  HL:0026  AF:0D83  SP:7FF3  PC:0054   
0055  FE 24     CPI 24      (2)  BC:0000  DE:0000  HL:0026  AF:0A83  SP:7FF3  PC:0055   
0057  CA 62 00  JZ 0062     (2)  BC:0000  DE:0000  HL:0026  AF:0A83  SP:7FF3  PC:0057   
005A  7E        MOV A,M     (2)  BC:0000  DE:0000  HL:0026  AF:0A83  SP:7FF3  PC:005A   
005B  CD 67 00  CALL 0067   (2)  BC:0000  DE:0000  HL:0026  AF:0A83  SP:7FF3  PC:005B   
005E  23        INX H       (2)  BC:0000  DE:0000  HL:0026  AF:0A83  SP:7FF3  PC:005E   
005F  C3 54 00  JMP 0054    (2)  BC:0000  DE:0000  HL:0027  AF:0A83  SP:7FF3  PC:005F   
0054  7E        MOV A,M     (2)  BC:0000  DE:0000  HL:0027  AF:0A83  SP:7FF3  PC:0054   
0055  FE 24     CPI 24      (2)  BC:0000  DE:0000  HL:0027  AF:4383  SP:7FF3  PC:0055   
0057  CA 62 00  JZ 0062     (2)  BC:0000  DE:0000  HL:0027  AF:4312  SP:7FF3  PC:0057   
005A  7E        MOV A,M     (2)  BC:0000  DE:0000  HL:0027  AF:4312  SP:7FF3  PC:005A   
005B  CD 67 00  CALL 0067   (2)  BC:0000  DE:0000  HL:0027  AF:4312  SP:7FF3  PC:005B   
005E  23        INX H       (2)  BC:0000  DE:0000  HL:0027  AF:4312  SP:7FF3  PC:005E   
005F  C3 54 00  JMP 0054    (2)  BC:0000  DE:0000  HL:0028  AF:4312  SP:7FF3  PC:005F   
0054  7E        MOV A,M     (2)  BC:0000  DE:0000  HL:0028  AF:4312  SP:7FF3  PC:0054   
0055  FE 24     CPI 24      (2)  BC:0000  DE:0000  HL:0028  AF:4F12  SP:7FF3  PC:0055   
0057  CA 62 00  JZ 0062     (2)  BC:0000  DE:0000  HL:0028  AF:4F06  SP:7FF3  PC:0057   
005A  7E        MOV A,M     (2)  BC:0000  DE:0000  HL:0028  AF:4F06  SP:7FF3  PC:005A   
005B  CD 67 00  CALL 0067   (2)  BC:0000  DE:0000  HL:0028  AF:4F06  SP:7FF3  PC:005B   
005E  23        INX H       (2)  BC:0000  DE:0000  HL:0028  AF:4F06  SP:7FF3  PC:005E   
005F  C3 54 00  JMP 0054    (2)  BC:0000  DE:0000  HL:0029  AF:4F06  SP:7FF3  PC:005F   
0054  7E        MOV A,M     (2)  BC:0000  DE:0000  HL:0029  AF:4F06  SP:7FF3  PC:0054   
0055  FE 24     CPI 24      (2)  BC:0000  DE:0000  HL:0029  AF:5006  SP:7FF3  PC:0055   
0057  CA 62 00  JZ 0062     (2)  BC:0000  DE:0000  HL:0029  AF:5012  SP:7FF3  PC:0057   
005A  7E        MOV A,M     (2)  BC:0000  DE:0000  HL:0029  AF:5012  SP:7FF3  PC:005A   
005B  CD 67 00  CALL 0067   (2)  BC:0000  DE:0000  HL:0029  AF:5012  SP:7FF3  PC:005B   
005E  23        INX H       (2)  BC:0000  DE:0000  HL:0029  AF:5012  SP:7FF3  PC:005E   
005F  C3 54 00  JMP 0054    (2)  BC:0000  DE:0000  HL:002A  AF:5012  SP:7FF3  PC:005F   
0054  7E        MOV A,M     (2)  BC:0000  DE:0000  HL:002A  AF:5012  SP:7FF3  PC:0054   
0055  FE 24     CPI 24      (2)  BC:0000  DE:0000  HL:002A  AF:5912  SP:7FF3  PC:0055   
0057  CA 62 00  JZ 0062     (2)  BC:0000  DE:0000  HL:002A  AF:5906  SP:7FF3  PC:0057   
005A  7E        MOV A,M     (2)  BC:0000  DE:0000  HL:002A  AF:5906  SP:7FF3  PC:005A   
005B  CD 67 00  CALL 0067   (2)  BC:0000  DE:0000  HL:002A  AF:5906  SP:7FF3  PC:005B   
005E  23        INX H       (2)  BC:0000  DE:0000  HL:002A  AF:5906  SP:7FF3  PC:005E   
005F  C3 54 00  JMP 0054    (2)  BC:0000  DE:0000  HL:002B  AF:5906  SP:7FF3  PC:005F   
0054  7E        MOV A,M     (2)  BC:0000  DE:0000  HL:002B  AF:5906  SP:7FF3  PC:0054   
0055  FE 24     CPI 24      (2)  BC:0000  DE:0000  HL:002B  AF:5206  SP:7FF3  PC:0055   
0057  CA 62 00  JZ 0062     (2)  BC:0000  DE:0000  HL:002B  AF:5216  SP:7FF3  PC:0057   
005A  7E        MOV A,M     (2)  BC:0000  DE:0000  HL:002B  AF:5216  SP:7FF3  PC:005A   
005B  CD 67 00  CALL 0067   (2)  BC:0000  DE:0000  HL:002B  AF:5216  SP:7FF3  PC:005B   
005E  23        INX H       (2)  BC:0000  DE:0000  HL:002B  AF:5216  SP:7FF3  PC:005E   
005F  C3 54 00  JMP 0054    (2)  BC:0000  DE:0000  HL:002C  AF:5216  SP:7FF3  PC:005F   
0054  7E        MOV A,M     (2)  BC:0000  DE:0000  HL:002C  AF:5216  SP:7FF3  PC:0054   
0055  FE 24     CPI 24      (2)  BC:0000  DE:0000  HL:002C  AF:4916  SP:7FF3  PC:0055   
0057  CA 62 00  JZ 0062     (2)  BC:0000  DE:0000  HL:002C  AF:4902  SP:7FF3  PC:0057   
005A  7E        MOV A,M     (2)  BC:0000  DE:0000  HL:002C  AF:4902  SP:7FF3  PC:005A   
005B  CD 67 00  CALL 0067   (2)  BC:0000  DE:0000  HL:002C  AF:4902  SP:7FF3  PC:005B   
005E  23        INX H       (2)  BC:0000  DE:0000  HL:002C  AF:4902  SP:7FF3  PC:005E   
005F  C3 54 00  JMP 0054    (2)  BC:0000  DE:0000  HL:002D  AF:4902  SP:7FF3  PC:005F   
0054  7E        MOV A,M     (2)  BC:0000  DE:0000  HL:002D  AF:4902  SP:7FF3  PC:0054   
0055  FE 24     CPI 24      (2)  BC:0000  DE:0000  HL:002D  AF:4702  SP:7FF3  PC:0055   
0057  CA 62 00  JZ 0062     (2)  BC:0000  DE:0000  HL:002D  AF:4702  SP:7FF3  PC:0057   
005A  7E        MOV A,M     (2)  BC:0000  DE:0000  HL:002D  AF:4702  SP:7FF3  PC:005A   
005B  CD 67 00  CALL 0067   (2)  BC:0000  DE:0000  HL:002D  AF:4702  SP:7FF3  PC:005B   
005E  23        INX H       (2)  BC:0000  DE:0000  HL:002D  AF:4702  SP:7FF3  PC:005E   
005F  C3 54 00  JMP 0054    (2)  BC:0000  DE:0000  HL:002E  AF:4702  SP:7FF3  PC:005F   
0054  7E        MOV A,M     (2)  BC:0000  DE:0000  HL:002E  AF:4702  SP:7FF3  PC:0054   
0055  FE 24     CPI 24      (2)  BC:0000  DE:0000  HL:002E  AF:4802  SP:7FF3  PC:0055   
0057  CA 62 00  JZ 0062     (2)  BC:0000  DE:0000  HL:002E  AF:4806  SP:7FF3  PC:0057   
005A  7E        MOV A,M     (2)  BC:0000  DE:0000  HL:002E  AF:4806  SP:7FF3  PC:005A   
005B  CD 67 00  CALL 0067   (2)  BC:0000  DE:0000  HL:002E  AF:4806  SP:7FF3  PC:005B   
005E  23        INX H       (2)  BC:0000  DE:0000  HL:002E  AF:4806  SP:7FF3  PC:005E   
005F  C3 54 00  JMP 0054    (2)  BC:0000  DE:0000  HL:002F  AF:4806  SP:7FF3  PC:005F   
0054  7E        MOV A,M     (2)  BC:0000  DE:0000  HL:002F  AF:4806  SP:7FF3  PC:0054   
0055  FE 24     CPI 24      (2)  BC:0000  DE:0000  HL:002F  AF:5406  SP:7FF3  PC:0055   
0057  CA 62 00  JZ 0062     (2)  BC:0000  DE:0000  HL:002F  AF:5406  SP:7FF3  PC:0057   
005A  7E        MOV A,M     (2)  BC:0000  DE:0000  HL:002F  AF:5406  SP:7FF3  PC:005A   
005B  CD 67 00  CALL 0067   (2)  BC:0000  DE:0000  HL:002F  AF:5406  SP:7FF3  PC:005B   
005E  23        INX H       (2)  BC:0000  DE:0000  HL:002F  AF:5406  SP:7FF3  PC:005E   
005F  C3 54 00  JMP 0054    (2)  BC:0000  DE:0000  HL:0030  AF:5406  SP:7FF3  PC:005F   
0054  7E        MOV A,M     (2)  BC:0000  DE:0000  HL:0030  AF:5406  SP:7FF3  PC:0054   
0055  FE 24     CPI 24      (2)  BC:0000  DE:0000  HL:0030  AF:2006  SP:7FF3  PC:0055   
0057  CA 62 00  JZ 0062     (2)  BC:0000  DE:0000  HL:0030  AF:2097  SP:7FF3  PC:0057   
005A  7E        MOV A,M     (2)  BC:0000  DE:0000  HL:0030  AF:2097  SP:7FF3  PC:005A   
005B  CD 67 00  CALL 0067   (2)  BC:0000  DE:0000  HL:0030  AF:2097  SP:7FF3  PC:005B   
005E  23        INX H       (2)  BC:0000  DE:0000  HL:0030  AF:2097  SP:7FF3  PC:005E   
005F  C3 54 00  JMP 0054    (2)  BC:0000  DE:0000  HL:0031  AF:2097  SP:7FF3  PC:005F   
0054  7E        MOV A,M     (2)  BC:0000  DE:0000  HL:0031  AF:2097  SP:7FF3  PC:0054   
0055  FE 24     CPI 24      (2)  BC:0000  DE:0000  HL:0031  AF:2897  SP:7FF3  PC:0055   
0057  CA 62 00  JZ 0062     (2)  BC:0000  DE:0000  HL:0031  AF:2802  SP:7FF3  PC:0057   
005A  7E        MOV A,M     (2)  BC:0000  DE:0000  HL:0031  AF:2802  SP:7FF3  PC:005A   
005B  CD 67 00  CALL 0067   (2)  BC:0000  DE:0000  HL:0031  AF:2802  SP:7FF3  PC:005B   
005E  23        INX H       (2)  BC:0000  DE:0000  HL:0031  AF:2802  SP:7FF3  PC:005E   
005F  C3 54 00  JMP 0054    (2)  BC:0000  DE:0000  HL:0032  AF:2802  SP:7FF3  PC:005F   
0054  7E        MOV A,M     (2)  BC:0000  DE:0000  HL:0032  AF:2802  SP:7FF3  PC:0054   
0055  FE 24     CPI 24      (2)  BC:0000  DE:0000  HL:0032  AF:4302  SP:7FF3  PC:0055   
0057  CA 62 00  JZ 0062     (2)  BC:0000  DE:0000  HL:0032  AF:4312  SP:7FF3  PC:0057   
005A  7E        MOV A,M     (2)  BC:0000  DE:0000  HL:0032  AF:4312  SP:7FF3  PC:005A   
005B  CD 67 00  CALL 0067   (2)  BC:0000  DE:0000  HL:0032  AF:4312  SP:7FF3  PC:005B   
005E  23        INX H       (2)  BC:0000  DE:0000  HL:0032  AF:4312  SP:7FF3  PC:005E   
005F  C3 54 00  JMP 0054    (2)  BC:0000  DE:0000  HL:0033  AF:4312  SP:7FF3  PC:005F   
0054  7E        MOV A,M     (2)  BC:0000  DE:0000  HL:0033  AF:4312  SP:7FF3  PC:0054   
0055  FE 24     CPI 24      (2)  BC:0000  DE:0000  HL:0033  AF:2912  SP:7FF3  PC:0055   
0057  CA 62 00  JZ 0062     (2)  BC:0000  DE:0000  HL:0033  AF:2906  SP:7FF3  PC:0057   
005A  7E        MOV A,M     (2)  BC:0000  DE:0000  HL:0033  AF:2906  SP:7FF3  PC:005A   
005B  CD 67 00  CALL 0067   (2)  BC:0000  DE:0000  HL:0033  AF:2906  SP:7FF3  PC:005B   
005E  23        INX H       (2)  BC:0000  DE:0000  HL:0033  AF:2906  SP:7FF3  PC:005E   
005F  C3 54 00  JMP 0054    (2)  BC:0000  DE:0000  HL:0034  AF:2906  SP:7FF3  PC:005F   
0054  7E        MOV A,M     (2)  BC:0000  DE:0000  HL:0034  AF:2906  SP:7FF3  PC:0054   
0055  FE 24     CPI 24      (2)  BC:0000  DE:0000  HL:0034  AF:2006  SP:7FF3  PC:0055   
0057  CA 62 00  JZ 0062     (2)  BC:0000  DE:0000  HL:0034  AF:2097  SP:7FF3  PC:0057   
005A  7E        MOV A,M     (2)  BC:0000  DE:0000  HL:0034  AF:2097  SP:7FF3  PC:005A   
005B  CD 67 00  CALL 0067   (2)  BC:0000  DE:0000  HL:0034  AF:2097  SP:7FF3  PC:005B   
005E  23        INX H       (2)  BC:0000  DE:0000  HL:0034  AF:2097  SP:7FF3  PC:005E   
005F  C3 54 00  JMP 0054    (2)  BC:0000  DE:0000  HL:0035  AF:2097  SP:7FF3  PC:005F   
0054  7E        MOV A,M     (2)  BC:0000  DE:0000  HL:0035  AF:2097  SP:7FF3  PC:0054   
0055  FE 24     CPI 24      (2)  BC:0000  DE:0000  HL:0035  AF:3197  SP:7FF3  PC:0055   
0057  CA 62 00  JZ 0062     (2)  BC:0000  DE:0000  HL:0035  AF:3112  SP:7FF3  PC:0057   
005A  7E        MOV A,M     (2)  BC:0000  DE:0000  HL:0035  AF:3112  SP:7FF3  PC:005A   
005B  CD 67 00  CALL 0067   (2)  BC:0000  DE:0000  HL:0035  AF:3112  SP:7FF3  PC:005B   
005E  23        INX H       (2)  BC:0000  DE:0000  HL:0035  AF:3112  SP:7FF3  PC:005E   
005F  C3 54 00  JMP 0054    (2)  BC:0000  DE:0000  HL:0036  AF:3112  SP:7FF3  PC:005F   
0054  7E        MOV A,M     (2)  BC:0000  DE:0000  HL:0036  AF:3112  SP:7FF3  PC:0054   
0055  FE 24     CPI 24      (2)  BC:0000  DE:0000  HL:0036  AF:3912  SP:7FF3  PC:0055   
0057  CA 62 00  JZ 0062     (2)  BC:0000  DE:0000  HL:0036  AF:3902  SP:7FF3  PC:0057   
005A  7E        MOV A,M     (2)  BC:0000  DE:0000  HL:0036  AF:3902  SP:7FF3  PC:005A   
005B  CD 67 00  CALL 0067   (2)  BC:0000  DE:0000  HL:0036  AF:3902  SP:7FF3  PC:005B   
005E  23        INX H       (2)  BC:0000  DE:0000  HL:0036  AF:3902  SP:7FF3  PC:005E   
005F  C3 54 00  JMP 0054    (2)  BC:0000  DE:0000  HL:0037  AF:3902  SP:7FF3  PC:005F   
0054  7E        MOV A,M     (2)  BC:0000  DE:0000  HL:0037  AF:3902  SP:7FF3  PC:0054   
0055  FE 24     CPI 24      (2)  BC:0000  DE:0000  HL:0037  AF:3902  SP:7FF3  PC:0055   
0057  CA 62 00  JZ 0062     (2)  BC:0000  DE:0000  HL:0037  AF:3902  SP:7FF3  PC:0057   
005A  7E        MOV A,M     (2)  BC:0000  DE:0000  HL:0037  AF:3902  SP:7FF3  PC:005A   
005B  CD 67 00  CALL 0067   (2)  BC:0000  DE:0000  HL:0037  AF:3902  SP:7FF3  PC:005B   
005E  23        INX H       (2)  BC:0000  DE:0000  HL:0037  AF:3902  SP:7FF3  PC:005E   
005F  C3 54 00  JMP 0054    (2)  BC:0000  DE:0000  HL:0038  AF:3902  SP:7FF3  PC:005F   
0054  7E        MOV A,M     (2)  BC:0000  DE:0000  HL:0038  AF:3902  SP:7FF3  PC:0054   
0055  FE 24     CPI 24      (2)  BC:0000  DE:0000  HL:0038  AF:3402  SP:7FF3  PC:0055   
0057  CA 62 00  JZ 0062     (2)  BC:0000  DE:0000  HL:0038  AF:3402  SP:7FF3  PC:0057   
005A  7E        MOV A,M     (2)  BC:0000  DE:0000  HL:0038  AF:3402  SP:7FF3  PC:005A   
005B  CD 67 00  CALL 0067   (2)  BC:0000  DE:0000  HL:0038  AF:3402  SP:7FF3  PC:005B   
005E  23        INX H       (2)  BC:0000  DE:0000  HL:0038  AF:3402  SP:7FF3  PC:005E   
005F  C3 54 00  JMP 0054    (2)  BC:0000  DE:0000  HL:0039  AF:3402  SP:7FF3  PC:005F   
0054  7E        MOV A,M     (2)  BC:0000  DE:0000  HL:0039  AF:3402  SP:7FF3  PC:0054   
0055  FE 24     CPI 24      (2)  BC:0000  DE:0000  HL:0039  AF:2002  SP:7FF3  PC:0055   
0057  CA 62 00  JZ 0062     (2)  BC:0000  DE:0000  HL:0039  AF:2097  SP:7FF3  PC:0057   
005A  7E        MOV A,M     (2)  BC:0000  DE:0000  HL:0039  AF:2097  SP:7FF3  PC:005A   
005B  CD 67 00  CALL 0067   (2)  BC:0000  DE:0000  HL:0039  AF:2097  SP:7FF3  PC:005B   
005E  23        INX H       (2)  BC:0000  DE:0000  HL:0039  AF:2097  SP:7FF3  PC:005E   
005F  C3 54 00  JMP 0054    (2)  BC:0000  DE:0000  HL:003A  AF:2097  SP:7FF3  PC:005F   
0054  7E        MOV A,M     (2)  BC:0000  DE:0000  HL:003A  AF:2097  SP:7FF3  PC:0054   
0055  FE 24     CPI 24      (2)  BC:0000  DE:0000  HL:003A  AF:4697  SP:7FF3  PC:0055   
0057  CA 62 00  JZ 0062     (2)  BC:0000  DE:0000  HL:003A  AF:4606  SP:7FF3  PC:0057   
005A  7E        MOV A,M     (2)  BC:0000  DE:0000  HL:003A  AF:4606  SP:7FF3  PC:005A   
005B  CD 67 00  CALL 0067   (2)  BC:0000  DE:0000  HL:003A  AF:4606  SP:7FF3  PC:005B   
005E  23        INX H       (2)  BC:0000  DE:0000  HL:003A  AF:4606  SP:7FF3  PC:005E   
005F  C3 54 00  JMP 0054    (2)  BC:0000  DE:0000  HL:003B  AF:4606  SP:7FF3  PC:005F   
0054  7E        MOV A,M     (2)  BC:0000  DE:0000  HL:003B  AF:4606  SP:7FF3  PC:0054   
0055  FE 24     CPI 24      (2)  BC:0000  DE:0000  HL:003B  AF:5206  SP:7FF3  PC:0055   
0057  CA 62 00  JZ 0062     (2)  BC:0000  DE:0000  HL:003B  AF:5216  SP:7FF3  PC:0057   
005A  7E        MOV A,M     (2)  BC:0000  DE:0000  HL:003B  AF:5216  SP:7FF3  PC:005A   
005B  CD 67 00  CALL 0067   (2)  BC:0000  DE:0000  HL:003B  AF:5216  SP:7FF3  PC:005B   
005E  23        INX H       (2)  BC:0000  DE:0000  HL:003B  AF:5216  SP:7FF3  PC:005E   
005F  C3 54 00  JMP 0054    (2)  BC:0000  DE:0000  HL:003C  AF:5216  SP:7FF3  PC:005F   
0054  7E        MOV A,M     (2)  BC:0000  DE:0000  HL:003C  AF:5216  SP:7FF3  PC:0054   
0055  FE 24     CPI 24      (2)  BC:0000  DE:0000  HL:003C  AF:4116  SP:7FF3  PC:0055   
0057  CA 62 00  JZ 0062     (2)  BC:0000  DE:0000  HL:003C  AF:4116  SP:7FF3  PC:0057   
005A  7E        MOV A,M     (2)  BC:0000  DE:0000  HL:003C  AF:4116  SP:7FF3  PC:005A   
005B  CD 67 00  CALL 0067   (2)  BC:0000  DE:0000  HL:003C  AF:4116  SP:7FF3  PC:005B   
005E  23        INX H       (2)  BC:0000  DE:0000  HL:003C  AF:4116  SP:7FF3  PC:005E   
005F  C3 54 00  JMP 0054    (2)  BC:0000  DE:0000  HL:003D  AF:4116  SP:7FF3  PC:005F   
0054  7E        MOV A,M     (2)  BC:0000  DE:0000  HL:003D  AF:4116  SP:7FF3  PC:0054   
0055  FE 24     CPI 24      (2)  BC:0000  DE:0000  HL:003D  AF:4E16  SP:7FF3  PC:0055   
0057  CA 62 00  JZ 0062     (2)  BC:0000  DE:0000  HL:003D  AF:4E02  SP:7FF3  PC:0057   
005A  7E        MOV A,M     (2)  BC:0000  DE:0000  HL:003D  AF:4E02  SP:7FF3  PC:005A   
005B  CD 67 00  CALL 0067   (2)  BC:0000  DE:0000  HL:003D  AF:4E02  SP:7FF3  PC:005B   
005E  23        INX H       (2)  BC:0000  DE:0000  HL:003D  AF:4E02  SP:7FF3  PC:005E   
005F  C3 54 00  JMP 0054    (2)  BC:0000  DE:0000  HL:003E  AF:4E02  SP:7FF3  PC:005F   
0054  7E        MOV A,M     (2)  BC:0000  DE:0000  HL:003E  AF:4E02  SP:7FF3  PC:0054   
0055  FE 24     CPI 24      (2)  BC:0000  DE:0000  HL:003E  AF:4B02  SP:7FF3  PC:0055   
0057  CA 62 00  JZ 0062     (2)  BC:0000  DE:0000  HL:003E  AF:4B06  SP:7FF3  PC:0057   
005A  7E        MOV A,M     (2)  BC:0000  DE:0000  HL:003E  AF:4B06  SP:7FF3  PC:005A   
005B  CD 67 00  CALL 0067   (2)  BC:0000  DE:0000  HL:003E  AF:4B06  SP:7FF3  PC:005B   
005E  23        INX H       (2)  BC:0000  DE:0000  HL:003E  AF:4B06  SP:7FF3  PC:005E   
005F  C3 54 00  JMP 0054    (2)  BC:0000  DE:0000  HL:003F  AF:4B06  SP:7FF3  PC:005F   
0054  7E        MOV A,M     (2)  BC:0000  DE:0000  HL:003F  AF:4B06  SP:7FF3  PC:0054   
0055  FE 24     CPI 24      (2)  BC:0000  DE:0000  HL:003F  AF:2006  SP:7FF3  PC:0055   
0057  CA 62 00  JZ 0062     (2)  BC:0000  DE:0000  HL:003F  AF:2097  SP:7FF3  PC:0057   
005A  7E        MOV A,M     (2)  BC:0000  DE:0000  HL:003F  AF:2097  SP:7FF3  PC:005A   
005B  CD 67 00  CALL 0067   (2)  BC:0000  DE:0000  HL:003F  AF:2097  SP:7FF3  PC:005B   
005E  23        INX H       (2)  BC:0000  DE:0000  HL:003F  AF:2097  SP:7FF3  PC:005E   
005F  C3 54 00  JMP 0054    (2)  BC:0000  DE:0000  HL:0040  AF:2097  SP:7FF3  PC:005F   
0054  7E        MOV A,M     (2)  BC:0000  DE:0000  HL:0040  AF:2097  SP:7FF3  PC:0054   
0055  FE 24     CPI 24      (2)  BC:0000  DE:0000  HL:0040  AF:4497  SP:7FF3  PC:0055   
0057  CA 62 00  JZ 0062     (2)  BC:0000  DE:0000  HL:0040  AF:4402  SP:7FF3  PC:0057   
005A  7E        MOV A,M     (2)  BC:0000  DE:0000  HL:0040  AF:4402  SP:7FF3  PC:005A   
005B  CD 67 00  CALL 0067   (2)  BC:0000  DE:0000  HL:0040  AF:4402  SP:7FF3  PC:005B   
005E  23        INX H       (2)  BC:0000  DE:0000  HL:0040  AF:4402  SP:7FF3  PC:005E   
005F  C3 54 00  JMP 0054    (2)  BC:0000  DE:0000  HL:0041  AF:4402  SP:7FF3  PC:005F   
0054  7E        MOV A,M     (2)  BC:0000  DE:0000  HL:0041  AF:4402  SP:7FF3  PC:0054   
0055  FE 24     CPI 24      (2)  BC:0000  DE:0000  HL:0041  AF:2E02  SP:7FF3  PC:0055   
0057  CA 62 00  JZ 0062     (2)  BC:0000  DE:0000  HL:0041  AF:2E06  SP:7FF3  PC:0057   
005A  7E        MOV A,M     (2)  BC:0000  DE:0000  HL:0041  AF:2E06  SP:7FF3  PC:005A   
005B  CD 67 00  CALL 0067   (2)  BC:0000  DE:0000  HL:0041  AF:2E06  SP:7FF3  PC:005B   
005E  23        INX H       (2)  BC:0000  DE:0000  HL:0041  AF:2E06  SP:7FF3  PC:005E   
005F  C3 54 00  JMP 0054    (2)  BC:0000  DE:0000  HL:0042  AF:2E06  SP:7FF3  PC:005F   
0054  7E        MOV A,M     (2)  BC:0000  DE:0000  HL:0042  AF:2E06  SP:7FF3  PC:0054   
0055  FE 24     CPI 24      (2)  BC:0000  DE:0000  HL:0042  AF:2006  SP:7FF3  PC:0055   
0057  CA 62 00  JZ 0062     (2)  BC:0000  DE:0000  HL:0042  AF:2097  SP:7FF3  PC:0057   
005A  7E        MOV A,M     (2)  BC:0000  DE:0000  HL:0042  AF:2097  SP:7FF3  PC:005A   
005B  CD 67 00  CALL 0067   (2)  BC:0000  DE:0000  HL:0042  AF:2097  SP:7FF3  PC:005B   
005E  23        INX H       (2)  BC:0000  DE:0000  HL:0042  AF:2097  SP:7FF3  PC:005E   
005F  C3 54 00  JMP 0054    (2)  BC:0000  DE:0000  HL:0043  AF:2097  SP:7FF3  PC:005F   
0054  7E        MOV A,M     (2)  BC:0000  DE:0000  HL:0043  AF:2097  SP:7FF3  PC:0054   
0055  FE 24     CPI 24      (2)  BC:0000  DE:0000  HL:0043  AF:4397  SP:7FF3  PC:0055   
0057  CA 62 00  JZ 0062     (2)  BC:0000  DE:0000  HL:0043  AF:4312  SP:7FF3  PC:0057   
005A  7E        MOV A,M     (2)  BC:0000  DE:0000  HL:0043  AF:4312  SP:7FF3  PC:005A   
005B  CD 67 00  CALL 0067   (2)  BC:0000  DE:0000  HL:0043  AF:4312  SP:7FF3  PC:005B   
005E  23        INX H       (2)  BC:0000  DE:0000  HL:0043  AF:4312  SP:7FF3  PC:005E   
005F  C3 54 00  JMP 0054    (2)  BC:0000  DE:0000  HL:0044  AF:4312  SP:7FF3  PC:005F   
0054  7E        MOV A,M     (2)  BC:0000  DE:0000  HL:0044  AF:4312  SP:7FF3  PC:0054   
0055  FE 24     CPI 24      (2)  BC:0000  DE:0000  HL:0044  AF:5212  SP:7FF3  PC:0055   
0057  CA 62 00  JZ 0062     (2)  BC:0000  DE:0000  HL:0044  AF:5216  SP:7FF3  PC:0057   
005A  7E        MOV A,M     (2)  BC:0000  DE:0000  HL:0044  AF:5216  SP:7FF3  PC:005A   
005B  CD 67 00  CALL 0067   (2)  BC:0000  DE:0000  HL:0044  AF:5216  SP:7FF3  PC:005B   
005E  23        INX H       (2)  BC:0000  DE:0000  HL:0044  AF:5216  SP:7FF3  PC:005E   
005F  C3 54 00  JMP 0054    (2)  BC:0000  DE:0000  HL:0045  AF:5216  SP:7FF3  PC:005F   
0054  7E        MOV A,M     (2)  BC:0000  DE:0000  HL:0045  AF:5216  SP:7FF3  PC:0054   
0055  FE 24     CPI 24      (2)  BC:0000  DE:0000  HL:0045  AF:4916  SP:7FF3  PC:0055   
0057  CA 62 00  JZ 0062     (2)  BC:0000  DE:0000  HL:0045  AF:4902  SP:7FF3  PC:0057   
005A  7E        MOV A,M     (2)  BC:0000  DE:0000  HL:0045  AF:4902  SP:7FF3  PC:005A   
005B  CD 67 00  CALL 0067   (2)  BC:0000  DE:0000  HL:0045  AF:4902  SP:7FF3  PC:005B   
005E  23        INX H       (2)  BC:0000  DE:0000  HL:0045  AF:4902  SP:7FF3  PC:005E   
005F  C3 54 00  JMP 0054    (2)  BC:0000  DE:0000  HL:0046  AF:4902  SP:7FF3  PC:005F   
0054  7E        MOV A,M     (2)  BC:0000  DE:0000  HL:0046  AF:4902  SP:7FF3  PC:0054   
0055  FE 24     CPI 24      (2)  BC:0000  DE:0000  HL:0046  AF:4E02  SP:7FF3  PC:0055   
0057  CA 62 00  JZ 0062     (2)  BC:0000  DE:0000  HL:0046  AF:4E02  SP:7FF3  PC:0057   
005A  7E        MOV A,M     (2)  BC:0000  DE:0000  HL:0046  AF:4E02  SP:7FF3  PC:005A   
005B  CD 67 00  CALL 0067   (2)  BC:0000  DE:0000  HL:0046  AF:4E02  SP:7FF3  PC:005B   
005E  23        INX H       (2)  BC:0000  DE:0000  HL:0046  AF:4E02  SP:7FF3  PC:005E   
005F  C3 54 00  JMP 0054    (2)  BC:0000  DE:0000  HL:0047  AF:4E02  SP:7FF3  PC:005F   
0054  7E        MOV A,M     (2)  BC:0000  DE:0000  HL:0047  AF:4E02  SP:7FF3  PC:0054   
0055  FE 24     CPI 24      (2)  BC:0000  DE:0000  HL:0047  AF:4702  SP:7FF3  PC:0055   
0057  CA 62 00  JZ 0062     (2)  BC:0000  DE:0000  HL:0047  AF:4702  SP:7FF3  PC:0057   
005A  7E        MOV A,M     (2)  BC:0000  DE:0000  HL:0047  AF:4702  SP:7FF3  PC:005A   
005B  CD 67 00  CALL 0067   (2)  BC:0000  DE:0000  HL:0047  AF:4702  SP:7FF3  PC:005B   
005E  23        INX H       (2)  BC:0000  DE:0000  HL:0047  AF:4702  SP:7FF3  PC:005E   
005F  C3 54 00  JMP 0054    (2)  BC:0000  DE:0000  HL:0048  AF:4702  SP:7FF3  PC:005F   
0054  7E        MOV A,M     (2)  BC:0000  DE:0000  HL:0048  AF:4702  SP:7FF3  PC:0054   
0055  FE 24     CPI 24      (2)  BC:0000  DE:0000  HL:0048  AF:4C02  SP:7FF3  PC:0055   
0057  CA 62 00  JZ 0062     (2)  BC:0000  DE:0000  HL:0048  AF:4C06  SP:7FF3  PC:0057   
005A  7E        MOV A,M     (2)  BC:0000  DE:0000  HL:0048  AF:4C06  SP:7FF3  PC:005A   
005B  CD 67 00  CALL 0067   (2)  BC:0000  DE:0000  HL:0048  AF:4C06  SP:7FF3  PC:005B   
005E  23        INX H       (2)  BC:0000  DE:0000  HL:0048  AF:4C06  SP:7FF3  PC:005E   
005F  C3 54 00  JMP 0054    (2)  BC:0000  DE:0000  HL:0049  AF:4C06  SP:7FF3  PC:005F   
0054  7E        MOV A,M     (2)  BC:0000  DE:0000  HL:0049  AF:4C06  SP:7FF3  PC:0054   
0055  FE 24     CPI 24      (2)  BC:0000  DE:0000  HL:0049  AF:4506  SP:7FF3  PC:0055   
0057  CA 62 00  JZ 0062     (2)  BC:0000  DE:0000  HL:0049  AF:4506  SP:7FF3  PC:0057   
005A  7E        MOV A,M     (2)  BC:0000  DE:0000  HL:0049  AF:4506  SP:7FF3  PC:005A   
005B  CD 67 00  CALL 0067   (2)  BC:0000  DE:0000  HL:0049  AF:4506  SP:7FF3  PC:005B   
005E  23        INX H       (2)  BC:0000  DE:0000  HL:0049  AF:4506  SP:7FF3  PC:005E   
005F  C3 54 00  JMP 0054    (2)  BC:0000  DE:0000  HL:004A  AF:4506  SP:7FF3  PC:005F   
0054  7E        MOV A,M     (2)  BC:0000  DE:0000  HL:004A  AF:4506  SP:7FF3  PC:0054   
0055  FE 24     CPI 24      (2)  BC:0000  DE:0000  HL:004A  AF:0D06  SP:7FF3  PC:0055   
0057  CA 62 00  JZ 0062     (2)  BC:0000  DE:0000  HL:004A  AF:0D83  SP:7FF3  PC:0057   
005A  7E        MOV A,M     (2)  BC:0000  DE:0000  HL:004A  AF:0D83  SP:7FF3  PC:005A   
005B  CD 67 00  CALL 0067   (2)  BC:0000  DE:0000  HL:004A  AF:0D83  SP:7FF3  PC:005B   
005E  23        INX H       (2)  BC:0000  DE:0000  HL:004A  AF:0D83  SP:7FF3  PC:005E   
005F  C3 54 00  JMP 0054    (2)  BC:0000  DE:0000  HL:004B  AF:0D83  SP:7FF3  PC:005F   
0054  7E        MOV A,M     (2)  BC:0000  DE:0000  HL:004B  AF:0D83  SP:7FF3  PC:0054   
0055  FE 24     CPI 24      (2)  BC:0000  DE:0000  HL:004B  AF:0A83  SP:7FF3  PC:0055   
0057  CA 62 00  JZ 0062     (2)  BC:0000  DE:0000  HL:004B  AF:0A83  SP:7FF3  PC:0057   
005A  7E        MOV A,M     (2)  BC:0000  DE:0000  HL:004B  AF:0A83  SP:7FF3  PC:005A   
005B  CD 67 00  CALL 0067   (2)  BC:0000  DE:0000  HL:004B  AF:0A83  SP:7FF3  PC:005B   
005E  23        INX H       (2)  BC:0000  DE:0000  HL:004B  AF:0A83  SP:7FF3  PC:005E   
005F  C3 54 00  JMP 0054    (2)  BC:0000  DE:0000  HL:004C  AF:0A83  SP:7FF3  PC:005F   
0054  7E        MOV A,M     (2)  BC:0000  DE:0000  HL:004C  AF:0A83  SP:7FF3  PC:0054   
0055  FE 24     CPI 24      (2)  BC:0000  DE:0000  HL:004C  AF:2483  SP:7FF3  PC:0055   
0057  CA 62 00  JZ 0062     (2)  BC:0000  DE:0000  HL:004C  AF:2446  SP:7FF3  PC:0057   
0062  F1        POP PSW     (2)  BC:0000  DE:0000  HL:004C  AF:2446  SP:7FF3  PC:0062   
0063  E1        POP H       (2)  BC:0000  DE:0000  HL:004C  AF:0056  SP:7FF5  PC:0063   
0064  D1        POP D       (2)  BC:0000  DE:0000  HL:000D  AF:0056  SP:7FF7  PC:0064   
0065  C1        POP B       (2)  BC:0000  DE:0000  HL:000D  AF:0056  SP:7FF9  PC:0065   
0066  C9        RET         (2)  BC:0000  DE:0000  HL:000D  AF:0056  SP:7FFB  PC:0066   
000A  C3 9B 00  JMP 009B    (1)  BC:0000  DE:0000  HL:000D  AF:0056  SP:7FFD  PC:000A   
009B  3E 01     MVI A,01    (1)  BC:0000  DE:0000  HL:000D  AF:0056  SP:7FFD  PC:009B   
009D  FE 02     CPI 02      (1)  BC:0000  DE:0000  HL:000D  AF:0156  SP:7FFD  PC:009D   
009F  CA AF 00  JZ 00AF     (1)  BC:0000  DE:0000  HL:000D  AF:0197  SP:7FFD  PC:009F   
00A2  FE 01     CPI 01      (1)  BC:0000  DE:0000  HL:000D  AF:0197  SP:7FFD  PC:00A2   
00A4  C2 AF 00  JNZ 00AF    (1)  BC:0000  DE:0000  HL:000D  AF:0146  SP:7FFD  PC:00A4   
00A7  C3 B2 00  JMP 00B2    (1)  BC:0000  DE:0000  HL:000D  AF:0146  SP:7FFD  PC:00A7   
00B2  CD B8 00  CALL 00B8   (1)  BC:0000  DE:0000  HL:000D  AF:0146  SP:7FFD  PC:00B2   
00B8  E1        POP H       (2)  BC:0000  DE:0000  HL:000D  AF:0146  SP:7FFB  PC:00B8   
00B9  7C        MOV A,H     (2)  BC:0000  DE:0000  HL:00B5  AF:0146  SP:7FFD  PC:00B9   
00BA  FE 00     CPI 00      (2)  BC:0000  DE:0000  HL:00B5  AF:0046  SP:7FFD  PC:00BA   
00BC  CA C2 00  JZ 00C2     (2)  BC:0000  DE:0000  HL:00B5  AF:0046  SP:7FFD  PC:00BC   
00C2  7D        MOV A,L     (2)  BC:0000  DE:0000  HL:00B5  AF:0046  SP:7FFD  PC:00C2   
00C3  FE B5     CPI B5      (2)  BC:0000  DE:0000  HL:00B5  AF:B546  SP:7FFD  PC:00C3   
00C5  CA CB 00  JZ 00CB     (2)  BC:0000  DE:0000  HL:00B5  AF:B546  SP:7FFD  PC:00C5   
00CB  31 36 03  LXI SP,0336 (2)  BC:0000  DE:0000  HL:00B5  AF:B546  SP:7FFD  PC:00CB   
00CE  F1        POP PSW     (2)  BC:0000  DE:0000  HL:00B5  AF:B546  SP:0336  PC:00CE   
00CF  C1        POP B       (2)  BC:0000  DE:0000  HL:00B5  AF:0402  SP:0338  PC:00CF   
00D0  D1        POP D       (2)  BC:0806  DE:0000  HL:00B5  AF:0402  SP:033A  PC:00D0   
00D1  E1        POP H       (2)  BC:0806  DE:0C0A  HL:00B5  AF:0402  SP:033C  PC:00D1   
00D2  31 46 03  LXI SP,0346 (2)  BC:0806  DE:0C0A  HL:100E  AF:0402  SP:033E  PC:00D2   
00D5  E5        PUSH H      (2)  BC:0806  DE:0C0A  HL:100E  AF:0402  SP:0346  PC:00D5   
00D6  D5        PUSH D      (2)  BC:0806  DE:0C0A  HL:100E  AF:0402  SP:0344  PC:00D6   
00D7  C5        PUSH B      (2)  BC:0806  DE:0C0A  HL:100E  AF:0402  SP:0342  PC:00D7   
00D8  F5        PUSH PSW    (2)  BC:0806  DE:0C0A  HL:100E  AF:0402  SP:0340  PC:00D8   
00D9  3A 3E 03  LDA 033E    (2)  BC:0806  DE:0C0A  HL:100E  AF:0402  SP:033E  PC:00D9   
00DC  FE 02     CPI 02      (2)  BC:0806  DE:0C0A  HL:100E  AF:0202  SP:033E  PC:00DC   
00DE  C2 1C 01  JNZ 011C    (2)  BC:0806  DE:0C0A  HL:100E  AF:0246  SP:033E  PC:00DE   
00E1  3A 3F 03  LDA 033F    (2)  BC:0806  DE:0C0A  HL:100E  AF:0246  SP:033E  PC:00E1   
00E4  FE 04     CPI 04      (2)  BC:0806  DE:0C0A  HL:100E  AF:0446  SP:033E  PC:00E4   
00E6  C2 1C 01  JNZ 011C    (2)  BC:0806  DE:0C0A  HL:100E  AF:0446  SP:033E  PC:00E6   
00E9  3A 40 03  LDA 0340    (2)  BC:0806  DE:0C0A  HL:100E  AF:0446  SP:033E  PC:00E9   
00EC  FE 06     CPI 06      (2)  BC:0806  DE:0C0A  HL:100E  AF:0646  SP:033E  PC:00EC   
00EE  C2 1C 01  JNZ 011C    (2)  BC:0806  DE:0C0A  HL:100E  AF:0646  SP:033E  PC:00EE   
00F1  3A 41 03  LDA 0341    (2)  BC:0806  DE:0C0A  HL:100E  AF:0646  SP:033E  PC:00F1   
00F4  FE 08     CPI 08      (2)  BC:0806  DE:0C0A  HL:100E  AF:0846  SP:033E  PC:00F4   
00F6  C2 1C 01  JNZ 011C    (2)  BC:0806  DE:0C0A  HL:100E  AF:0846  SP:033E  PC:00F6   
00F9  3A 42 03  LDA 0342    (2)  BC:0806  DE:0C0A  HL:100E  AF:0846  SP:033E  PC:00F9   
00FC  FE 0A     CPI 0A      (2)  BC:0806  DE:0C0A  HL:100E  AF:0A46  SP:033E  PC:00FC   
00FE  C2 1C 01  JNZ 011C    (2)  BC:0806  DE:0C0A  HL:100E  AF:0A46  SP:033E  PC:00FE   
0101  3A 43 03  LDA 0343    (2)  BC:0806  DE:0C0A  HL:100E  AF:0A46  SP:033E  PC:0101   
0104  FE 0C     CPI 0C      (2)  BC:0806  DE:0C0A  HL:100E  AF:0C46  SP:033E  PC:0104   
0106  C2 1C 01  JNZ 011C    (2)  BC:0806  DE:0C0A  HL:100E  AF:0C46  SP:033E  PC:0106   
0109  3A 44 03  LDA 0344    (2)  BC:0806  DE:0C0A  HL:100E  AF:0C46  SP:033E  PC:0109   
010C  FE 0E     CPI 0E      (2)  BC:0806  DE:0C0A  HL:100E  AF:0E46  SP:033E  PC:010C   
010E  C2 1C 01  JNZ 011C    (2)  BC:0806  DE:0C0A  HL:100E  AF:0E46  SP:033E  PC:010E   
0111  3A 45 03  LDA 0345    (2)  BC:0806  DE:0C0A  HL:100E  AF:0E46  SP:033E  PC:0111   
0114  FE 10     CPI 10      (2)  BC:0806  DE:0C0A  HL:100E  AF:1046  SP:033E  PC:0114   
0116  C2 1C 01  JNZ 011C    (2)  BC:0806  DE:0C0A  HL:100E  AF:1046  SP:033E  PC:0116   
0119  C3 1F 01  JMP 011F    (2)  BC:0806  DE:0C0A  HL:100E  AF:1046  SP:033E  PC:0119   
011F  21 46 03  LXI H,0346  (2)  BC:0806  DE:0C0A  HL:100E  AF:1046  SP:033E  PC:011F   
0122  7E        MOV A,M     (2)  BC:0806  DE:0C0A  HL:0346  AF:1046  SP:033E  PC:0122   
0123  FE A5     CPI A5      (2)  BC:0806  DE:0C0A  HL:0346  AF:A546  SP:033E  PC:0123   
0125  C2 34 01  JNZ 0134    (2)  BC:0806  DE:0C0A  HL:0346  AF:A546  SP:033E  PC:0125   
0128  21 47 03  LXI H,0347  (2)  BC:0806  DE:0C0A  HL:0346  AF:A546  SP:033E  PC:0128   
012B  7E        MOV A,M     (2)  BC:0806  DE:0C0A  HL:0347  AF:A546  SP:033E  PC:012B   
012C  FE 3C     CPI 3C      (2)  BC:0806  DE:0C0A  HL:0347  AF:3C46  SP:033E  PC:012C   
012E  C2 34 01  JNZ 0134    (2)  BC:0806  DE:0C0A  HL:0347  AF:3C46  SP:033E  PC:012E   
0131  C3 37 01  JMP 0137    (2)  BC:0806  DE:0C0A  HL:0347  AF:3C46  SP:033E  PC:0131   
0137  31 74 04  LXI SP,0474 (2)  BC:0806  DE:0C0A  HL:0347  AF:3C46  SP:033E  PC:0137   
013A  21 42 01  LXI H,0142  (2)  BC:0806  DE:0C0A  HL:0347  AF:3C46  SP:0474  PC:013A   
013D  E5        PUSH H      (2)  BC:0806  DE:0C0A  HL:0142  AF:3C46  SP:0474  PC:013D   
013E  C9        RET         (2)  BC:0806  DE:0C0A  HL:0142  AF:3C46  SP:0472  PC:013E   
0142  3E FF     MVI A,FF    (1)  BC:0806  DE:0C0A  HL:0142  AF:3C46  SP:0474  PC:0142   
0144  E6 0F     ANI 0F      (1)  BC:0806  DE:0C0A  HL:0142  AF:FF46  SP:0474  PC:0144   
0146  FE 0F     CPI 0F      (1)  BC:0806  DE:0C0A  HL:0142  AF:0F16  SP:0474  PC:0146   
0148  C2 80 01  JNZ 0180    (1)  BC:0806  DE:0C0A  HL:0142  AF:0F46  SP:0474  PC:0148   
014B  3E 5A     MVI A,5A    (1)  BC:0806  DE:0C0A  HL:0142  AF:0F46  SP:0474  PC:014B   
014D  E6 0F     ANI 0F      (1)  BC:0806  DE:0C0A  HL:0142  AF:5A46  SP:0474  PC:014D   
014F  FE 0A     CPI 0A      (1)  BC:0806  DE:0C0A  HL:0142  AF:0A16  SP:0474  PC:014F   
0151  C2 80 01  JNZ 0180    (1)  BC:0806  DE:0C0A  HL:0142  AF:0A46  SP:0474  PC:0151   
0154  0F        RRC         (1)  BC:0806  DE:0C0A  HL:0142  AF:0A46  SP:0474  PC:0154   
0155  FE 05     CPI 05      (1)  BC:0806  DE:0C0A  HL:0142  AF:0546  SP:0474  PC:0155   
0157  C2 80 01  JNZ 0180    (1)  BC:0806  DE:0C0A  HL:0142  AF:0546  SP:0474  PC:0157   
015A  0F        RRC         (1)  BC:0806  DE:0C0A  HL:0142  AF:0546  SP:0474  PC:015A   
015B  FE 82     CPI 82      (1)  BC:0806  DE:0C0A  HL:0142  AF:8247  SP:0474  PC:015B   
015D  C2 80 01  JNZ 0180    (1)  BC:0806  DE:0C0A  HL:0142  AF:8246  SP:0474  PC:015D   
0160  0F        RRC         (1)  BC:0806  DE:0C0A  HL:0142  AF:8246  SP:0474  PC:0160   
0161  FE 41     CPI 41      (1)  BC:0806  DE:0C0A  HL:0142  AF:4146  SP:0474  PC:0161   
0163  C2 80 01  JNZ 0180    (1)  BC:0806  DE:0C0A  HL:0142  AF:4146  SP:0474  PC:0163   
0166  0F        RRC         (1)  BC:0806  DE:0C0A  HL:0142  AF:4146  SP:0474  PC:0166   
0167  FE A0     CPI A0      (1)  BC:0806  DE:0C0A  HL:0142  AF:A047  SP:0474  PC:0167   
0169  C2 80 01  JNZ 0180    (1)  BC:0806  DE:0C0A  HL:0142  AF:A046  SP:0474  PC:0169   
016C  21 34 12  LXI H,1234  (1)  BC:0806  DE:0C0A  HL:0142  AF:A046  SP:0474  PC:016C   
016F  E5        PUSH H      (1)  BC:0806  DE:0C0A  HL:1234  AF:A046  SP:0474  PC:016F   
0170  C1        POP B       (1)  BC:0806  DE:0C0A  HL:1234  AF:A046  SP:0472  PC:0170   
0171  78        MOV A,B     (1)  BC:1234  DE:0C0A  HL:1234  AF:A046  SP:0474  PC:0171   
0172  FE 12     CPI 12      (1)  BC:1234  DE:0C0A  HL:1234  AF:1246  SP:0474  PC:0172   
0174  C2 80 01  JNZ 0180    (1)  BC:1234  DE:0C0A  HL:1234  AF:1246  SP:0474  PC:0174   
0177  79        MOV A,C     (1)  BC:1234  DE:0C0A  HL:1234  AF:1246  SP:0474  PC:0177   
0178  FE 34     CPI 34      (1)  BC:1234  DE:0C0A  HL:1234  AF:3446  SP:0474  PC:0178   
017A  C2 80 01  JNZ 0180    (1)  BC:1234  DE:0C0A  HL:1234  AF:3446  SP:0474  PC:017A   
017D  C3 83 01  JMP 0183    (1)  BC:1234  DE:0C0A  HL:1234  AF:3446  SP:0474  PC:017D   
0183  21 01 00  LXI H,0001  (1)  BC:1234  DE:0C0A  HL:1234  AF:3446  SP:0474  PC:0183   
0186  E5        PUSH H      (1)  BC:1234  DE:0C0A  HL:0001  AF:3446  SP:0474  PC:0186   
0187  F1        POP PSW     (1)  BC:1234  DE:0C0A  HL:0001  AF:3446  SP:0472  PC:0187   
0188  DC 8E 01  CC 018E     (1)  BC:1234  DE:0C0A  HL:0001  AF:0003  SP:0474  PC:0188   
018E  E1        POP H       (2)  BC:1234  DE:0C0A  HL:0001  AF:0003  SP:0472  PC:018E   
018F  21 D6 00  LXI H,00D6  (2)  BC:1234  DE:0C0A  HL:018B  AF:0003  SP:0474  PC:018F   
0192  E5        PUSH H      (2)  BC:1234  DE:0C0A  HL:00D6  AF:0003  SP:0474  PC:0192   
0193  F1        POP PSW     (2)  BC:1234  DE:0C0A  HL:00D6  AF:0003  SP:0472  PC:0193   
0194  D4 9A 01  CNC 019A    (2)  BC:1234  DE:0C0A  HL:00D6  AF:00D6  SP:0474  PC:0194   
01A8  21 B5 01  LXI H,01B5  (2)  BC:1234  DE:0C0A  HL:0001  AF:0003  SP:0474  PC:01A8   
01AB  E5        PUSH H      (2)  BC:1234  DE:0C0A  HL:01B5  AF:0003  SP:0474  PC:01AB   
01AC  21 D6 00  LXI H,00D6  (2)  BC:1234  DE:0C0A  HL:01B5  AF:0003  SP:0472  PC:01AC   
01AF  E5        PUSH H      (2)  BC:1234  DE:0C0A  HL:00D6  AF:0003  SP:0472  PC:01AF   
01B0  F1        POP PSW     (2)  BC:1234  DE:0C0A  HL:00D6  AF:0003  SP:0470  PC:01B0   
01B1  D0        RNC         (2)  BC:1234  DE:0C0A  HL:00D6  AF:00D6  SP:0472  PC:01B1   
01B5  21 01 00  LXI H,0001  (1)  BC:1234  DE:0C0A  HL:00D6  AF:00D6  SP:0474  PC:01B5   
01B8  E5        PUSH H      (1)  BC:1234  DE:0C0A  HL:0001  AF:00D6  SP:0474  PC:01B8   
01B9  F1        POP PSW     (1)  BC:1234  DE:0C0A  HL:0001  AF:00D6  SP:0472  PC:01B9   
01BA  DA C0 01  JC 01C0     (1)  BC:1234  DE:0C0A  HL:0001  AF:0003  SP:0474  PC:01BA   
01C0  21 D6 00  LXI H,00D6  (1)  BC:1234  DE:0C0A  HL:0001  AF:0003  SP:0474  PC:01C0   
01C3  E5        PUSH H      (1)  BC:1234  DE:0C0A  HL:00D6  AF:0003  SP:0474  PC:01C3   
01C4  F1        POP PSW     (1)  BC:1234  DE:0C0A  HL:00D6  AF:0003  SP:0472  PC:01C4   
01C5  D2 CB 01  JNC 01CB    (1)  BC:1234  DE:0C0A  HL:00D6  AF:00D6  SP:0474  PC:01C5   
01CB  21 04 00  LXI H,0004  (1)  BC:1234  DE:0C0A  HL:00D6  AF:00D6  SP:0474  PC:01CB   
01CE  E5        PUSH H      (1)  BC:1234  DE:0C0A  HL:0004  AF:00D6  SP:0474  PC:01CE   
01CF  F1        POP PSW     (1)  BC:1234  DE:0C0A  HL:0004  AF:00D6  SP:0472  PC:01CF   
01D0  EC D6 01  CPE 01D6    (1)  BC:1234  DE:0C0A  HL:0004  AF:0006  SP:0474  PC:01D0   
01D6  E1        POP H       (2)  BC:1234  DE:0C0A  HL:0004  AF:0006  SP:0472  PC:01D6   
01D7  21 D3 00  LXI H,00D3  (2)  BC:1234  DE:0C0A  HL:01D3  AF:0006  SP:0474  PC:01D7   
01DA  E5        PUSH H      (2)  BC:1234  DE:0C0A  HL:00D3  AF:0006  SP:0474  PC:01DA   
01DB  F1        POP PSW     (2)  BC:1234  DE:0C0A  HL:00D3  AF:0006  SP:0472  PC:01DB   
01DC  E4 E2 01  CPO 01E2    (2)  BC:1234  DE:0C0A  HL:00D3  AF:00D3  SP:0474  PC:01DC   
01F0  21 FD 01  LXI H,01FD  (2)  BC:1234  DE:0C0A  HL:0004  AF:0006  SP:0474  PC:01F0   
01F3  E5        PUSH H      (2)  BC:1234  DE:0C0A  HL:01FD  AF:0006  SP:0474  PC:01F3   
01F4  21 D3 00  LXI H,00D3  (2)  BC:1234  DE:0C0A  HL:01FD  AF:0006  SP:0472  PC:01F4   
01F7  E5        PUSH H      (2)  BC:1234  DE:0C0A  HL:00D3  AF:0006  SP:0472  PC:01F7   
01F8  F1        POP PSW     (2)  BC:1234  DE:0C0A  HL:00D3  AF:0006  SP:0470  PC:01F8   
01F9  E0        RPO         (2)  BC:1234  DE:0C0A  HL:00D3  AF:00D3  SP:0472  PC:01F9   
01FD  21 04 00  LXI H,0004  (1)  BC:1234  DE:0C0A  HL:00D3  AF:00D3  SP:0474  PC:01FD   
0200  E5        PUSH H      (1)  BC:1234  DE:0C0A  HL:0004  AF:00D3  SP:0474  PC:0200   
0201  F1        POP PSW     (1)  BC:1234  DE:0C0A  HL:0004  AF:00D3  SP:0472  PC:0201   
0202  EA 08 02  JPE 0208    (1)  BC:1234  DE:0C0A  HL:0004  AF:0006  SP:0474  PC:0202   
0208  21 D3 00  LXI H,00D3  (1)  BC:1234  DE:0C0A  HL:0004  AF:0006  SP:0474  PC:0208   
020B  E5        PUSH H      (1)  BC:1234  DE:0C0A  HL:00D3  AF:0006  SP:0474  PC:020B   
020C  F1        POP PSW     (1)  BC:1234  DE:0C0A  HL:00D3  AF:0006  SP:0472  PC:020C   
020D  E2 13 02  JPO 0213    (1)  BC:1234  DE:0C0A  HL:00D3  AF:00D3  SP:0474  PC:020D   
0213  21 40 00  LXI H,0040  (1)  BC:1234  DE:0C0A  HL:00D3  AF:00D3  SP:0474  PC:0213   
0216  E5        PUSH H      (1)  BC:1234  DE:0C0A  HL:0040  AF:00D3  SP:0474  PC:0216   
0217  F1        POP PSW     (1)  BC:1234  DE:0C0A  HL:0040  AF:00D3  SP:0472  PC:0217   
0218  CC 1E 02  CZ 021E     (1)  BC:1234  DE:0C0A  HL:0040  AF:0042  SP:0474  PC:0218   
021E  E1        POP H       (2)  BC:1234  DE:0C0A  HL:0040  AF:0042  SP:0472  PC:021E   
021F  21 97 00  LXI H,0097  (2)  BC:1234  DE:0C0A  HL:021B  AF:0042  SP:0474  PC:021F   
0222  E5        PUSH H      (2)  BC:1234  DE:0C0A  HL:0097  AF:0042  SP:0474  PC:0222   
0223  F1        POP PSW     (2)  BC:1234  DE:0C0A  HL:0097  AF:0042  SP:0472  PC:0223   
0224  C4 2A 02  CNZ 022A    (2)  BC:1234  DE:0C0A  HL:0097  AF:0097  SP:0474  PC:0224   
0238  21 45 02  LXI H,0245  (2)  BC:1234  DE:0C0A  HL:0040  AF:0042  SP:0474  PC:0238   
023B  E5        PUSH H      (2)  BC:1234  DE:0C0A  HL:0245  AF:0042  SP:0474  PC:023B   
023C  21 97 00  LXI H,0097  (2)  BC:1234  DE:0C0A  HL:0245  AF:0042  SP:0472  PC:023C   
023F  E5        PUSH H      (2)  BC:1234  DE:0C0A  HL:0097  AF:0042  SP:0472  PC:023F   
0240  F1        POP PSW     (2)  BC:1234  DE:0C0A  HL:0097  AF:0042  SP:0470  PC:0240   
0241  C0        RNZ         (2)  BC:1234  DE:0C0A  HL:0097  AF:0097  SP:0472  PC:0241   
0245  21 40 00  LXI H,0040  (1)  BC:1234  DE:0C0A  HL:0097  AF:0097  SP:0474  PC:0245   
0248  E5        PUSH H      (1)  BC:1234  DE:0C0A  HL:0040  AF:0097  SP:0474  PC:0248   
0249  F1        POP PSW     (1)  BC:1234  DE:0C0A  HL:0040  AF:0097  SP:0472  PC:0249   
024A  CA 50 02  JZ 0250     (1)  BC:1234  DE:0C0A  HL:0040  AF:0042  SP:0474  PC:024A   
0250  21 97 00  LXI H,0097  (1)  BC:1234  DE:0C0A  HL:0040  AF:0042  SP:0474  PC:0250   
0253  E5        PUSH H      (1)  BC:1234  DE:0C0A  HL:0097  AF:0042  SP:0474  PC:0253   
0254  F1        POP PSW     (1)  BC:1234  DE:0C0A  HL:0097  AF:0042  SP:0472  PC:0254   
0255  C2 5B 02  JNZ 025B    (1)  BC:1234  DE:0C0A  HL:0097  AF:0097  SP:0474  PC:0255   
025B  21 80 00  LXI H,0080  (1)  BC:1234  DE:0C0A  HL:0097  AF:0097  SP:0474  PC:025B   
025E  E5        PUSH H      (1)  BC:1234  DE:0C0A  HL:0080  AF:0097  SP:0474  PC:025E   
025F  F1        POP PSW     (1)  BC:1234  DE:0C0A  HL:0080  AF:0097  SP:0472  PC:025F   
0260  FC 66 02  CM 0266     (1)  BC:1234  DE:0C0A  HL:0080  AF:0082  SP:0474  PC:0260   
0266  E1        POP H       (2)  BC:1234  DE:0C0A  HL:0080  AF:0082  SP:0472  PC:0266   
0267  21 57 00  LXI H,0057  (2)  BC:1234  DE:0C0A  HL:0263  AF:0082  SP:0474  PC:0267   
026A  E5        PUSH H      (2)  BC:1234  DE:0C0A  HL:0057  AF:0082  SP:0474  PC:026A   
026B  F1        POP PSW     (2)  BC:1234  DE:0C0A  HL:0057  AF:0082  SP:0472  PC:026B   
026C  F4 72 02  CP 0272     (2)  BC:1234  DE:0C0A  HL:0057  AF:0057  SP:0474  PC:026C   
0280  21 8D 02  LXI H,028D  (2)  BC:1234  DE:0C0A  HL:0080  AF:0082  SP:0474  PC:0280   
0283  E5        PUSH H      (2)  BC:1234  DE:0C0A  HL:028D  AF:0082  SP:0474  PC:0283   
0284  21 57 00  LXI H,0057  (2)  BC:1234  DE:0C0A  HL:028D  AF:0082  SP:0472  PC:0284   
0287  E5        PUSH H      (2)  BC:1234  DE:0C0A  HL:0057  AF:0082  SP:0472  PC:0287   
0288  F1        POP PSW     (2)  BC:1234  DE:0C0A  HL:0057  AF:0082  SP:0470  PC:0288   
0289  F0        RP          (2)  BC:1234  DE:0C0A  HL:0057  AF:0057  SP:0472  PC:0289   
028D  21 80 00  LXI H,0080  (1)  BC:1234  DE:0C0A  HL:0057  AF:0057  SP:0474  PC:028D   
0290  E5        PUSH H      (1)  BC:1234  DE:0C0A  HL:0080  AF:0057  SP:0474  PC:0290   
0291  F1        POP PSW     (1)  BC:1234  DE:0C0A  HL:0080  AF:0057  SP:0472  PC:0291   
0292  FA 98 02  JM 0298     (1)  BC:1234  DE:0C0A  HL:0080  AF:0082  SP:0474  PC:0292   
0298  21 57 00  LXI H,0057  (1)  BC:1234  DE:0C0A  HL:0080  AF:0082  SP:0474  PC:0298   
029B  E5        PUSH H      (1)  BC:1234  DE:0C0A  HL:0057  AF:0082  SP:0474  PC:029B   
029C  F1        POP PSW     (1)  BC:1234  DE:0C0A  HL:0057  AF:0082  SP:0472  PC:029C   
029D  F2 A3 02  JP 02A3     (1)  BC:1234  DE:0C0A  HL:0057  AF:0057  SP:0474  PC:029D   
02A3  21 AA 02  LXI H,02AA  (1)  BC:1234  DE:0C0A  HL:0057  AF:0057  SP:0474  PC:02A3   
02A6  E9        PCHL        (1)  BC:1234  DE:0C0A  HL:02AA  AF:0057  SP:0474  PC:02A6   
02AA  3E A5     MVI A,A5    (1)  BC:1234  DE:0C0A  HL:02AA  AF:0057  SP:0474  PC:02AA   
02AC  06 04     MVI B,04    (1)  BC:1234  DE:0C0A  HL:02AA  AF:A557  SP:0474  PC:02AC   
02AE  0F        RRC         (1)  BC:0434  DE:0C0A  HL:02AA  AF:A557  SP:0474  PC:02AE   
02AF  05        DCR B       (1)  BC:0434  DE:0C0A  HL:02AA  AF:D247  SP:0474  PC:02AF   
02B0  C2 AE 02  JNZ 02AE    (1)  BC:0334  DE:0C0A  HL:02AA  AF:D217  SP:0474  PC:02B0   
02AE  0F        RRC         (1)  BC:0334  DE:0C0A  HL:02AA  AF:D217  SP:0474  PC:02AE   
02AF  05        DCR B       (1)  BC:0334  DE:0C0A  HL:02AA  AF:6906  SP:0474  PC:02AF   
02B0  C2 AE 02  JNZ 02AE    (1)  BC:0234  DE:0C0A  HL:02AA  AF:6912  SP:0474  PC:02B0   
02AE  0F        RRC         (1)  BC:0234  DE:0C0A  HL:02AA  AF:6912  SP:0474  PC:02AE   
02AF  05        DCR B       (1)  BC:0234  DE:0C0A  HL:02AA  AF:B403  SP:0474  PC:02AF   
02B0  C2 AE 02  JNZ 02AE    (1)  BC:0134  DE:0C0A  HL:02AA  AF:B413  SP:0474  PC:02B0   
02AE  0F        RRC         (1)  BC:0134  DE:0C0A  HL:02AA  AF:B413  SP:0474  PC:02AE   
02AF  05        DCR B       (1)  BC:0134  DE:0C0A  HL:02AA  AF:5A02  SP:0474  PC:02AF   
02B0  C2 AE 02  JNZ 02AE    (1)  BC:0034  DE:0C0A  HL:02AA  AF:5A56  SP:0474  PC:02B0   
02B3  FE 5A     CPI 5A      (1)  BC:0034  DE:0C0A  HL:02AA  AF:5A56  SP:0474  PC:02B3   
02B5  C4 15 03  CNZ 0315    (1)  BC:0034  DE:0C0A  HL:02AA  AF:5A46  SP:0474  PC:02B5   
02B8  06 10     MVI B,10    (1)  BC:0034  DE:0C0A  HL:02AA  AF:5A46  SP:0474  PC:02B8   
02BA  3C        INR A       (1)  BC:1034  DE:0C0A  HL:02AA  AF:5A46  SP:0474  PC:02BA   
02BB  05        DCR B       (1)  BC:1034  DE:0C0A  HL:02AA  AF:5B02  SP:0474  PC:02BB   
02BC  C2 BA 02  JNZ 02BA    (1)  BC:0F34  DE:0C0A  HL:02AA  AF:5B06  SP:0474  PC:02BC   
02BA  3C        INR A       (1)  BC:0F34  DE:0C0A  HL:02AA  AF:5B06  SP:0474  PC:02BA   
02BB  05        DCR B       (1)  BC:0F34  DE:0C0A  HL:02AA  AF:5C06  SP:0474  PC:02BB   
02BC  C2 BA 02  JNZ 02BA    (1)  BC:0E34  DE:0C0A  HL:02AA  AF:5C12  SP:0474  PC:02BC   
02BA  3C        INR A       (1)  BC:0E34  DE:0C0A  HL:02AA  AF:5C12  SP:0474  PC:02BA   
02BB  05        DCR B       (1)  BC:0E34  DE:0C0A  HL:02AA  AF:5D02  SP:0474  PC:02BB   
02BC  C2 BA 02  JNZ 02BA    (1)  BC:0D34  DE:0C0A  HL:02AA  AF:5D12  SP:0474  PC:02BC   
02BA  3C        INR A       (1)  BC:0D34  DE:0C0A  HL:02AA  AF:5D12  SP:0474  PC:02BA   
02BB  05        DCR B       (1)  BC:0D34  DE:0C0A  HL:02AA  AF:5E02  SP:0474  PC:02BB   
02BC  C2 BA 02  JNZ 02BA    (1)  BC:0C34  DE:0C0A  HL:02AA  AF:5E16  SP:0474  PC:02BC   
02BA  3C        INR A       (1)  BC:0C34  DE:0C0A  HL:02AA  AF:5E16  SP:0474  PC:02BA   
02BB  05        DCR B       (1)  BC:0C34  DE:0C0A  HL:02AA  AF:5F06  SP:0474  PC:02BB   
02BC  C2 BA 02  JNZ 02BA    (1)  BC:0B34  DE:0C0A  HL:02AA  AF:5F12  SP:0474  PC:02BC   
02BA  3C        INR A       (1)  BC:0B34  DE:0C0A  HL:02AA  AF:5F12  SP:0474  PC:02BA   
02BB  05        DCR B       (1)  BC:0B34  DE:0C0A  HL:02AA  AF:6016  SP:0474  PC:02BB   
02BC  C2 BA 02  JNZ 02BA    (1)  BC:0A34  DE:0C0A  HL:02AA  AF:6016  SP:0474  PC:02BC   
02BA  3C        INR A       (1)  BC:0A34  DE:0C0A  HL:02AA  AF:6016  SP:0474  PC:02BA   
02BB  05        DCR B       (1)  BC:0A34  DE:0C0A  HL:02AA  AF:6102  SP:0474  PC:02BB   
02BC  C2 BA 02  JNZ 02BA    (1)  BC:0934  DE:0C0A  HL:02AA  AF:6116  SP:0474  PC:02BC   
02BA  3C        INR A       (1)  BC:0934  DE:0C0A  HL:02AA  AF:6116  SP:0474  PC:02BA   
02BB  05        DCR B       (1)  BC:0934  DE:0C0A  HL:02AA  AF:6202  SP:0474  PC:02BB   
02BC  C2 BA 02  JNZ 02BA    (1)  BC:0834  DE:0C0A  HL:02AA  AF:6212  SP:0474  PC:02BC   
02BA  3C        INR A       (1)  BC:0834  DE:0C0A  HL:02AA  AF:6212  SP:0474  PC:02BA   
02BB  05        DCR B       (1)  BC:0834  DE:0C0A  HL:02AA  AF:6306  SP:0474  PC:02BB   
02BC  C2 BA 02  JNZ 02BA    (1)  BC:0734  DE:0C0A  HL:02AA  AF:6312  SP:0474  PC:02BC   
02BA  3C        INR A       (1)  BC:0734  DE:0C0A  HL:02AA  AF:6312  SP:0474  PC:02BA   
02BB  05        DCR B       (1)  BC:0734  DE:0C0A  HL:02AA  AF:6402  SP:0474  PC:02BB   
02BC  C2 BA 02  JNZ 02BA    (1)  BC:0634  DE:0C0A  HL:02AA  AF:6416  SP:0474  PC:02BC   
02BA  3C        INR A       (1)  BC:0634  DE:0C0A  HL:02AA  AF:6416  SP:0474  PC:02BA   
02BB  05        DCR B       (1)  BC:0634  DE:0C0A  HL:02AA  AF:6506  SP:0474  PC:02BB   
02BC  C2 BA 02  JNZ 02BA    (1)  BC:0534  DE:0C0A  HL:02AA  AF:6516  SP:0474  PC:02BC   
02BA  3C        INR A       (1)  BC:0534  DE:0C0A  HL:02AA  AF:6516  SP:0474  PC:02BA   
02BB  05        DCR B       (1)  BC:0534  DE:0C0A  HL:02AA  AF:6606  SP:0474  PC:02BB   
02BC  C2 BA 02  JNZ 02BA    (1)  BC:0434  DE:0C0A  HL:02AA  AF:6612  SP:0474  PC:02BC   
02BA  3C        INR A       (1)  BC:0434  DE:0C0A  HL:02AA  AF:6612  SP:0474  PC:02BA   
02BB  05        DCR B       (1)  BC:0434  DE:0C0A  HL:02AA  AF:6702  SP:0474  PC:02BB   
02BC  C2 BA 02  JNZ 02BA    (1)  BC:0334  DE:0C0A  HL:02AA  AF:6716  SP:0474  PC:02BC   
02BA  3C        INR A       (1)  BC:0334  DE:0C0A  HL:02AA  AF:6716  SP:0474  PC:02BA   
02BB  05        DCR B       (1)  BC:0334  DE:0C0A  HL:02AA  AF:6802  SP:0474  PC:02BB   
02BC  C2 BA 02  JNZ 02BA    (1)  BC:0234  DE:0C0A  HL:02AA  AF:6812  SP:0474  PC:02BC   
02BA  3C        INR A       (1)  BC:0234  DE:0C0A  HL:02AA  AF:6812  SP:0474  PC:02BA   
02BB  05        DCR B       (1)  BC:0234  DE:0C0A  HL:02AA  AF:6906  SP:0474  PC:02BB   
02BC  C2 BA 02  JNZ 02BA    (1)  BC:0134  DE:0C0A  HL:02AA  AF:6912  SP:0474  PC:02BC   
02BA  3C        INR A       (1)  BC:0134  DE:0C0A  HL:02AA  AF:6912  SP:0474  PC:02BA   
02BB  05        DCR B       (1)  BC:0134  DE:0C0A  HL:02AA  AF:6A06  SP:0474  PC:02BB   
02BC  C2 BA 02  JNZ 02BA    (1)  BC:0034  DE:0C0A  HL:02AA  AF:6A56  SP:0474  PC:02BC   
02BF  FE 6A     CPI 6A      (1)  BC:0034  DE:0C0A  HL:02AA  AF:6A56  SP:0474  PC:02BF   
02C1  C4 15 03  CNZ 0315    (1)  BC:0034  DE:0C0A  HL:02AA  AF:6A46  SP:0474  PC:02C1   
02C4  06 00     MVI B,00    (1)  BC:0034  DE:0C0A  HL:02AA  AF:6A46  SP:0474  PC:02C4   
02C6  21 00 00  LXI H,0000  (1)  BC:0034  DE:0C0A  HL:02AA  AF:6A46  SP:0474  PC:02C6   
02C9  23        INX H       (1)  BC:0034  DE:0C0A  HL:0000  AF:6A46  SP:0474  PC:02C9   
02CA  05        DCR B       (1)  BC:0034  DE:0C0A  HL:0001  AF:6A46  SP:0474  PC:02CA   
02CB  C2 C9 02  JNZ 02C9    (1)  BC:FF34  DE:0C0A  HL:0001  AF:6A86  SP:0474  PC:02CB   
02C9  23        INX H       (1)  BC:FF34  DE:0C0A  HL:0001  AF:6A86  SP:0474  PC:02C9   
02CA  05        DCR B       (1)  BC:FF34  DE:0C0A  HL:0002  AF:6A86  SP:0474  PC:02CA   
02CB  C2 C9 02  JNZ 02C9    (1)  BC:FE34  DE:0C0A  HL:0002  AF:6A92  SP:0474  PC:02CB   
02C9  23        INX H       (1)  BC:FE34  DE:0C0A  HL:0002  AF:6A92  SP:0474  PC:02C9   
02CA  05        DCR B       (1)  BC:FE34  DE:0C0A  HL:0003  AF:6A92  SP:0474  PC:02CA   
02CB  C2 C9 02  JNZ 02C9    (1)  BC:FD34  DE:0C0A  HL:0003  AF:6A92  SP:0474  PC:02CB   
02C9  23        INX H       (1)  BC:FD34  DE:0C0A  HL:0003  AF:6A92  SP:0474  PC:02C9   
02CA  05        DCR B       (1)  BC:FD34  DE:0C0A  HL:0004  AF:6A92  SP:0474  PC:02CA   
02CB  C2 C9 02  JNZ 02C9    (1)  BC:FC34  DE:0C0A  HL:0004  AF:6A96  SP:0474  PC:02CB   
02C9  23        INX H       (1)  BC:FC34  DE:0C0A  HL:0004  AF:6A96  SP:0474  PC:02C9   
02CA  05        DCR B       (1)  BC:FC34  DE:0C0A  HL:0005  AF:6A96  SP:0474  PC:02CA   
02CB  C2 C9 02  JNZ 02C9    (1)  BC:FB34  DE:0C0A  HL:0005  AF:6A92  SP:0474  PC:02CB   
02C9  23        INX H       (1)  BC:FB34  DE:0C0A  HL:0005  AF:6A92  SP:0474  PC:02C9   
02CA  05        DCR B       (1)  BC:FB34  DE:0C0A  HL:0006  AF:6A92  SP:0474  PC:02CA   
02CB  C2 C9 02  JNZ 02C9    (1)  BC:FA34  DE:0C0A  HL:0006  AF:6A96  SP:0474  PC:02CB   
02C9  23        INX H       (1)  BC:FA34  DE:0C0A  HL:0006  AF:6A96  SP:0474  PC:02C9   
02CA  05        DCR B       (1)  BC:FA34  DE:0C0A  HL:0007  AF:6A96  SP:0474  PC:02CA   
02CB  C2 C9 02  JNZ 02C9    (1)  BC:F934  DE:0C0A  HL:0007  AF:6A96  SP:0474  PC:02CB   
02C9  23        INX H       (1)  BC:F934  DE:0C0A  HL:0007  AF:6A96  SP:0474  PC:02C9   
02CA  05        DCR B       (1)  BC:F934  DE:0C0A  HL:0008  AF:6A96  SP:0474  PC:02CA   
02CB  C2 C9 02  JNZ 02C9    (1)  BC:F834  DE:0C0A  HL:0008  AF:6A92  SP:0474  PC:02CB   
02C9  23        INX H       (1)  BC:F834  DE:0C0A  HL:0008  AF:6A92  SP:0474  PC:02C9   
02CA  05        DCR B       (1)  BC:F834  DE:0C0A  HL:0009  AF:6A92  SP:0474  PC:02CA   
02CB  C2 C9 02  JNZ 02C9    (1)  BC:F734  DE:0C0A  HL:0009  AF:6A92  SP:0474  PC:02CB   
02C9  23        INX H       (1)  BC:F734  DE:0C0A  HL:0009  AF:6A92  SP:0474  PC:02C9   
02CA  05        DCR B       (1)  BC:F734  DE:0C0A  HL:000A  AF:6A92  SP:0474  PC:02CA   
02CB  C2 C9 02  JNZ 02C9    (1)  BC:F634  DE:0C0A  HL:000A  AF:6A96  SP:0474  PC:02CB   
02C9  23        INX H       (1)  BC:F634  DE:0C0A  HL:000A  AF:6A96  SP:0474  PC:02C9   
02CA  05        DCR B       (1)  BC:F634  DE:0C0A  HL:000B  AF:6A96  SP:0474  PC:02CA   
02CB  C2 C9 02  JNZ 02C9    (1)  BC:F534  DE:0C0A  HL:000B  AF:6A96  SP:0474  PC:02CB   
02C9  23        INX H       (1)  BC:F534  DE:0C0A  HL:000B  AF:6A96  SP:0474  PC:02C9   
02CA  05        DCR B       (1)  BC:F534  DE:0C0A  HL:000C  AF:6A96  SP:0474  PC:02CA   
02CB  C2 C9 02  JNZ 02C9    (1)  BC:F434  DE:0C0A  HL:000C  AF:6A92  SP:0474  PC:02CB   
02C9  23        INX H       (1)  BC:F434  DE:0C0A  HL:000C  AF:6A92  SP:0474  PC:02C9   
02CA  05        DCR B       (1)  BC:F434  DE:0C0A  HL:000D  AF:6A92  SP:0474  PC:02CA   
02CB  C2 C9 02  JNZ 02C9    (1)  BC:F334  DE:0C0A  HL:000D  AF:6A96  SP:0474  PC:02CB   
02C9  23        INX H       (1)  BC:F334  DE:0C0A  HL:000D  AF:6A96  SP:0474  PC:02C9   
02CA  05        DCR B       (1)  BC:F334  DE:0C0A  HL:000E  AF:6A96  SP:0474  PC:02CA   
02CB  C2 C9 02  JNZ 02C9    (1)  BC:F234  DE:0C0A  HL:000E  AF:6A92  SP:0474  PC:02CB   
02C9  23        INX H       (1)  BC:F234  DE:0C0A  HL:000E  AF:6A92  SP:0474  PC:02C9   
02CA  05        DCR B       (1)  BC:F234  DE:0C0A  HL:000F  AF:6A92  SP:0474  PC:02CA   
02CB  C2 C9 02  JNZ 02C9    (1)  BC:F134  DE:0C0A  HL:000F  AF:6A92  SP:0474  PC:02CB   
02C9  23        INX H       (1)  BC:F134  DE:0C0A  HL:000F  AF:6A92  SP:0474  PC:02C9   
02CA  05        DCR B       (1)  BC:F134  DE:0C0A  HL:0010  AF:6A92  SP:0474  PC:02CA   
02CB  C2 C9 02  JNZ 02C9    (1)  BC:F034  DE:0C0A  HL:0010  AF:6A96  SP:0474  PC:02CB   
02C9  23        INX H       (1)  BC:F034  DE:0C0A  HL:0010  AF:6A96  SP:0474  PC:02C9   
02CA  05        DCR B       (1)  BC:F034  DE:0C0A  HL:0011  AF:6A96  SP:0474  PC:02CA   
02CB  C2 C9 02  JNZ 02C9    (1)  BC:EF34  DE:0C0A  HL:0011  AF:6A82  SP:0474  PC:02CB   
02C9  23        INX H       (1)  BC:EF34  DE:0C0A  HL:0011  AF:6A82  SP:0474  PC:02C9   
02CA  05        DCR B       (1)  BC:EF34  DE:0C0A  HL:0012  AF:6A82  SP:0474  PC:02CA   
02CB  C2 C9 02  JNZ 02C9    (1)  BC:EE34  DE:0C0A  HL:0012  AF:6A96  SP:0474  PC:02CB   
02C9  23        INX H       (1)  BC:EE34  DE:0C0A  HL:0012  AF:6A96  SP:0474  PC:02C9   
02CA  05        DCR B       (1)  BC:EE34  DE:0C0A  HL:0013  AF:6A96  SP:0474  PC:02CA   
02CB  C2 C9 02  JNZ 02C9    (1)  BC:ED34  DE:0C0A  HL:0013  AF:6A96  SP:0474  PC:02CB   
02C9  23        INX H       (1)  BC:ED34  DE:0C0A  HL:0013  AF:6A96  SP:0474  PC:02C9   
02CA  05        DCR B       (1)  BC:ED34  DE:0C0A  HL:0014  AF:6A96  SP:0474  PC:02CA   
02CB  C2 C9 02  JNZ 02C9    (1)  BC:EC34  DE:0C0A  HL:0014  AF:6A92  SP:0474  PC:02CB   
02C9  23        INX H       (1)  BC:EC34  DE:0C0A  HL:0014  AF:6A92  SP:0474  PC:02C9   
02CA  05        DCR B       (1)  BC:EC34  DE:0C0A  HL:0015  AF:6A92  SP:0474  PC:02CA   
02CB  C2 C9 02  JNZ 02C9    (1)  BC:EB34  DE:0C0A  HL:0015  AF:6A96  SP:0474  PC:02CB   
02C9  23        INX H       (1)  BC:EB34  DE:0C0A  HL:0015  AF:6A96  SP:0474  PC:02C9   
02CA  05        DCR B       (1)  BC:EB34  DE:0C0A  HL:0016  AF:6A96  SP:0474  PC:02CA   
02CB  C2 C9 02  JNZ 02C9    (1)  BC:EA34  DE:0C0A  HL:0016  AF:6A92  SP:0474  PC:02CB   
02C9  23        INX H       (1)  BC:EA34  DE:0C0A  HL:0016  AF:6A92  SP:0474  PC:02C9   
02CA  05        DCR B       (1)  BC:EA34  DE:0C0A  HL:0017  AF:6A92  SP:0474  PC:02CA   
02CB  C2 C9 02  JNZ 02C9    (1)  BC:E934  DE:0C0A  HL:0017  AF:6A92  SP:0474  PC:02CB   
02C9  23        INX H       (1)  BC:E934  DE:0C0A  HL:0017  AF:6A92  SP:0474  PC:02C9   
02CA  05        DCR B       (1)  BC:E934  DE:0C0A  HL:0018  AF:6A92  SP:0474  PC:02CA   
02CB  C2 C9 02  JNZ 02C9    (1)  BC:E834  DE:0C0A  HL:0018  AF:6A96  SP:0474  PC:02CB   
02C9  23        INX H       (1)  BC:E834  DE:0C0A  HL:0018  AF:6A96  SP:0474  PC:02C9   
02CA  05        DCR B       (1)  BC:E834  DE:0C0A  HL:0019  AF:6A96  SP:0474  PC:02CA   
02CB  C2 C9 02  JNZ 02C9    (1)  BC:E734  DE:0C0A  HL:0019  AF:6A96  SP:0474  PC:02CB   
02C9  23        INX H       (1)  BC:E734  DE:0C0A  HL:0019  AF:6A96  SP:0474  PC:02C9   
02CA  05        DCR B       (1)  BC:E734  DE:0C0A  HL:001A  AF:6A96  SP:0474  PC:02CA   
02CB  C2 C9 02  JNZ 02C9    (1)  BC:E634  DE:0C0A  HL:001A  AF:6A92  SP:0474  PC:02CB   
02C9  23        INX H       (1)  BC:E634  DE:0C0A  HL:001A  AF:6A92  SP:0474  PC:02C9   
02CA  05        DCR B       (1)  BC:E634  DE:0C0A  HL:001B  AF:6A92  SP:0474  PC:02CA   
02CB  C2 C9 02  JNZ 02C9    (1)  BC:E534  DE:0C0A  HL:001B  AF:6A92  SP:0474  PC:02CB   
02C9  23        INX H       (1)  BC:E534  DE:0C0A  HL:001B  AF:6A92  SP:0474  PC:02C9   
02CA  05        DCR B       (1)  BC:E534  DE:0C0A  HL:001C  AF:6A92  SP:0474  PC:02CA   
02CB  C2 C9 02  JNZ 02C9    (1)  BC:E434  DE:0C0A  HL:001C  AF:6A96  SP:0474  PC:02CB   
02C9  23        INX H       (1)  BC:E434  DE:0C0A  HL:001C  AF:6A96  SP:0474  PC:02C9   
02CA  05        DCR B       (1)  BC:E434  DE:0C0A  HL:001D  AF:6A96  SP:0474  PC:02CA   
02CB  C2 C9 02  JNZ 02C9    (1)  BC:E334  DE:0C0A  HL:001D  AF:6A92  SP:0474  PC:02CB   
02C9  23        INX H       (1)  BC:E334  DE:0C0A  HL:001D  AF:6A92  SP:0474  PC:02C9   
02CA  05        DCR B       (1)  BC:E334  DE:0C0A  HL:001E  AF:6A92  SP:0474  PC:02CA   
02CB  C2 C9 02  JNZ 02C9    (1)  BC:E234  DE:0C0A  HL:001E  AF:6A96  SP:0474  PC:02CB   
02C9  23        INX H       (1)  BC:E234  DE:0C0A  HL:001E  AF:6A96  SP:0474  PC:02C9   
02CA  05        DCR B       (1)  BC:E234  DE:0C0A  HL:001F  AF:6A96  SP:0474  PC:02CA   
02CB  C2 C9 02  JNZ 02C9    (1)  BC:E134  DE:0C0A  HL:001F  AF:6A96  SP:0474  PC:02CB   
02C9  23        INX H       (1)  BC:E134  DE:0C0A  HL:001F  AF:6A96  SP:0474  PC:02C9   
02CA  05        DCR B       (1)  BC:E134  DE:0C0A  HL:0020  AF:6A96  SP:0474  PC:02CA   
02CB  C2 C9 02  JNZ 02C9    (1)  BC:E034  DE:0C0A  HL:0020  AF:6A92  SP:0474  PC:02CB   
02C9  23        INX H       (1)  BC:E034  DE:0C0A  HL:0020  AF:6A92  SP:0474  PC:02C9   
02CA  05        DCR B       (1)  BC:E034  DE:0C0A  HL:0021  AF:6A92  SP:0474  PC:02CA   
02CB  C2 C9 02  JNZ 02C9    (1)  BC:DF34  DE:0C0A  HL:0021  AF:6A82  SP:0474  PC:02CB   
02C9  23        INX H       (1)  BC:DF34  DE:0C0A  HL:0021  AF:6A82  SP:0474  PC:02C9   
02CA  05        DCR B       (1)  BC:DF34  DE:0C0A  HL:0022  AF:6A82  SP:0474  PC:02CA   
02CB  C2 C9 02  JNZ 02C9    (1)  BC:DE34  DE:0C0A  HL:0022  AF:6A96  SP:0474  PC:02CB   
02C9  23        INX H       (1)  BC:DE34  DE:0C0A  HL:0022  AF:6A96  SP:0474  PC:02C9   
02CA  05        DCR B       (1)  BC:DE34  DE:0C0A  HL:0023  AF:6A96  SP:0474  PC:02CA   
02CB  C2 C9 02  JNZ 02C9    (1)  BC:DD34  DE:0C0A  HL:0023  AF:6A96  SP:0474  PC:02CB   
02C9  23        INX H       (1)  BC:DD34  DE:0C0A  HL:0023  AF:6A96  SP:0474  PC:02C9   
02CA  05        DCR B       (1)  BC:DD34  DE:0C0A  HL:0024  AF:6A96  SP:0474  PC:02CA   
02CB  C2 C9 02  JNZ 02C9    (1)  BC:DC34  DE:0C0A  HL:0024  AF:6A92  SP:0474  PC:02CB   
02C9  23        INX H       (1)  BC:DC34  DE:0C0A  HL:0024  AF:6A92  SP:0474  PC:02C9   
02CA  05        DCR B       (1)  BC:DC34  DE:0C0A  HL:0025  AF:6A92  SP:0474  PC:02CA   
02CB  C2 C9 02  JNZ 02C9    (1)  BC:DB34  DE:0C0A  HL:0025  AF:6A96  SP:0474  PC:02CB   
02C9  23        INX H       (1)  BC:DB34  DE:0C0A  HL:0025  AF:6A96  SP:0474  PC:02C9   
02CA  05        DCR B       (1)  BC:DB34  DE:0C0A  HL:0026  AF:6A96  SP:0474  PC:02CA   
02CB  C2 C9 02  JNZ 02C9    (1)  BC:DA34  DE:0C0A  HL:0026  AF:6A92  SP:0474  PC:02CB   
02C9  23        INX H       (1)  BC:DA34  DE:0C0A  HL:0026  AF:6A92  SP:0474  PC:02C9   
02CA  05        DCR B       (1)  BC:DA34  DE:0C0A  HL:0027  AF:6A92  SP:0474  PC:02CA   
02CB  C2 C9 02  JNZ 02C9    (1)  BC:D934  DE:0C0A  HL:0027  AF:6A92  SP:0474  PC:02CB   
02C9  23        INX H       (1)  BC:D934  DE:0C0A  HL:0027  AF:6A92  SP:0474  PC:02C9   
02CA  05        DCR B       (1)  BC:D934  DE:0C0A  HL:0028  AF:6A92  SP:0474  PC:02CA   
02CB  C2 C9 02  JNZ 02C9    (1)  BC:D834  DE:0C0A  HL:0028  AF:6A96  SP:0474  PC:02CB   
02C9  23        INX H       (1)  BC:D834  DE:0C0A  HL:0028  AF:6A96  SP:0474  PC:02C9   
02CA  05        DCR B       (1)  BC:D834  DE:0C0A  HL:0029  AF:6A96  SP:0474  PC:02CA   
02CB  C2 C9 02  JNZ 02C9    (1)  BC:D734  DE:0C0A  HL:0029  AF:6A96  SP:0474  PC:02CB   
02C9  23        INX H       (1)  BC:D734  DE:0C0A  HL:0029  AF:6A96  SP:0474  PC:02C9   
02CA  05        DCR B       (1)  BC:D734  DE:0C0A  HL:002A  AF:6A96  SP:0474  PC:02CA   
02CB  C2 C9 02  JNZ 02C9    (1)  BC:D634  DE:0C0A  HL:002A  AF:6A92  SP:0474  PC:02CB   
02C9  23        INX H       (1)  BC:D634  DE:0C0A  HL:002A  AF:6A92  SP:0474  PC:02C9   
02CA  05        DCR B       (1)  BC:D634  DE:0C0A  HL:002B  AF:6A92  SP:0474  PC:02CA   
02CB  C2 C9 02  JNZ 02C9    (1)  BC:D534  DE:0C0A  HL:002B  AF:6A92  SP:0474  PC:02CB   
02C9  23        INX H       (1)  BC:D534  DE:0C0A  HL:002B  AF:6A92  SP:0474  PC:02C9   
02CA  05        DCR B       (1)  BC:D534  DE:0C0A  HL:002C  AF:6A92  SP:0474  PC:02CA   
02CB  C2 C9 02  JNZ 02C9    (1)  BC:D434  DE:0C0A  HL:002C  AF:6A96  SP:0474  PC:02CB   
02C9  23        INX H       (1)  BC:D434  DE:0C0A  HL:002C  AF:6A96  SP:0474  PC:02C9   
02CA  05        DCR B       (1)  BC:D434  DE:0C0A  HL:002D  AF:6A96  SP:0474  PC:02CA   
02CB  C2 C9 02  JNZ 02C9    (1)  BC:D334  DE:0C0A  HL:002D  AF:6A92  SP:0474  PC:02CB   
02C9  23        INX H       (1)  BC:D334  DE:0C0A  HL:002D  AF:6A92  SP:0474  PC:02C9   
02CA  05        DCR B       (1)  BC:D334  DE:0C0A  HL:002E  AF:6A92  SP:0474  PC:02CA   
02CB  C2 C9 02  JNZ 02C9    (1)  BC:D234  DE:0C0A  HL:002E  AF:6A96  SP:0474  PC:02CB   
02C9  23        INX H       (1)  BC:D234  DE:0C0A  HL:002E  AF:6A96  SP:0474  PC:02C9   
02CA  05        DCR B       (1)  BC:D234  DE:0C0A  HL:002F  AF:6A96  SP:0474  PC:02CA   
02CB  C2 C9 02  JNZ 02C9    (1)  BC:D134  DE:0C0A  HL:002F  AF:6A96  SP:0474  PC:02CB   
02C9  23        INX H       (1)  BC:D134  DE:0C0A  HL:002F  AF:6A96  SP:0474  PC:02C9   
02CA  05        DCR B       (1)  BC:D134  DE:0C0A  HL:0030  AF:6A96  SP:0474  PC:02CA   
02CB  C2 C9 02  JNZ 02C9    (1)  BC:D034  DE:0C0A  HL:0030  AF:6A92  SP:0474  PC:02CB   
02C9  23        INX H       (1)  BC:D034  DE:0C0A  HL:0030  AF:6A92  SP:0474  PC:02C9   
02CA  05        DCR B       (1)  BC:D034  DE:0C0A  HL:0031  AF:6A92  SP:0474  PC:02CA   
02CB  C2 C9 02  JNZ 02C9    (1)  BC:CF34  DE:0C0A  HL:0031  AF:6A86  SP:0474  PC:02CB   
02C9  23        INX H       (1)  BC:CF34  DE:0C0A  HL:0031  AF:6A86  SP:0474  PC:02C9   
02CA  05        DCR B       (1)  BC:CF34  DE:0C0A  HL:0032  AF:6A86  SP:0474  PC:02CA   
02CB  C2 C9 02  JNZ 02C9    (1)  BC:CE34  DE:0C0A  HL:0032  AF:6A92  SP:0474  PC:02CB   
02C9  23        INX H       (1)  BC:CE34  DE:0C0A  HL:0032  AF:6A92  SP:0474  PC:02C9   
02CA  05        DCR B       (1)  BC:CE34  DE:0C0A  HL:0033  AF:6A92  SP:0474  PC:02CA   
02CB  C2 C9 02  JNZ 02C9    (1)  BC:CD34  DE:0C0A  HL:0033  AF:6A92  SP:0474  PC:02CB   
02C9  23        INX H       (1)  BC:CD34  DE:0C0A  HL:0033  AF:6A92  SP:0474  PC:02C9   
02CA  05        DCR B       (1)  BC:CD34  DE:0C0A  HL:0034  AF:6A92  SP:0474  PC:02CA   
02CB  C2 C9 02  JNZ 02C9    (1)  BC:CC34  DE:0C0A  HL:0034  AF:6A96  SP:0474  PC:02CB   
02C9  23        INX H       (1)  BC:CC34  DE:0C0A  HL:0034  AF:6A96  SP:0474  PC:02C9   
02CA  05        DCR B       (1)  BC:CC34  DE:0C0A  HL:0035  AF:6A96  SP:0474  PC:02CA   
02CB  C2 C9 02  JNZ 02C9    (1)  BC:CB34  DE:0C0A  HL:0035  AF:6A92  SP:0474  PC:02CB   
02C9  23        INX H       (1)  BC:CB34  DE:0C0A  HL:0035  AF:6A92  SP:0474  PC:02C9   
02CA  05        DCR B       (1)  BC:CB34  DE:0C0A  HL:0036  AF:6A92  SP:0474  PC:02CA   
02CB  C2 C9 02  JNZ 02C9    (1)  BC:CA34  DE:0C0A  HL:0036  AF:6A96  SP:0474  PC:02CB   
02C9  23        INX H       (1)  BC:CA34  DE:0C0A  HL:0036  AF:6A96  SP:0474  PC:02C9   
02CA  05        DCR B       (1)  BC:CA34  DE:0C0A  HL:0037  AF:6A96  SP:0474  PC:02CA   
02CB  C2 C9 02  JNZ 02C9    (1)  BC:C934  DE:0C0A  HL:0037  AF:6A96  SP:0474  PC:02CB   
02C9  23        INX H       (1)  BC:C934  DE:0C0A  HL:0037  AF:6A96  SP:0474  PC:02C9   
02CA  05        DCR B       (1)  BC:C934  DE:0C0A  HL:0038  AF:6A96  SP:0474  PC:02CA   
02CB  C2 C9 02  JNZ 02C9    (1)  BC:C834  DE:0C0A  HL:0038  AF:6A92  SP:0474  PC:02CB   
02C9  23        INX H       (1)  BC:C834  DE:0C0A  HL:0038  AF:6A92  SP:0474  PC:02C9   
02CA  05        DCR B       (1)  BC:C834  DE:0C0A  HL:0039  AF:6A92  SP:0474  PC:02CA   
02CB  C2 C9 02  JNZ 02C9    (1)  BC:C734  DE:0C0A  HL:0039  AF:6A92  SP:0474  PC:02CB   
02C9  23        INX H       (1)  BC:C734  DE:0C0A  HL:0039  AF:6A92  SP:0474  PC:02C9   
02CA  05        DCR B       (1)  BC:C734  DE:0C0A  HL:003A  AF:6A92  SP:0474  PC:02CA   
02CB  C2 C9 02  JNZ 02C9    (1)  BC:C634  DE:0C0A  HL:003A  AF:6A96  SP:0474  PC:02CB   
02C9  23        INX H       (1)  BC:C634  DE:0C0A  HL:003A  AF:6A96  SP:0474  PC:02C9   
02CA  05        DCR B       (1)  BC:C634  DE:0C0A  HL:003B  AF:6A96  SP:0474  PC:02CA   
02CB  C2 C9 02  JNZ 02C9    (1)  BC:C534  DE:0C0A  HL:003B  AF:6A96  SP:0474  PC:02CB   
02C9  23        INX H       (1)  BC:C534  DE:0C0A  HL:003B  AF:6A96  SP:0474  PC:02C9   
02CA  05        DCR B       (1)  BC:C534  DE:0C0A  HL:003C  AF:6A96  SP:0474  PC:02CA   
02CB  C2 C9 02  JNZ 02C9    (1)  BC:C434  DE:0C0A  HL:003C  AF:6A92  SP:0474  PC:02CB   
02C9  23        INX H       (1)  BC:C434  DE:0C0A  HL:003C  AF:6A92  SP:0474  PC:02C9   
02CA  05        DCR B       (1)  BC:C434  DE:0C0A  HL:003D  AF:6A92  SP:0474  PC:02CA   
02CB  C2 C9 02  JNZ 02C9    (1)  BC:C334  DE:0C0A  HL:003D  AF:6A96  SP:0474  PC:02CB   
02C9  23        INX H       (1)  BC:C334  DE:0C0A  HL:003D  AF:6A96  SP:0474  PC:02C9   
02CA  05        DCR B       (1)  BC:C334  DE:0C0A  HL:003E  AF:6A96  SP:0474  PC:02CA   
02CB  C2 C9 02  JNZ 02C9    (1)  BC:C234  DE:0C0A  HL:003E  AF:6A92  SP:0474  PC:02CB   
02C9  23        INX H       (1)  BC:C234  DE:0C0A  HL:003E  AF:6A92  SP:0474  PC:02C9   
02CA  05        DCR B       (1)  BC:C234  DE:0C0A  HL:003F  AF:6A92  SP:0474  PC:02CA   
02CB  C2 C9 02  JNZ 02C9    (1)  BC:C134  DE:0C0A  HL:003F  AF:6A92  SP:0474  PC:02CB   
02C9  23        INX H       (1)  BC:C134  DE:0C0A  HL:003F  AF:6A92  SP:0474  PC:02C9   
02CA  05        DCR B       (1)  BC:C134  DE:0C0A  HL:0040  AF:6A92  SP:0474  PC:02CA   
02CB  C2 C9 02  JNZ 02C9    (1)  BC:C034  DE:0C0A  HL:0040  AF:6A96  SP:0474  PC:02CB   
02C9  23        INX H       (1)  BC:C034  DE:0C0A  HL:0040  AF:6A96  SP:0474  PC:02C9   
02CA  05        DCR B       (1)  BC:C034  DE:0C0A  HL:0041  AF:6A96  SP:0474  PC:02CA   
02CB  C2 C9 02  JNZ 02C9    (1)  BC:BF34  DE:0C0A  HL:0041  AF:6A82  SP:0474  PC:02CB   
02C9  23        INX H       (1)  BC:BF34  DE:0C0A  HL:0041  AF:6A82  SP:0474  PC:02C9   
02CA  05        DCR B       (1)  BC:BF34  DE:0C0A  HL:0042  AF:6A82  SP:0474  PC:02CA   
02CB  C2 C9 02  JNZ 02C9    (1)  BC:BE34  DE:0C0A  HL:0042  AF:6A96  SP:0474  PC:02CB   
02C9  23        INX H       (1)  BC:BE34  DE:0C0A  HL:0042  AF:6A96  SP:0474  PC:02C9   
02CA  05        DCR B       (1)  BC:BE34  DE:0C0A  HL:0043  AF:6A96  SP:0474  PC:02CA   
02CB  C2 C9 02  JNZ 02C9    (1)  BC:BD34  DE:0C0A  HL:0043  AF:6A96  SP:0474  PC:02CB   
02C9  23        INX H       (1)  BC:BD34  DE:0C0A  HL:0043  AF:6A96  SP:0474  PC:02C9   
02CA  05        DCR B       (1)  BC:BD34  DE:0C0A  HL:0044  AF:6A96  SP:0474  PC:02CA   
02CB  C2 C9 02  JNZ 02C9    (1)  BC:BC34  DE:0C0A  HL:0044  AF:6A92  SP:0474  PC:02CB   
02C9  23        INX H       (1)  BC:BC34  DE:0C0A  HL:0044  AF:6A92  SP:0474  PC:02C9   
02CA  05        DCR B       (1)  BC:BC34  DE:0C0A  HL:0045  AF:6A92  SP:0474  PC:02CA   
02CB  C2 C9 02  JNZ 02C9    (1)  BC:BB34  DE:0C0A  HL:0045  AF:6A96  SP:0474  PC:02CB   
02C9  23        INX H       (1)  BC:BB34  DE:0C0A  HL:0045  AF:6A96  SP:0474  PC:02C9   
02CA  05        DCR B       (1)  BC:BB34  DE:0C0A  HL:0046  AF:6A96  SP:0474  PC:02CA   
02CB  C2 C9 02  JNZ 02C9    (1)  BC:BA34  DE:0C0A  HL:0046  AF:6A92  SP:0474  PC:02CB   
02C9  23        INX H       (1)  BC:BA34  DE:0C0A  HL:0046  AF:6A92  SP:0474  PC:02C9   
02CA  05        DCR B       (1)  BC:BA34  DE:0C0A  HL:0047  AF:6A92  SP:0474  PC:02CA   
02CB  C2 C9 02  JNZ 02C9    (1)  BC:B934  DE:0C0A  HL:0047  AF:6A92  SP:0474  PC:02CB   
02C9  23        INX H       (1)  BC:B934  DE:0C0A  HL:0047  AF:6A92  SP:0474  PC:02C9   
02CA  05        DCR B       (1)  BC:B934  DE:0C0A  HL:0048  AF:6A92  SP:0474  PC:02CA   
02CB  C2 C9 02  JNZ 02C9    (1)  BC:B834  DE:0C0A  HL:0048  AF:6A96  SP:0474  PC:02CB   
02C9  23        INX H       (1)  BC:B834  DE:0C0A  HL:0048  AF:6A96  SP:0474  PC:02C9   
02CA  05        DCR B       (1)  BC:B834  DE:0C0A  HL:0049  AF:6A96  SP:0474  PC:02CA   
02CB  C2 C9 02  JNZ 02C9    (1)  BC:B734  DE:0C0A  HL:0049  AF:6A96  SP:0474  PC:02CB   
02C9  23        INX H       (1)  BC:B734  DE:0C0A  HL:0049  AF:6A96  SP:0474  PC:02C9   
02CA  05        DCR B       (1)  BC:B734  DE:0C0A  HL:004A  AF:6A96  SP:0474  PC:02CA   
02CB  C2 C9 02  JNZ 02C9    (1)  BC:B634  DE:0C0A  HL:004A  AF:6A92  SP:0474  PC:02CB   
02C9  23        INX H       (1)  BC:B634  DE:0C0A  HL:004A  AF:6A92  SP:0474  PC:02C9   
02CA  05        DCR B       (1)  BC:B634  DE:0C0A  HL:004B  AF:6A92  SP:0474  PC:02CA   
02CB  C2 C9 02  JNZ 02C9    (1)  BC:B534  DE:0C0A  HL:004B  AF:6A92  SP:0474  PC:02CB   
02C9  23        INX H       (1)  BC:B534  DE:0C0A  HL:004B  AF:6A92  SP:0474  PC:02C9   
02CA  05        DCR B       (1)  BC:B534  DE:0C0A  HL:004C  AF:6A92  SP:0474  PC:02CA   
02CB  C2 C9 02  JNZ 02C9    (1)  BC:B434  DE:0C0A  HL:004C  AF:6A96  SP:0474  PC:02CB   
02C9  23        INX H       (1)  BC:B434  DE:0C0A  HL:004C  AF:6A96  SP:0474  PC:02C9   
02CA  05        DCR B       (1)  BC:B434  DE:0C0A  HL:004D  AF:6A96  SP:0474  PC:02CA   
02CB  C2 C9 02  JNZ 02C9    (1)  BC:B334  DE:0C0A  HL:004D  AF:6A92  SP:0474  PC:02CB   
02C9  23        INX H       (1)  BC:B334  DE:0C0A  HL:004D  AF:6A92  SP:0474  PC:02C9   
02CA  05        DCR B       (1)  BC:B334  DE:0C0A  HL:004E  AF:6A92  SP:0474  PC:02CA   
02CB  C2 C9 02  JNZ 02C9    (1)  BC:B234  DE:0C0A  HL:004E  AF:6A96  SP:0474  PC:02CB   
02C9  23        INX H       (1)  BC:B234  DE:0C0A  HL:004E  AF:6A96  SP:0474  PC:02C9   
02CA  05        DCR B       (1)  BC:B234  DE:0C0A  HL:004F  AF:6A96  SP:0474  PC:02CA   
02CB  C2 C9 02  JNZ 02C9    (1)  BC:B134  DE:0C0A  HL:004F  AF:6A96  SP:0474  PC:02CB   
02C9  23        INX H       (1)  BC:B134  DE:0C0A  HL:004F  AF:6A96  SP:0474  PC:02C9   
02CA  05        DCR B       (1)  BC:B134  DE:0C0A  HL:0050  AF:6A96  SP:0474  PC:02CA   
02CB  C2 C9 02  JNZ 02C9    (1)  BC:B034  DE:0C0A  HL:0050  AF:6A92  SP:0474  PC:02CB   
02C9  23        INX H       (1)  BC:B034  DE:0C0A  HL:0050  AF:6A92  SP:0474  PC:02C9   
02CA  05        DCR B       (1)  BC:B034  DE:0C0A  HL:0051  AF:6A92  SP:0474  PC:02CA   
02CB  C2 C9 02  JNZ 02C9    (1)  BC:AF34  DE:0C0A  HL:0051  AF:6A86  SP:0474  PC:02CB   
02C9  23        INX H       (1)  BC:AF34  DE:0C0A  HL:0051  AF:6A86  SP:0474  PC:02C9   
02CA  05        DCR B       (1)  BC:AF34  DE:0C0A  HL:0052  AF:6A86  SP:0474  PC:02CA   
02CB  C2 C9 02  JNZ 02C9    (1)  BC:AE34  DE:0C0A  HL:0052  AF:6A92  SP:0474  PC:02CB   
02C9  23        INX H       (1)  BC:AE34  DE:0C0A  HL:0052  AF:6A92  SP:0474  PC:02C9   
02CA  05        DCR B       (1)  BC:AE34  DE:0C0A  HL:0053  AF:6A92  SP:0474  PC:02CA   
02CB  C2 C9 02  JNZ 02C9    (1)  BC:AD34  DE:0C0A  HL:0053  AF:6A92  SP:0474  PC:02CB   
02C9  23        INX H       (1)  BC:AD34  DE:0C0A  HL:0053  AF:6A92  SP:0474  PC:02C9   
02CA  05        DCR B       (1)  BC:AD34  DE:0C0A  HL:0054  AF:6A92  SP:0474  PC:02CA   
02CB  C2 C9 02  JNZ 02C9    (1)  BC:AC34  DE:0C0A  HL:0054  AF:6A96  SP:0474  PC:02CB   
02C9  23        INX H       (1)  BC:AC34  DE:0C0A  HL:0054  AF:6A96  SP:0474  PC:02C9   
02CA  05        DCR B       (1)  BC:AC34  DE:0C0A  HL:0055  AF:6A96  SP:0474  PC:02CA   
02CB  C2 C9 02  JNZ 02C9    (1)  BC:AB34  DE:0C0A  HL:0055  AF:6A92  SP:0474  PC:02CB   
02C9  23        INX H       (1)  BC:AB34  DE:0C0A  HL:0055  AF:6A92  SP:0474  PC:02C9   
02CA  05        DCR B       (1)  BC:AB34  DE:0C0A  HL:0056  AF:6A92  SP:0474  PC:02CA   
02CB  C2 C9 02  JNZ 02C9    (1)  BC:AA34  DE:0C0A  HL:0056  AF:6A96  SP:0474  PC:02CB   
02C9  23        INX H       (1)  BC:AA34  DE:0C0A  HL:0056  AF:6A96  SP:0474  PC:02C9   
02CA  05        DCR B       (1)  BC:AA34  DE:0C0A  HL:0057  AF:6A96  SP:0474  PC:02CA   
02CB  C2 C9 02  JNZ 02C9    (1)  BC:A934  DE:0C0A  HL:0057  AF:6A96  SP:0474  PC:02CB   
02C9  23        INX H       (1)  BC:A934  DE:0C0A  HL:0057  AF:6A96  SP:0474  PC:02C9   
02CA  05        DCR B       (1)  BC:A934  DE:0C0A  HL:0058  AF:6A96  SP:0474  PC:02CA   
02CB  C2 C9 02  JNZ 02C9    (1)  BC:A834  DE:0C0A  HL:0058  AF:6A92  SP:0474  PC:02CB   
02C9  23        INX H       (1)  BC:A834  DE:0C0A  HL:0058  AF:6A92  SP:0474  PC:02C9   
02CA  05        DCR B       (1)  BC:A834  DE:0C0A  HL:0059  AF:6A92  SP:0474  PC:02CA   
02CB  C2 C9 02  JNZ 02C9    (1)  BC:A734  DE:0C0A  HL:0059  AF:6A92  SP:0474  PC:02CB   
02C9  23        INX H       (1)  BC:A734  DE:0C0A  HL:0059  AF:6A92  SP:0474  PC:02C9   
02CA  05        DCR B       (1)  BC:A734  DE:0C0A  HL:005A  AF:6A92  SP:0474  PC:02CA   
02CB  C2 C9 02  JNZ 02C9    (1)  BC:A634  DE:0C0A  HL:005A  AF:6A96  SP:0474  PC:02CB   
02C9  23        INX H       (1)  BC:A634  DE:0C0A  HL:005A  AF:6A96  SP:0474  PC:02C9   
02CA  05        DCR B       (1)  BC:A634  DE:0C0A  HL:005B  AF:6A96  SP:0474  PC:02CA   
02CB  C2 C9 02  JNZ 02C9    (1)  BC:A534  DE:0C0A  HL:005B  AF:6A96  SP:0474  PC:02CB   
02C9  23        INX H       (1)  BC:A534  DE:0C0A  HL:005B  AF:6A96  SP:0474  PC:02C9   
02CA  05        DCR B       (1)  BC:A534  DE:0C0A  HL:005C  AF:6A96  SP:0474  PC:02CA   
02CB  C2 C9 02  JNZ 02C9    (1)  BC:A434  DE:0C0A  HL:005C  AF:6A92  SP:0474  PC:02CB   
02C9  23        INX H       (1)  BC:A434  DE:0C0A  HL:005C  AF:6A92  SP:0474  PC:02C9   
02CA  05        DCR B       (1)  BC:A434  DE:0C0A  HL:005D  AF:6A92  SP:0474  PC:02CA   
02CB  C2 C9 02  JNZ 02C9    (1)  BC:A334  DE:0C0A  HL:005D  AF:6A96  SP:0474  PC:02CB   
02C9  23        INX H       (1)  BC:A334  DE:0C0A  HL:005D  AF:6A96  SP:0474  PC:02C9   
02CA  05        DCR B       (1)  BC:A334  DE:0C0A  HL:005E  AF:6A96  SP:0474  PC:02CA   
02CB  C2 C9 02  JNZ 02C9    (1)  BC:A234  DE:0C0A  HL:005E  AF:6A92  SP:0474  PC:02CB   
02C9  23        INX H       (1)  BC:A234  DE:0C0A  HL:005E  AF:6A92  SP:0474  PC:02C9   
02CA  05        DCR B       (1)  BC:A234  DE:0C0A  HL:005F  AF:6A92  SP:0474  PC:02CA   
02CB  C2 C9 02  JNZ 02C9    (1)  BC:A134  DE:0C0A  HL:005F  AF:6A92  SP:0474  PC:02CB   
02C9  23        INX H       (1)  BC:A134  DE:0C0A  HL:005F  AF:6A92  SP:0474  PC:02C9   
02CA  05        DCR B       (1)  BC:A134  DE:0C0A  HL:0060  AF:6A92  SP:0474  PC:02CA   
02CB  C2 C9 02  JNZ 02C9    (1)  BC:A034  DE:0C0A  HL:0060  AF:6A96  SP:0474  PC:02CB   
02C9  23        INX H       (1)  BC:A034  DE:0C0A  HL:0060  AF:6A96  SP:0474  PC:02C9   
02CA  05        DCR B       (1)  BC:A034  DE:0C0A  HL:0061  AF:6A96  SP:0474  PC:02CA   
02CB  C2 C9 02  JNZ 02C9    (1)  BC:9F34  DE:0C0A  HL:0061  AF:6A86  SP:0474  PC:02CB   
02C9  23        INX H       (1)  BC:9F34  DE:0C0A  HL:0061  AF:6A86  SP:0474  PC:02C9   
02CA  05        DCR B       (1)  BC:9F34  DE:0C0A  HL:0062  AF:6A86  SP:0474  PC:02CA   
02CB  C2 C9 02  JNZ 02C9    (1)  BC:9E34  DE:0C0A  HL:0062  AF:6A92  SP:0474  PC:02CB   
02C9  23        INX H       (1)  BC:9E34  DE:0C0A  HL:0062  AF:6A92  SP:0474  PC:02C9   
02CA  05        DCR B       (1)  BC:9E34  DE:0C0A  HL:0063  AF:6A92  SP:0474  PC:02CA   
02CB  C2 C9 02  JNZ 02C9    (1)  BC:9D34  DE:0C0A  HL:0063  AF:6A92  SP:0474  PC:02CB   
02C9  23        INX H       (1)  BC:9D34  DE:0C0A  HL:0063  AF:6A92  SP:0474  PC:02C9   
02CA  05        DCR B       (1)  BC:9D34  DE:0C0A  HL:0064  AF:6A92  SP:0474  PC:02CA   
02CB  C2 C9 02  JNZ 02C9    (1)  BC:9C34  DE:0C0A  HL:0064  AF:6A96  SP:0474  PC:02CB   
02C9  23        INX H       (1)  BC:9C34  DE:0C0A  HL:0064  AF:6A96  SP:0474  PC:02C9   
02CA  05        DCR B       (1)  BC:9C34  DE:0C0A  HL:0065  AF:6A96  SP:0474  PC:02CA   
02CB  C2 C9 02  JNZ 02C9    (1)  BC:9B34  DE:0C0A  HL:0065  AF:6A92  SP:0474  PC:02CB   
02C9  23        INX H       (1)  BC:9B34  DE:0C0A  HL:0065  AF:6A92  SP:0474  PC:02C9   
02CA  05        DCR B       (1)  BC:9B34  DE:0C0A  HL:0066  AF:6A92  SP:0474  PC:02CA   
02CB  C2 C9 02  JNZ 02C9    (1)  BC:9A34  DE:0C0A  HL:0066  AF:6A96  SP:0474  PC:02CB   
02C9  23        INX H       (1)  BC:9A34  DE:0C0A  HL:0066  AF:6A96  SP:0474  PC:02C9   
02CA  05        DCR B       (1)  BC:9A34  DE:0C0A  HL:0067  AF:6A96  SP:0474  PC:02CA   
02CB  C2 C9 02  JNZ 02C9    (1)  BC:9934  DE:0C0A  HL:0067  AF:6A96  SP:0474  PC:02CB   
02C9  23        INX H       (1)  BC:9934  DE:0C0A  HL:0067  AF:6A96  SP:0474  PC:02C9   
02CA  05        DCR B       (1)  BC:9934  DE:0C0A  HL:0068  AF:6A96  SP:0474  PC:02CA   
02CB  C2 C9 02  JNZ 02C9    (1)  BC:9834  DE:0C0A  HL:0068  AF:6A92  SP:0474  PC:02CB   
02C9  23        INX H       (1)  BC:9834  DE:0C0A  HL:0068  AF:6A92  SP:0474  PC:02C9   
02CA  05        DCR B       (1)  BC:9834  DE:0C0A  HL:0069  AF:6A92  SP:0474  PC:02CA   
02CB  C2 C9 02  JNZ 02C9    (1)  BC:9734  DE:0C0A  HL:0069  AF:6A92  SP:0474  PC:02CB   
02C9  23        INX H       (1)  BC:9734  DE:0C0A  HL:0069  AF:6A92  SP:0474  PC:02C9   
02CA  05        DCR B       (1)  BC:9734  DE:0C0A  HL:006A  AF:6A92  SP:0474  PC:02CA   
02CB  C2 C9 02  JNZ 02C9    (1)  BC:9634  DE:0C0A  HL:006A  AF:6A96  SP:0474  PC:02CB   
02C9  23        INX H       (1)  BC:9634  DE:0C0A  HL:006A  AF:6A96  SP:0474  PC:02C9   
02CA  05        DCR B       (1)  BC:9634  DE:0C0A  HL:006B  AF:6A96  SP:0474  PC:02CA   
02CB  C2 C9 02  JNZ 02C9    (1)  BC:9534  DE:0C0A  HL:006B  AF:6A96  SP:0474  PC:02CB   
02C9  23        INX H       (1)  BC:9534  DE:0C0A  HL:006B  AF:6A96  SP:0474  PC:02C9   
02CA  05        DCR B       (1)  BC:9534  DE:0C0A  HL:006C  AF:6A96  SP:0474  PC:02CA   
02CB  C2 C9 02  JNZ 02C9    (1)  BC:9434  DE:0C0A  HL:006C  AF:6A92  SP:0474  PC:02CB   
02C9  23        INX H       (1)  BC:9434  DE:0C0A  HL:006C  AF:6A92  SP:0474  PC:02C9   
02CA  05        DCR B       (1)  BC:9434  DE:0C0A  HL:006D  AF:6A92  SP:0474  PC:02CA   
02CB  C2 C9 02  JNZ 02C9    (1)  BC:9334  DE:0C0A  HL:006D  AF:6A96  SP:0474  PC:02CB   
02C9  23        INX H       (1)  BC:9334  DE:0C0A  HL:006D  AF:6A96  SP:0474  PC:02C9   
02CA  05        DCR B       (1)  BC:9334  DE:0C0A  HL:006E  AF:6A96  SP:0474  PC:02CA   
02CB  C2 C9 02  JNZ 02C9    (1)  BC:9234  DE:0C0A  HL:006E  AF:6A92  SP:0474  PC:02CB   
02C9  23        INX H       (1)  BC:9234  DE:0C0A  HL:006E  AF:6A92  SP:0474  PC:02C9   
02CA  05        DCR B       (1)  BC:9234  DE:0C0A  HL:006F  AF:6A92  SP:0474  PC:02CA   
02CB  C2 C9 02  JNZ 02C9    (1)  BC:9134  DE:0C0A  HL:006F  AF:6A92  SP:0474  PC:02CB   
02C9  23        INX H       (1)  BC:9134  DE:0C0A  HL:006F  AF:6A92  SP:0474  PC:02C9   
02CA  05        DCR B       (1)  BC:9134  DE:0C0A  HL:0070  AF:6A92  SP:0474  PC:02CA   
02CB  C2 C9 02  JNZ 02C9    (1)  BC:9034  DE:0C0A  HL:0070  AF:6A96  SP:0474  PC:02CB   
02C9  23        INX H       (1)  BC:9034  DE:0C0A  HL:0070  AF:6A96  SP:0474  PC:02C9   
02CA  05        DCR B       (1)  BC:9034  DE:0C0A  HL:0071  AF:6A96  SP:0474  PC:02CA   
02CB  C2 C9 02  JNZ 02C9    (1)  BC:8F34  DE:0C0A  HL:0071  AF:6A82  SP:0474  PC:02CB   
02C9  23        INX H       (1)  BC:8F34  DE:0C0A  HL:0071  AF:6A82  SP:0474  PC:02C9   
02CA  05        DCR B       (1)  BC:8F34  DE:0C0A  HL:0072  AF:6A82  SP:0474  PC:02CA   
02CB  C2 C9 02  JNZ 02C9    (1)  BC:8E34  DE:0C0A  HL:0072  AF:6A96  SP:0474  PC:02CB   
02C9  23        INX H       (1)  BC:8E34  DE:0C0A  HL:0072  AF:6A96  SP:0474  PC:02C9   
02CA  05        DCR B       (1)  BC:8E34  DE:0C0A  HL:0073  AF:6A96  SP:0474  PC:02CA   
02CB  C2 C9 02  JNZ 02C9    (1)  BC:8D34  DE:0C0A  HL:0073  AF:6A96  SP:0474  PC:02CB   
02C9  23        INX H       (1)  BC:8D34  DE:0C0A  HL:0073  AF:6A96  SP:0474  PC:02C9   
02CA  05        DCR B       (1)  BC:8D34  DE:0C0A  HL:0074  AF:6A96  SP:0474  PC:02CA   
02CB  C2 C9 02  JNZ 02C9    (1)  BC:8C34  DE:0C0A  HL:0074  AF:6A92  SP:0474  PC:02CB   
02C9  23        INX H       (1)  BC:8C34  DE:0C0A  HL:0074  AF:6A92  SP:0474  PC:02C9   
02CA  05        DCR B       (1)  BC:8C34  DE:0C0A  HL:0075  AF:6A92  SP:0474  PC:02CA   
02CB  C2 C9 02  JNZ 02C9    (1)  BC:8B34  DE:0C0A  HL:0075  AF:6A96  SP:0474  PC:02CB   
02C9  23        INX H       (1)  BC:8B34  DE:0C0A  HL:0075  AF:6A96  SP:0474  PC:02C9   
02CA  05        DCR B       (1)  BC:8B34  DE:0C0A  HL:0076  AF:6A96  SP:0474  PC:02CA   
02CB  C2 C9 02  JNZ 02C9    (1)  BC:8A34  DE:0C0A  HL:0076  AF:6A92  SP:0474  PC:02CB   
02C9  23        INX H       (1)  BC:8A34  DE:0C0A  HL:0076  AF:6A92  SP:0474  PC:02C9   
02CA  05        DCR B       (1)  BC:8A34  DE:0C0A  HL:0077  AF:6A92  SP:0474  PC:02CA   
02CB  C2 C9 02  JNZ 02C9    (1)  BC:8934  DE:0C0A  HL:0077  AF:6A92  SP:0474  PC:02CB   
02C9  23        INX H       (1)  BC:8934  DE:0C0A  HL:0077  AF:6A92  SP:0474  PC:02C9   
02CA  05        DCR B       (1)  BC:8934  DE:0C0A  HL:0078  AF:6A92  SP:0474  PC:02CA   
02CB  C2 C9 02  JNZ 02C9    (1)  BC:8834  DE:0C0A  HL:0078  AF:6A96  SP:0474  PC:02CB   
02C9  23        INX H       (1)  BC:8834  DE:0C0A  HL:0078  AF:6A96  SP:0474  PC:02C9   
02CA  05        DCR B       (1)  BC:8834  DE:0C0A  HL:0079  AF:6A96  SP:0474  PC:02CA   
02CB  C2 C9 02  JNZ 02C9    (1)  BC:8734  DE:0C0A  HL:0079  AF:6A96  SP:0474  PC:02CB   
02C9  23        INX H       (1)  BC:8734  DE:0C0A  HL:0079  AF:6A96  SP:0474  PC:02C9   
02CA  05        DCR B       (1)  BC:8734  DE:0C0A  HL:007A  AF:6A96  SP:0474  PC:02CA   
02CB  C2 C9 02  JNZ 02C9    (1)  BC:8634  DE:0C0A  HL:007A  AF:6A92  SP:0474  PC:02CB   
02C9  23        INX H       (1)  BC:8634  DE:0C0A  HL:007A  AF:6A92  SP:0474  PC:02C9   
02CA  05        DCR B       (1)  BC:8634  DE:0C0A  HL:007B  AF:6A92  SP:0474  PC:02CA   
02CB  C2 C9 02  JNZ 02C9    (1)  BC:8534  DE:0C0A  HL:007B  AF:6A92  SP:0474  PC:02CB   
02C9  23        INX H       (1)  BC:8534  DE:0C0A  HL:007B  AF:6A92  SP:0474  PC:02C9   
02CA  05        DCR B       (1)  BC:8534  DE:0C0A  HL:007C  AF:6A92  SP:0474  PC:02CA   
02CB  C2 C9 02  JNZ 02C9    (1)  BC:8434  DE:0C0A  HL:007C  AF:6A96  SP:0474  PC:02CB   
02C9  23        INX H       (1)  BC:8434  DE:0C0A  HL:007C  AF:6A96  SP:0474  PC:02C9   
02CA  05        DCR B       (1)  BC:8434  DE:0C0A  HL:007D  AF:6A96  SP:0474  PC:02CA   
02CB  C2 C9 02  JNZ 02C9    (1)  BC:8334  DE:0C0A  HL:007D  AF:6A92  SP:0474  PC:02CB   
02C9  23        INX H       (1)  BC:8334  DE:0C0A  HL:007D  AF:6A92  SP:0474  PC:02C9   
02CA  05        DCR B       (1)  BC:8334  DE:0C0A  HL:007E  AF:6A92  SP:0474  PC:02CA   
02CB  C2 C9 02  JNZ 02C9    (1)  BC:8234  DE:0C0A  HL:007E  AF:6A96  SP:0474  PC:02CB   
02C9  23        INX H       (1)  BC:8234  DE:0C0A  HL:007E  AF:6A96  SP:0474  PC:02C9   
02CA  05        DCR B       (1)  BC:8234  DE:0C0A  HL:007F  AF:6A96  SP:0474  PC:02CA   
02CB  C2 C9 02  JNZ 02C9    (1)  BC:8134  DE:0C0A  HL:007F  AF:6A96  SP:0474  PC:02CB   
02C9  23        INX H       (1)  BC:8134  DE:0C0A  HL:007F  AF:6A96  SP:0474  PC:02C9   
02CA  05        DCR B       (1)  BC:8134  DE:0C0A  HL:0080  AF:6A96  SP:0474  PC:02CA   
02CB  C2 C9 02  JNZ 02C9    (1)  BC:8034  DE:0C0A  HL:0080  AF:6A92  SP:0474  PC:02CB   
02C9  23        INX H       (1)  BC:8034  DE:0C0A  HL:0080  AF:6A92  SP:0474  PC:02C9   
02CA  05        DCR B       (1)  BC:8034  DE:0C0A  HL:0081  AF:6A92  SP:0474  PC:02CA   
02CB  C2 C9 02  JNZ 02C9    (1)  BC:7F34  DE:0C0A  HL:0081  AF:6A02  SP:0474  PC:02CB   
02C9  23        INX H       (1)  BC:7F34  DE:0C0A  HL:0081  AF:6A02  SP:0474  PC:02C9   
02CA  05        DCR B       (1)  BC:7F34  DE:0C0A  HL:0082  AF:6A02  SP:0474  PC:02CA   
02CB  C2 C9 02  JNZ 02C9    (1)  BC:7E34  DE:0C0A  HL:0082  AF:6A16  SP:0474  PC:02CB   
02C9  23        INX H       (1)  BC:7E34  DE:0C0A  HL:0082  AF:6A16  SP:0474  PC:02C9   
02CA  05        DCR B       (1)  BC:7E34  DE:0C0A  HL:0083  AF:6A16  SP:0474  PC:02CA   
02CB  C2 C9 02  JNZ 02C9    (1)  BC:7D34  DE:0C0A  HL:0083  AF:6A16  SP:0474  PC:02CB   
02C9  23        INX H       (1)  BC:7D34  DE:0C0A  HL:0083  AF:6A16  SP:0474  PC:02C9   
02CA  05        DCR B       (1)  BC:7D34  DE:0C0A  HL:0084  AF:6A16  SP:0474  PC:02CA   
02CB  C2 C9 02  JNZ 02C9    (1)  BC:7C34  DE:0C0A  HL:0084  AF:6A12  SP:0474  PC:02CB   
02C9  23        INX H       (1)  BC:7C34  DE:0C0A  HL:0084  AF:6A12  SP:0474  PC:02C9   
02CA  05        DCR B       (1)  BC:7C34  DE:0C0A  HL:0085  AF:6A12  SP:0474  PC:02CA   
02CB  C2 C9 02  JNZ 02C9    (1)  BC:7B34  DE:0C0A  HL:0085  AF:6A16  SP:0474  PC:02CB   
02C9  23        INX H       (1)  BC:7B34  DE:0C0A  HL:0085  AF:6A16  SP:0474  PC:02C9   
02CA  05        DCR B       (1)  BC:7B34  DE:0C0A  HL:0086  AF:6A16  SP:0474  PC:02CA   
02CB  C2 C9 02  JNZ 02C9    (1)  BC:7A34  DE:0C0A  HL:0086  AF:6A12  SP:0474  PC:02CB   
02C9  23        INX H       (1)  BC:7A34  DE:0C0A  HL:0086  AF:6A12  SP:0474  PC:02C9   
02CA  05        DCR B       (1)  BC:7A34  DE:0C0A  HL:0087  AF:6A12  SP:0474  PC:02CA   
02CB  C2 C9 02  JNZ 02C9    (1)  BC:7934  DE:0C0A  HL:0087  AF:6A12  SP:0474  PC:02CB   
02C9  23        INX H       (1)  BC:7934  DE:0C0A  HL:0087  AF:6A12  SP:0474  PC:02C9   
02CA  05        DCR B       (1)  BC:7934  DE:0C0A  HL:0088  AF:6A12  SP:0474  PC:02CA   
02CB  C2 C9 02  JNZ 02C9    (1)  BC:7834  DE:0C0A  HL:0088  AF:6A16  SP:0474  PC:02CB   
02C9  23        INX H       (1)  BC:7834  DE:0C0A  HL:0088  AF:6A16  SP:0474  PC:02C9   
02CA  05        DCR B       (1)  BC:7834  DE:0C0A  HL:0089  AF:6A16  SP:0474  PC:02CA   
02CB  C2 C9 02  JNZ 02C9    (1)  BC:7734  DE:0C0A  HL:0089  AF:6A16  SP:0474  PC:02CB   
02C9  23        INX H       (1)  BC:7734  DE:0C0A  HL:0089  AF:6A16  SP:0474  PC:02C9   
02CA  05        DCR B       (1)  BC:7734  DE:0C0A  HL:008A  AF:6A16  SP:0474  PC:02CA   
02CB  C2 C9 02  JNZ 02C9    (1)  BC:7634  DE:0C0A  HL:008A  AF:6A12  SP:0474  PC:02CB   
02C9  23        INX H       (1)  BC:7634  DE:0C0A  HL:008A  AF:6A12  SP:0474  PC:02C9   
02CA  05        DCR B       (1)  BC:7634  DE:0C0A  HL:008B  AF:6A12  SP:0474  PC:02CA   
02CB  C2 C9 02  JNZ 02C9    (1)  BC:7534  DE:0C0A  HL:008B  AF:6A12  SP:0474  PC:02CB   
02C9  23        INX H       (1)  BC:7534  DE:0C0A  HL:008B  AF:6A12  SP:0474  PC:02C9   
02CA  05        DCR B       (1)  BC:7534  DE:0C0A  HL:008C  AF:6A12  SP:0474  PC:02CA   
02CB  C2 C9 02  JNZ 02C9    (1)  BC:7434  DE:0C0A  HL:008C  AF:6A16  SP:0474  PC:02CB   
02C9  23        INX H       (1)  BC:7434  DE:0C0A  HL:008C  AF:6A16  SP:0474  PC:02C9   
02CA  05        DCR B       (1)  BC:7434  DE:0C0A  HL:008D  AF:6A16  SP:0474  PC:02CA   
02CB  C2 C9 02  JNZ 02C9    (1)  BC:7334  DE:0C0A  HL:008D  AF:6A12  SP:0474  PC:02CB   
02C9  23        INX H       (1)  BC:7334  DE:0C0A  HL:008D  AF:6A12  SP:0474  PC:02C9   
02CA  05        DCR B       (1)  BC:7334  DE:0C0A  HL:008E  AF:6A12  SP:0474  PC:02CA   
02CB  C2 C9 02  JNZ 02C9    (1)  BC:7234  DE:0C0A  HL:008E  AF:6A16  SP:0474  PC:02CB   
02C9  23        INX H       (1)  BC:7234  DE:0C0A  HL:008E  AF:6A16  SP:0474  PC:02C9   
02CA  05        DCR B       (1)  BC:7234  DE:0C0A  HL:008F  AF:6A16  SP:0474  PC:02CA   
02CB  C2 C9 02  JNZ 02C9    (1)  BC:7134  DE:0C0A  HL:008F  AF:6A16  SP:0474  PC:02CB   
02C9  23        INX H       (1)  BC:7134  DE:0C0A  HL:008F  AF:6A16  SP:0474  PC:02C9   
02CA  05        DCR B       (1)  BC:7134  DE:0C0A  HL:0090  AF:6A16  SP:0474  PC:02CA   
02CB  C2 C9 02  JNZ 02C9    (1)  BC:7034  DE:0C0A  HL:0090  AF:6A12  SP:0474  PC:02CB   
02C9  23        INX H       (1)  BC:7034  DE:0C0A  HL:0090  AF:6A12  SP:0474  PC:02C9   
02CA  05        DCR B       (1)  BC:7034  DE:0C0A  HL:0091  AF:6A12  SP:0474  PC:02CA   
02CB  C2 C9 02  JNZ 02C9    (1)  BC:6F34  DE:0C0A  HL:0091  AF:6A06  SP:0474  PC:02CB   
02C9  23        INX H       (1)  BC:6F34  DE:0C0A  HL:0091  AF:6A06  SP:0474  PC:02C9   
02CA  05        DCR B       (1)  BC:6F34  DE:0C0A  HL:0092  AF:6A06  SP:0474  PC:02CA   
02CB  C2 C9 02  JNZ 02C9    (1)  BC:6E34  DE:0C0A  HL:0092  AF:6A12  SP:0474  PC:02CB   
02C9  23        INX H       (1)  BC:6E34  DE:0C0A  HL:0092  AF:6A12  SP:0474  PC:02C9   
02CA  05        DCR B       (1)  BC:6E34  DE:0C0A  HL:0093  AF:6A12  SP:0474  PC:02CA   
02CB  C2 C9 02  JNZ 02C9    (1)  BC:6D34  DE:0C0A  HL:0093  AF:6A12  SP:0474  PC:02CB   
02C9  23        INX H       (1)  BC:6D34  DE:0C0A  HL:0093  AF:6A12  SP:0474  PC:02C9   
02CA  05        DCR B       (1)  BC:6D34  DE:0C0A  HL:0094  AF:6A12  SP:0474  PC:02CA   
02CB  C2 C9 02  JNZ 02C9    (1)  BC:6C34  DE:0C0A  HL:0094  AF:6A16  SP:0474  PC:02CB   
02C9  23        INX H       (1)  BC:6C34  DE:0C0A  HL:0094  AF:6A16  SP:0474  PC:02C9   
02CA  05        DCR B       (1)  BC:6C34  DE:0C0A  HL:0095  AF:6A16  SP:0474  PC:02CA   
02CB  C2 C9 02  JNZ 02C9    (1)  BC:6B34  DE:0C0A  HL:0095  AF:6A12  SP:0474  PC:02CB   
02C9  23        INX H       (1)  BC:6B34  DE:0C0A  HL:0095  AF:6A12  SP:0474  PC:02C9   
02CA  05        DCR B       (1)  BC:6B34  DE:0C0A  HL:0096  AF:6A12  SP:0474  PC:02CA   
02CB  C2 C9 02  JNZ 02C9    (1)  BC:6A34  DE:0C0A  HL:0096  AF:6A16  SP:0474  PC:02CB   
02C9  23        INX H       (1)  BC:6A34  DE:0C0A  HL:0096  AF:6A16  SP:0474  PC:02C9   
02CA  05        DCR B       (1)  BC:6A34  DE:0C0A  HL:0097  AF:6A16  SP:0474  PC:02CA   
02CB  C2 C9 02  JNZ 02C9    (1)  BC:6934  DE:0C0A  HL:0097  AF:6A16  SP:0474  PC:02CB   
02C9  23        INX H       (1)  BC:6934  DE:0C0A  HL:0097  AF:6A16  SP:0474  PC:02C9   
02CA  05        DCR B       (1)  BC:6934  DE:0C0A  HL:0098  AF:6A16  SP:0474  PC:02CA   
02CB  C2 C9 02  JNZ 02C9    (1)  BC:6834  DE:0C0A  HL:0098  AF:6A12  SP:0474  PC:02CB   
02C9  23        INX H       (1)  BC:6834  DE:0C0A  HL:0098  AF:6A12  SP:0474  PC:02C9   
02CA  05        DCR B       (1)  BC:6834  DE:0C0A  HL:0099  AF:6A12  SP:0474  PC:02CA   
02CB  C2 C9 02  JNZ 02C9    (1)  BC:6734  DE:0C0A  HL:0099  AF:6A12  SP:0474  PC:02CB   
02C9  23        INX H       (1)  BC:6734  DE:0C0A  HL:0099  AF:6A12  SP:0474  PC:02C9   
02CA  05        DCR B       (1)  BC:6734  DE:0C0A  HL:009A  AF:6A12  SP:0474  PC:02CA   
02CB  C2 C9 02  JNZ 02C9    (1)  BC:6634  DE:0C0A  HL:009A  AF:6A16  SP:0474  PC:02CB   
02C9  23        INX H       (1)  BC:6634  DE:0C0A  HL:009A  AF:6A16  SP:0474  PC:02C9   
02CA  05        DCR B       (1)  BC:6634  DE:0C0A  HL:009B  AF:6A16  SP:0474  PC:02CA   
02CB  C2 C9 02  JNZ 02C9    (1)  BC:6534  DE:0C0A  HL:009B  AF:6A16  SP:0474  PC:02CB   
02C9  23        INX H       (1)  BC:6534  DE:0C0A  HL:009B  AF:6A16  SP:0474  PC:02C9   
02CA  05        DCR B       (1)  BC:6534  DE:0C0A  HL:009C  AF:6A16  SP:0474  PC:02CA   
02CB  C2 C9 02  JNZ 02C9    (1)  BC:6434  DE:0C0A  HL:009C  AF:6A12  SP:0474  PC:02CB   
02C9  23        INX H       (1)  BC:6434  DE:0C0A  HL:009C  AF:6A12  SP:0474  PC:02C9   
02CA  05        DCR B       (1)  BC:6434  DE:0C0A  HL:009D  AF:6A12  SP:0474  PC:02CA   
02CB  C2 C9 02  JNZ 02C9    (1)  BC:6334  DE:0C0A  HL:009D  AF:6A16  SP:0474  PC:02CB   
02C9  23        INX H       (1)  BC:6334  DE:0C0A  HL:009D  AF:6A16  SP:0474  PC:02C9   
02CA  05        DCR B       (1)  BC:6334  DE:0C0A  HL:009E  AF:6A16  SP:0474  PC:02CA   
02CB  C2 C9 02  JNZ 02C9    (1)  BC:6234  DE:0C0A  HL:009E  AF:6A12  SP:0474  PC:02CB   
02C9  23        INX H       (1)  BC:6234  DE:0C0A  HL:009E  AF:6A12  SP:0474  PC:02C9   
02CA  05        DCR B       (1)  BC:6234  DE:0C0A  HL:009F  AF:6A12  SP:0474  PC:02CA   
02CB  C2 C9 02  JNZ 02C9    (1)  BC:6134  DE:0C0A  HL:009F  AF:6A12  SP:0474  PC:02CB   
02C9  23        INX H       (1)  BC:6134  DE:0C0A  HL:009F  AF:6A12  SP:0474  PC:02C9   
02CA  05        DCR B       (1)  BC:6134  DE:0C0A  HL:00A0  AF:6A12  SP:0474  PC:02CA   
02CB  C2 C9 02  JNZ 02C9    (1)  BC:6034  DE:0C0A  HL:00A0  AF:6A16  SP:0474  PC:02CB   
02C9  23        INX H       (1)  BC:6034  DE:0C0A  HL:00A0  AF:6A16  SP:0474  PC:02C9   
02CA  05        DCR B       (1)  BC:6034  DE:0C0A  HL:00A1  AF:6A16  SP:0474  PC:02CA   
02CB  C2 C9 02  JNZ 02C9    (1)  BC:5F34  DE:0C0A  HL:00A1  AF:6A06  SP:0474  PC:02CB   
02C9  23        INX H       (1)  BC:5F34  DE:0C0A  HL:00A1  AF:6A06  SP:0474  PC:02C9   
02CA  05        DCR B       (1)  BC:5F34  DE:0C0A  HL:00A2  AF:6A06  SP:0474  PC:02CA   
02CB  C2 C9 02  JNZ 02C9    (1)  BC:5E34  DE:0C0A  HL:00A2  AF:6A12  SP:0474  PC:02CB   
02C9  23        INX H       (1)  BC:5E34  DE:0C0A  HL:00A2  AF:6A12  SP:0474  PC:02C9   
02CA  05        DCR B       (1)  BC:5E34  DE:0C0A  HL:00A3  AF:6A12  SP:0474  PC:02CA   
02CB  C2 C9 02  JNZ 02C9    (1)  BC:5D34  DE:0C0A  HL:00A3  AF:6A12  SP:0474  PC:02CB   
02C9  23        INX H       (1)  BC:5D34  DE:0C0A  HL:00A3  AF:6A12  SP:0474  PC:02C9   
02CA  05        DCR B       (1)  BC:5D34  DE:0C0A  HL:00A4  AF:6A12  SP:0474  PC:02CA   
02CB  C2 C9 02  JNZ 02C9    (1)  BC:5C34  DE:0C0A  HL:00A4  AF:6A16  SP:0474  PC:02CB   
02C9  23        INX H       (1)  BC:5C34  DE:0C0A  HL:00A4  AF:6A16  SP:0474  PC:02C9   
02CA  05        DCR B       (1)  BC:5C34  DE:0C0A  HL:00A5  AF:6A16  SP:0474  PC:02CA   
02CB  C2 C9 02  JNZ 02C9    (1)  BC:5B34  DE:0C0A  HL:00A5  AF:6A12  SP:0474  PC:02CB   
02C9  23        INX H       (1)  BC:5B34  DE:0C0A  HL:00A5  AF:6A12  SP:0474  PC:02C9   
02CA  05        DCR B       (1)  BC:5B34  DE:0C0A  HL:00A6  AF:6A12  SP:0474  PC:02CA   
02CB  C2 C9 02  JNZ 02C9    (1)  BC:5A34  DE:0C0A  HL:00A6  AF:6A16  SP:0474  PC:02CB   
02C9  23        INX H       (1)  BC:5A34  DE:0C0A  HL:00A6  AF:6A16  SP:0474  PC:02C9   
02CA  05        DCR B       (1)  BC:5A34  DE:0C0A  HL:00A7  AF:6A16  SP:0474  PC:02CA   
02CB  C2 C9 02  JNZ 02C9    (1)  BC:5934  DE:0C0A  HL:00A7  AF:6A16  SP:0474  PC:02CB   
02C9  23        INX H       (1)  BC:5934  DE:0C0A  HL:00A7  AF:6A16  SP:0474  PC:02C9   
02CA  05        DCR B       (1)  BC:5934  DE:0C0A  HL:00A8  AF:6A16  SP:0474  PC:02CA   
02CB  C2 C9 02  JNZ 02C9    (1)  BC:5834  DE:0C0A  HL:00A8  AF:6A12  SP:0474  PC:02CB   
02C9  23        INX H       (1)  BC:5834  DE:0C0A  HL:00A8  AF:6A12  SP:0474  PC:02C9   
02CA  05        DCR B       (1)  BC:5834  DE:0C0A  HL:00A9  AF:6A12  SP:0474  PC:02CA   
02CB  C2 C9 02  JNZ 02C9    (1)  BC:5734  DE:0C0A  HL:00A9  AF:6A12  SP:0474  PC:02CB   
02C9  23        INX H       (1)  BC:5734  DE:0C0A  HL:00A9  AF:6A12  SP:0474  PC:02C9   
02CA  05        DCR B       (1)  BC:5734  DE:0C0A  HL:00AA  AF:6A12  SP:0474  PC:02CA   
02CB  C2 C9 02  JNZ 02C9    (1)  BC:5634  DE:0C0A  HL:00AA  AF:6A16  SP:0474  PC:02CB   
02C9  23        INX H       (1)  BC:5634  DE:0C0A  HL:00AA  AF:6A16  SP:0474  PC:02C9   
02CA  05        DCR B       (1)  BC:5634  DE:0C0A  HL:00AB  AF:6A16  SP:0474  PC:02CA   
02CB  C2 C9 02  JNZ 02C9    (1)  BC:5534  DE:0C0A  HL:00AB  AF:6A16  SP:0474  PC:02CB   
02C9  23        INX H       (1)  BC:5534  DE:0C0A  HL:00AB  AF:6A16  SP:0474  PC:02C9   
02CA  05        DCR B       (1)  BC:5534  DE:0C0A  HL:00AC  AF:6A16  SP:0474  PC:02CA   
02CB  C2 C9 02  JNZ 02C9    (1)  BC:5434  DE:0C0A  HL:00AC  AF:6A12  SP:0474  PC:02CB   
02C9  23        INX H       (1)  BC:5434  DE:0C0A  HL:00AC  AF:6A12  SP:0474  PC:02C9   
02CA  05        DCR B       (1)  BC:5434  DE:0C0A  HL:00AD  AF:6A12  SP:0474  PC:02CA   
02CB  C2 C9 02  JNZ 02C9    (1)  BC:5334  DE:0C0A  HL:00AD  AF:6A16  SP:0474  PC:02CB   
02C9  23        INX H       (1)  BC:5334  DE:0C0A  HL:00AD  AF:6A16  SP:0474  PC:02C9   
02CA  05        DCR B       (1)  BC:5334  DE:0C0A  HL:00AE  AF:6A16  SP:0474  PC:02CA   
02CB  C2 C9 02  JNZ 02C9    (1)  BC:5234  DE:0C0A  HL:00AE  AF:6A12  SP:0474  PC:02CB   
02C9  23        INX H       (1)  BC:5234  DE:0C0A  HL:00AE  AF:6A12  SP:0474  PC:02C9   
02CA  05        DCR B       (1)  BC:5234  DE:0C0A  HL:00AF  AF:6A12  SP:0474  PC:02CA   
02CB  C2 C9 02  JNZ 02C9    (1)  BC:5134  DE:0C0A  HL:00AF  AF:6A12  SP:0474  PC:02CB   
02C9  23        INX H       (1)  BC:5134  DE:0C0A  HL:00AF  AF:6A12  SP:0474  PC:02C9   
02CA  05        DCR B       (1)  BC:5134  DE:0C0A  HL:00B0  AF:6A12  SP:0474  PC:02CA   
02CB  C2 C9 02  JNZ 02C9    (1)  BC:5034  DE:0C0A  HL:00B0  AF:6A16  SP:0474  PC:02CB   
02C9  23        INX H       (1)  BC:5034  DE:0C0A  HL:00B0  AF:6A16  SP:0474  PC:02C9   
02CA  05        DCR B       (1)  BC:5034  DE:0C0A  HL:00B1  AF:6A16  SP:0474  PC:02CA   
02CB  C2 C9 02  JNZ 02C9    (1)  BC:4F34  DE:0C0A  HL:00B1  AF:6A02  SP:0474  PC:02CB   
02C9  23        INX H       (1)  BC:4F34  DE:0C0A  HL:00B1  AF:6A02  SP:0474  PC:02C9   
02CA  05        DCR B       (1)  BC:4F34  DE:0C0A  HL:00B2  AF:6A02  SP:0474  PC:02CA   
02CB  C2 C9 02  JNZ 02C9    (1)  BC:4E34  DE:0C0A  HL:00B2  AF:6A16  SP:0474  PC:02CB   
02C9  23        INX H       (1)  BC:4E34  DE:0C0A  HL:00B2  AF:6A16  SP:0474  PC:02C9   
02CA  05        DCR B       (1)  BC:4E34  DE:0C0A  HL:00B3  AF:6A16  SP:0474  PC:02CA   
02CB  C2 C9 02  JNZ 02C9    (1)  BC:4D34  DE:0C0A  HL:00B3  AF:6A16  SP:0474  PC:02CB   
02C9  23        INX H       (1)  BC:4D34  DE:0C0A  HL:00B3  AF:6A16  SP:0474  PC:02C9   
02CA  05        DCR B       (1)  BC:4D34  DE:0C0A  HL:00B4  AF:6A16  SP:0474  PC:02CA   
02CB  C2 C9 02  JNZ 02C9    (1)  BC:4C34  DE:0C0A  HL:00B4  AF:6A12  SP:0474  PC:02CB   
02C9  23        INX H       (1)  BC:4C34  DE:0C0A  HL:00B4  AF:6A12  SP:0474  PC:02C9   
02CA  05        DCR B       (1)  BC:4C34  DE:0C0A  HL:00B5  AF:6A12  SP:0474  PC:02CA   
02CB  C2 C9 02  JNZ 02C9    (1)  BC:4B34  DE:0C0A  HL:00B5  AF:6A16  SP:0474  PC:02CB   
02C9  23        INX H       (1)  BC:4B34  DE:0C0A  HL:00B5  AF:6A16  SP:0474  PC:02C9   
02CA  05        DCR B       (1)  BC:4B34  DE:0C0A  HL:00B6  AF:6A16  SP:0474  PC:02CA   
02CB  C2 C9 02  JNZ 02C9    (1)  BC:4A34  DE:0C0A  HL:00B6  AF:6A12  SP:0474  PC:02CB   
02C9  23        INX H       (1)  BC:4A34  DE:0C0A  HL:00B6  AF:6A12  SP:0474  PC:02C9   
02CA  05        DCR B       (1)  BC:4A34  DE:0C0A  HL:00B7  AF:6A12  SP:0474  PC:02CA   
02CB  C2 C9 02  JNZ 02C9    (1)  BC:4934  DE:0C0A  HL:00B7  AF:6A12  SP:0474  PC:02CB   
02C9  23        INX H       (1)  BC:4934  DE:0C0A  HL:00B7  AF:6A12  SP:0474  PC:02C9   
02CA  05        DCR B       (1)  BC:4934  DE:0C0A  HL:00B8  AF:6A12  SP:0474  PC:02CA   
02CB  C2 C9 02  JNZ 02C9    (1)  BC:4834  DE:0C0A  HL:00B8  AF:6A16  SP:0474  PC:02CB   
02C9  23        INX H       (1)  BC:4834  DE:0C0A  HL:00B8  AF:6A16  SP:0474  PC:02C9   
02CA  05        DCR B       (1)  BC:4834  DE:0C0A  HL:00B9  AF:6A16  SP:0474  PC:02CA   
02CB  C2 C9 02  JNZ 02C9    (1)  BC:4734  DE:0C0A  HL:00B9  AF:6A16  SP:0474  PC:02CB   
02C9  23        INX H       (1)  BC:4734  DE:0C0A  HL:00B9  AF:6A16  SP:0474  PC:02C9   
02CA  05        DCR B       (1)  BC:4734  DE:0C0A  HL:00BA  AF:6A16  SP:0474  PC:02CA   
02CB  C2 C9 02  JNZ 02C9    (1)  BC:4634  DE:0C0A  HL:00BA  AF:6A12  SP:0474  PC:02CB   
02C9  23        INX H       (1)  BC:4634  DE:0C0A  HL:00BA  AF:6A12  SP:0474  PC:02C9   
02CA  05        DCR B       (1)  BC:4634  DE:0C0A  HL:00BB  AF:6A12  SP:0474  PC:02CA   
02CB  C2 C9 02  JNZ 02C9    (1)  BC:4534  DE:0C0A  HL:00BB  AF:6A12  SP:0474  PC:02CB   
02C9  23        INX H       (1)  BC:4534  DE:0C0A  HL:00BB  AF:6A12  SP:0474  PC:02C9   
02CA  05        DCR B       (1)  BC:4534  DE:0C0A  HL:00BC  AF:6A12  SP:0474  PC:02CA   
02CB  C2 C9 02  JNZ 02C9    (1)  BC:4434  DE:0C0A  HL:00BC  AF:6A16  SP:0474  PC:02CB   
02C9  23        INX H       (1)  BC:4434  DE:0C0A  HL:00BC  AF:6A16  SP:0474  PC:02C9   
02CA  05        DCR B       (1)  BC:4434  DE:0C0A  HL:00BD  AF:6A16  SP:0474  PC:02CA   
02CB  C2 C9 02  JNZ 02C9    (1)  BC:4334  DE:0C0A  HL:00BD  AF:6A12  SP:0474  PC:02CB   
02C9  23        INX H       (1)  BC:4334  DE:0C0A  HL:00BD  AF:6A12  SP:0474  PC:02C9   
02CA  05        DCR B       (1)  BC:4334  DE:0C0A  HL:00BE  AF:6A12  SP:0474  PC:02CA   
02CB  C2 C9 02  JNZ 02C9    (1)  BC:4234  DE:0C0A  HL:00BE  AF:6A16  SP:0474  PC:02CB   
02C9  23        INX H       (1)  BC:4234  DE:0C0A  HL:00BE  AF:6A16  SP:0474  PC:02C9   
02CA  05        DCR B       (1)  BC:4234  DE:0C0A  HL:00BF  AF:6A16  SP:0474  PC:02CA   
02CB  C2 C9 02  JNZ 02C9    (1)  BC:4134  DE:0C0A  HL:00BF  AF:6A16  SP:0474  PC:02CB   
02C9  23        INX H       (1)  BC:4134  DE:0C0A  HL:00BF  AF:6A16  SP:0474  PC:02C9   
02CA  05        DCR B       (1)  BC:4134  DE:0C0A  HL:00C0  AF:6A16  SP:0474  PC:02CA   
02CB  C2 C9 02  JNZ 02C9    (1)  BC:4034  DE:0C0A  HL:00C0  AF:6A12  SP:0474  PC:02CB   
02C9  23        INX H       (1)  BC:4034  DE:0C0A  HL:00C0  AF:6A12  SP:0474  PC:02C9   
02CA  05        DCR B       (1)  BC:4034  DE:0C0A  HL:00C1  AF:6A12  SP:0474  PC:02CA   
02CB  C2 C9 02  JNZ 02C9    (1)  BC:3F34  DE:0C0A  HL:00C1  AF:6A06  SP:0474  PC:02CB   
02C9  23        INX H       (1)  BC:3F34  DE:0C0A  HL:00C1  AF:6A06  SP:0474  PC:02C9   
02CA  05        DCR B       (1)  BC:3F34  DE:0C0A  HL:00C2  AF:6A06  SP:0474  PC:02CA   
02CB  C2 C9 02  JNZ 02C9    (1)  BC:3E34  DE:0C0A  HL:00C2  AF:6A12  SP:0474  PC:02CB   
02C9  23        INX H       (1)  BC:3E34  DE:0C0A  HL:00C2  AF:6A12  SP:0474  PC:02C9   
02CA  05        DCR B       (1)  BC:3E34  DE:0C0A  HL:00C3  AF:6A12  SP:0474  PC:02CA   
02CB  C2 C9 02  JNZ 02C9    (1)  BC:3D34  DE:0C0A  HL:00C3  AF:6A12  SP:0474  PC:02CB   
02C9  23        INX H       (1)  BC:3D34  DE:0C0A  HL:00C3  AF:6A12  SP:0474  PC:02C9   
02CA  05        DCR B       (1)  BC:3D34  DE:0C0A  HL:00C4  AF:6A12  SP:0474  PC:02CA   
02CB  C2 C9 02  JNZ 02C9    (1)  BC:3C34  DE:0C0A  HL:00C4  AF:6A16  SP:0474  PC:02CB   
02C9  23        INX H       (1)  BC:3C34  DE:0C0A  HL:00C4  AF:6A16  SP:0474  PC:02C9   
02CA  05        DCR B       (1)  BC:3C34  DE:0C0A  HL:00C5  AF:6A16  SP:0474  PC:02CA   
02CB  C2 C9 02  JNZ 02C9    (1)  BC:3B34  DE:0C0A  HL:00C5  AF:6A12  SP:0474  PC:02CB   
02C9  23        INX H       (1)  BC:3B34  DE:0C0A  HL:00C5  AF:6A12  SP:0474  PC:02C9   
02CA  05        DCR B       (1)  BC:3B34  DE:0C0A  HL:00C6  AF:6A12  SP:0474  PC:02CA   
02CB  C2 C9 02  JNZ 02C9    (1)  BC:3A34  DE:0C0A  HL:00C6  AF:6A16  SP:0474  PC:02CB   
02C9  23        INX H       (1)  BC:3A34  DE:0C0A  HL:00C6  AF:6A16  SP:0474  PC:02C9   
02CA  05        DCR B       (1)  BC:3A34  DE:0C0A  HL:00C7  AF:6A16  SP:0474  PC:02CA   
02CB  C2 C9 02  JNZ 02C9    (1)  BC:3934  DE:0C0A  HL:00C7  AF:6A16  SP:0474  PC:02CB   
02C9  23        INX H       (1)  BC:3934  DE:0C0A  HL:00C7  AF:6A16  SP:0474  PC:02C9   
02CA  05        DCR B       (1)  BC:3934  DE:0C0A  HL:00C8  AF:6A16  SP:0474  PC:02CA   
02CB  C2 C9 02  JNZ 02C9    (1)  BC:3834  DE:0C0A  HL:00C8  AF:6A12  SP:0474  PC:02CB   
02C9  23        INX H       (1)  BC:3834  DE:0C0A  HL:00C8  AF:6A12  SP:0474  PC:02C9   
02CA  05        DCR B       (1)  BC:3834  DE:0C0A  HL:00C9  AF:6A12  SP:0474  PC:02CA   
02CB  C2 C9 02  JNZ 02C9    (1)  BC:3734  DE:0C0A  HL:00C9  AF:6A12  SP:0474  PC:02CB   
02C9  23        INX H       (1)  BC:3734  DE:0C0A  HL:00C9  AF:6A12  SP:0474  PC:02C9   
02CA  05        DCR B       (1)  BC:3734  DE:0C0A  HL:00CA  AF:6A12  SP:0474  PC:02CA   
02CB  C2 C9 02  JNZ 02C9    (1)  BC:3634  DE:0C0A  HL:00CA  AF:6A16  SP:0474  PC:02CB   
02C9  23        INX H       (1)  BC:3634  DE:0C0A  HL:00CA  AF:6A16  SP:0474  PC:02C9   
02CA  05        DCR B       (1)  BC:3634  DE:0C0A  HL:00CB  AF:6A16  SP:0474  PC:02CA   
02CB  C2 C9 02  JNZ 02C9    (1)  BC:3534  DE:0C0A  HL:00CB  AF:6A16  SP:0474  PC:02CB   
02C9  23        INX H       (1)  BC:3534  DE:0C0A  HL:00CB  AF:6A16  SP:0474  PC:02C9   
02CA  05        DCR B       (1)  BC:3534  DE:0C0A  HL:00CC  AF:6A16  SP:0474  PC:02CA   
02CB  C2 C9 02  JNZ 02C9    (1)  BC:3434  DE:0C0A  HL:00CC  AF:6A12  SP:0474  PC:02CB   
02C9  23        INX H       (1)  BC:3434  DE:0C0A  HL:00CC  AF:6A12  SP:0474  PC:02C9   
02CA  05        DCR B       (1)  BC:3434  DE:0C0A  HL:00CD  AF:6A12  SP:0474  PC:02CA   
02CB  C2 C9 02  JNZ 02C9    (1)  BC:3334  DE:0C0A  HL:00CD  AF:6A16  SP:0474  PC:02CB   
02C9  23        INX H       (1)  BC:3334  DE:0C0A  HL:00CD  AF:6A16  SP:0474  PC:02C9   
02CA  05        DCR B       (1)  BC:3334  DE:0C0A  HL:00CE  AF:6A16  SP:0474  PC:02CA   
02CB  C2 C9 02  JNZ 02C9    (1)  BC:3234  DE:0C0A  HL:00CE  AF:6A12  SP:0474  PC:02CB   
02C9  23        INX H       (1)  BC:3234  DE:0C0A  HL:00CE  AF:6A12  SP:0474  PC:02C9   
02CA  05        DCR B       (1)  BC:3234  DE:0C0A  HL:00CF  AF:6A12  SP:0474  PC:02CA   
02CB  C2 C9 02  JNZ 02C9    (1)  BC:3134  DE:0C0A  HL:00CF  AF:6A12  SP:0474  PC:02CB   
02C9  23        INX H       (1)  BC:3134  DE:0C0A  HL:00CF  AF:6A12  SP:0474  PC:02C9   
02CA  05        DCR B       (1)  BC:3134  DE:0C0A  HL:00D0  AF:6A12  SP:0474  PC:02CA   
02CB  C2 C9 02  JNZ 02C9    (1)  BC:3034  DE:0C0A  HL:00D0  AF:6A16  SP:0474  PC:02CB   
02C9  23        INX H       (1)  BC:3034  DE:0C0A  HL:00D0  AF:6A16  SP:0474  PC:02C9   
02CA  05        DCR B       (1)  BC:3034  DE:0C0A  HL:00D1  AF:6A16  SP:0474  PC:02CA   
02CB  C2 C9 02  JNZ 02C9    (1)  BC:2F34  DE:0C0A  HL:00D1  AF:6A02  SP:0474  PC:02CB   
02C9  23        INX H       (1)  BC:2F34  DE:0C0A  HL:00D1  AF:6A02  SP:0474  PC:02C9   
02CA  05        DCR B       (1)  BC:2F34  DE:0C0A  HL:00D2  AF:6A02  SP:0474  PC:02CA   
02CB  C2 C9 02  JNZ 02C9    (1)  BC:2E34  DE:0C0A  HL:00D2  AF:6A16  SP:0474  PC:02CB   
02C9  23        INX H       (1)  BC:2E34  DE:0C0A  HL:00D2  AF:6A16  SP:0474  PC:02C9   
02CA  05        DCR B       (1)  BC:2E34  DE:0C0A  HL:00D3  AF:6A16  SP:0474  PC:02CA   
02CB  C2 C9 02  JNZ 02C9    (1)  BC:2D34  DE:0C0A  HL:00D3  AF:6A16  SP:0474  PC:02CB   
02C9  23        INX H       (1)  BC:2D34  DE:0C0A  HL:00D3  AF:6A16  SP:0474  PC:02C9   
02CA  05        DCR B       (1)  BC:2D34  DE:0C0A  HL:00D4  AF:6A16  SP:0474  PC:02CA   
02CB  C2 C9 02  JNZ 02C9    (1)  BC:2C34  DE:0C0A  HL:00D4  AF:6A12  SP:0474  PC:02CB   
02C9  23        INX H       (1)  BC:2C34  DE:0C0A  HL:00D4  AF:6A12  SP:0474  PC:02C9   
02CA  05        DCR B       (1)  BC:2C34  DE:0C0A  HL:00D5  AF:6A12  SP:0474  PC:02CA   
02CB  C2 C9 02  JNZ 02C9    (1)  BC:2B34  DE:0C0A  HL:00D5  AF:6A16  SP:0474  PC:02CB   
02C9  23        INX H       (1)  BC:2B34  DE:0C0A  HL:00D5  AF:6A16  SP:0474  PC:02C9   
02CA  05        DCR B       (1)  BC:2B34  DE:0C0A  HL:00D6  AF:6A16  SP:0474  PC:02CA   
02CB  C2 C9 02  JNZ 02C9    (1)  BC:2A34  DE:0C0A  HL:00D6  AF:6A12  SP:0474  PC:02CB   
02C9  23        INX H       (1)  BC:2A34  DE:0C0A  HL:00D6  AF:6A12  SP:0474  PC:02C9   
02CA  05        DCR B       (1)  BC:2A34  DE:0C0A  HL:00D7  AF:6A12  SP:0474  PC:02CA   
02CB  C2 C9 02  JNZ 02C9    (1)  BC:2934  DE:0C0A  HL:00D7  AF:6A12  SP:0474  PC:02CB   
02C9  23        INX H       (1)  BC:2934  DE:0C0A  HL:00D7  AF:6A12  SP:0474  PC:02C9   
02CA  05        DCR B       (1)  BC:2934  DE:0C0A  HL:00D8  AF:6A12  SP:0474  PC:02CA   
02CB  C2 C9 02  JNZ 02C9    (1)  BC:2834  DE:0C0A  HL:00D8  AF:6A16  SP:0474  PC:02CB   
02C9  23        INX H       (1)  BC:2834  DE:0C0A  HL:00D8  AF:6A16  SP:0474  PC:02C9   
02CA  05        DCR B       (1)  BC:2834  DE:0C0A  HL:00D9  AF:6A16  SP:0474  PC:02CA   
02CB  C2 C9 02  JNZ 02C9    (1)  BC:2734  DE:0C0A  HL:00D9  AF:6A16  SP:0474  PC:02CB   
02C9  23        INX H       (1)  BC:2734  DE:0C0A  HL:00D9  AF:6A16  SP:0474  PC:02C9   
02CA  05        DCR B       (1)  BC:2734  DE:0C0A  HL:00DA  AF:6A16  SP:0474  PC:02CA   
02CB  C2 C9 02  JNZ 02C9    (1)  BC:2634  DE:0C0A  HL:00DA  AF:6A12  SP:0474  PC:02CB   
02C9  23        INX H       (1)  BC:2634  DE:0C0A  HL:00DA  AF:6A12  SP:0474  PC:02C9   
02CA  05        DCR B       (1)  BC:2634  DE:0C0A  HL:00DB  AF:6A12  SP:0474  PC:02CA   
02CB  C2 C9 02  JNZ 02C9    (1)  BC:2534  DE:0C0A  HL:00DB  AF:6A12  SP:0474  PC:02CB   
02C9  23        INX H       (1)  BC:2534  DE:0C0A  HL:00DB  AF:6A12  SP:0474  PC:02C9   
02CA  05        DCR B       (1)  BC:2534  DE:0C0A  HL:00DC  AF:6A12  SP:0474  PC:02CA   
02CB  C2 C9 02  JNZ 02C9    (1)  BC:2434  DE:0C0A  HL:00DC  AF:6A16  SP:0474  PC:02CB   
02C9  23        INX H       (1)  BC:2434  DE:0C0A  HL:00DC  AF:6A16  SP:0474  PC:02C9   
02CA  05        DCR B       (1)  BC:2434  DE:0C0A  HL:00DD  AF:6A16  SP:0474  PC:02CA   
02CB  C2 C9 02  JNZ 02C9    (1)  BC:2334  DE:0C0A  HL:00DD  AF:6A12  SP:0474  PC:02CB   
02C9  23        INX H       (1)  BC:2334  DE:0C0A  HL:00DD  AF:6A12  SP:0474  PC:02C9   
02CA  05        DCR B       (1)  BC:2334  DE:0C0A  HL:00DE  AF:6A12  SP:0474  PC:02CA   
02CB  C2 C9 02  JNZ 02C9    (1)  BC:2234  DE:0C0A  HL:00DE  AF:6A16  SP:0474  PC:02CB   
02C9  23        INX H       (1)  BC:2234  DE:0C0A  HL:00DE  AF:6A16  SP:0474  PC:02C9   
02CA  05        DCR B       (1)  BC:2234  DE:0C0A  HL:00DF  AF:6A16  SP:0474  PC:02CA   
02CB  C2 C9 02  JNZ 02C9    (1)  BC:2134  DE:0C0A  HL:00DF  AF:6A16  SP:0474  PC:02CB   
02C9  23        INX H       (1)  BC:2134  DE:0C0A  HL:00DF  AF:6A16  SP:0474  PC:02C9   
02CA  05        DCR B       (1)  BC:2134  DE:0C0A  HL:00E0  AF:6A16  SP:0474  PC:02CA   
02CB  C2 C9 02  JNZ 02C9    (1)  BC:2034  DE:0C0A  HL:00E0  AF:6A12  SP:0474  PC:02CB   
02C9  23        INX H       (1)  BC:2034  DE:0C0A  HL:00E0  AF:6A12  SP:0474  PC:02C9   
02CA  05        DCR B       (1)  BC:2034  DE:0C0A  HL:00E1  AF:6A12  SP:0474  PC:02CA   
02CB  C2 C9 02  JNZ 02C9    (1)  BC:1F34  DE:0C0A  HL:00E1  AF:6A02  SP:0474  PC:02CB   
02C9  23        INX H       (1)  BC:1F34  DE:0C0A  HL:00E1  AF:6A02  SP:0474  PC:02C9   
02CA  05        DCR B       (1)  BC:1F34  DE:0C0A  HL:00E2  AF:6A02  SP:0474  PC:02CA   
02CB  C2 C9 02  JNZ 02C9    (1)  BC:1E34  DE:0C0A  HL:00E2  AF:6A16  SP:0474  PC:02CB   
02C9  23        INX H       (1)  BC:1E34  DE:0C0A  HL:00E2  AF:6A16  SP:0474  PC:02C9   
02CA  05        DCR B       (1)  BC:1E34  DE:0C0A  HL:00E3  AF:6A16  SP:0474  PC:02CA   
02CB  C2 C9 02  JNZ 02C9    (1)  BC:1D34  DE:0C0A  HL:00E3  AF:6A16  SP:0474  PC:02CB   
02C9  23        INX H       (1)  BC:1D34  DE:0C0A  HL:00E3  AF:6A16  SP:0474  PC:02C9   
02CA  05        DCR B       (1)  BC:1D34  DE:0C0A  HL:00E4  AF:6A16  SP:0474  PC:02CA   
02CB  C2 C9 02  JNZ 02C9    (1)  BC:1C34  DE:0C0A  HL:00E4  AF:6A12  SP:0474  PC:02CB   
02C9  23        INX H       (1)  BC:1C34  DE:0C0A  HL:00E4  AF:6A12  SP:0474  PC:02C9   
02CA  05        DCR B       (1)  BC:1C34  DE:0C0A  HL:00E5  AF:6A12  SP:0474  PC:02CA   
02CB  C2 C9 02  JNZ 02C9    (1)  BC:1B34  DE:0C0A  HL:00E5  AF:6A16  SP:0474  PC:02CB   
02C9  23        INX H       (1)  BC:1B34  DE:0C0A  HL:00E5  AF:6A16  SP:0474  PC:02C9   
02CA  05        DCR B       (1)  BC:1B34  DE:0C0A  HL:00E6  AF:6A16  SP:0474  PC:02CA   
02CB  C2 C9 02  JNZ 02C9    (1)  BC:1A34  DE:0C0A  HL:00E6  AF:6A12  SP:0474  PC:02CB   
02C9  23        INX H       (1)  BC:1A34  DE:0C0A  HL:00E6  AF:6A12  SP:0474  PC:02C9   
02CA  05        DCR B       (1)  BC:1A34  DE:0C0A  HL:00E7  AF:6A12  SP:0474  PC:02CA   
02CB  C2 C9 02  JNZ 02C9    (1)  BC:1934  DE:0C0A  HL:00E7  AF:6A12  SP:0474  PC:02CB   
02C9  23        INX H       (1)  BC:1934  DE:0C0A  HL:00E7  AF:6A12  SP:0474  PC:02C9   
02CA  05        DCR B       (1)  BC:1934  DE:0C0A  HL:00E8  AF:6A12  SP:0474  PC:02CA   
02CB  C2 C9 02  JNZ 02C9    (1)  BC:1834  DE:0C0A  HL:00E8  AF:6A16  SP:0474  PC:02CB   
02C9  23        INX H       (1)  BC:1834  DE:0C0A  HL:00E8  AF:6A16  SP:0474  PC:02C9   
02CA  05        DCR B       (1)  BC:1834  DE:0C0A  HL:00E9  AF:6A16  SP:0474  PC:02CA   
02CB  C2 C9 02  JNZ 02C9    (1)  BC:1734  DE:0C0A  HL:00E9  AF:6A16  SP:0474  PC:02CB   
02C9  23        INX H       (1)  BC:1734  DE:0C0A  HL:00E9  AF:6A16  SP:0474  PC:02C9   
02CA  05        DCR B       (1)  BC:1734  DE:0C0A  HL:00EA  AF:6A16  SP:0474  PC:02CA   
02CB  C2 C9 02  JNZ 02C9    (1)  BC:1634  DE:0C0A  HL:00EA  AF:6A12  SP:0474  PC:02CB   
02C9  23        INX H       (1)  BC:1634  DE:0C0A  HL:00EA  AF:6A12  SP:0474  PC:02C9   
02CA  05        DCR B       (1)  BC:1634  DE:0C0A  HL:00EB  AF:6A12  SP:0474  PC:02CA   
02CB  C2 C9 02  JNZ 02C9    (1)  BC:1534  DE:0C0A  HL:00EB  AF:6A12  SP:0474  PC:02CB   
02C9  23        INX H       (1)  BC:1534  DE:0C0A  HL:00EB  AF:6A12  SP:0474  PC:02C9   
02CA  05        DCR B       (1)  BC:1534  DE:0C0A  HL:00EC  AF:6A12  SP:0474  PC:02CA   
02CB  C2 C9 02  JNZ 02C9    (1)  BC:1434  DE:0C0A  HL:00EC  AF:6A16  SP:0474  PC:02CB   
02C9  23        INX H       (1)  BC:1434  DE:0C0A  HL:00EC  AF:6A16  SP:0474  PC:02C9   
02CA  05        DCR B       (1)  BC:1434  DE:0C0A  HL:00ED  AF:6A16  SP:0474  PC:02CA   
02CB  C2 C9 02  JNZ 02C9    (1)  BC:1334  DE:0C0A  HL:00ED  AF:6A12  SP:0474  PC:02CB   
02C9  23        INX H       (1)  BC:1334  DE:0C0A  HL:00ED  AF:6A12  SP:0474  PC:02C9   
02CA  05        DCR B       (1)  BC:1334  DE:0C0A  HL:00EE  AF:6A12  SP:0474  PC:02CA   
02CB  C2 C9 02  JNZ 02C9    (1)  BC:1234  DE:0C0A  HL:00EE  AF:6A16  SP:0474  PC:02CB   
02C9  23        INX H       (1)  BC:1234  DE:0C0A  HL:00EE  AF:6A16  SP:0474  PC:02C9   
02CA  05        DCR B       (1)  BC:1234  DE:0C0A  HL:00EF  AF:6A16  SP:0474  PC:02CA   
02CB  C2 C9 02  JNZ 02C9    (1)  BC:1134  DE:0C0A  HL:00EF  AF:6A16  SP:0474  PC:02CB   
02C9  23        INX H       (1)  BC:1134  DE:0C0A  HL:00EF  AF:6A16  SP:0474  PC:02C9   
02CA  05        DCR B       (1)  BC:1134  DE:0C0A  HL:00F0  AF:6A16  SP:0474  PC:02CA   
02CB  C2 C9 02  JNZ 02C9    (1)  BC:1034  DE:0C0A  HL:00F0  AF:6A12  SP:0474  PC:02CB   
02C9  23        INX H       (1)  BC:1034  DE:0C0A  HL:00F0  AF:6A12  SP:0474  PC:02C9   
02CA  05        DCR B       (1)  BC:1034  DE:0C0A  HL:00F1  AF:6A12  SP:0474  PC:02CA   
02CB  C2 C9 02  JNZ 02C9    (1)  BC:0F34  DE:0C0A  HL:00F1  AF:6A06  SP:0474  PC:02CB   
02C9  23        INX H       (1)  BC:0F34  DE:0C0A  HL:00F1  AF:6A06  SP:0474  PC:02C9   
02CA  05        DCR B       (1)  BC:0F34  DE:0C0A  HL:00F2  AF:6A06  SP:0474  PC:02CA   
02CB  C2 C9 02  JNZ 02C9    (1)  BC:0E34  DE:0C0A  HL:00F2  AF:6A12  SP:0474  PC:02CB   
02C9  23        INX H       (1)  BC:0E34  DE:0C0A  HL:00F2  AF:6A12  SP:0474  PC:02C9   
02CA  05        DCR B       (1)  BC:0E34  DE:0C0A  HL:00F3  AF:6A12  SP:0474  PC:02CA   
02CB  C2 C9 02  JNZ 02C9    (1)  BC:0D34  DE:0C0A  HL:00F3  AF:6A12  SP:0474  PC:02CB   
02C9  23        INX H       (1)  BC:0D34  DE:0C0A  HL:00F3  AF:6A12  SP:0474  PC:02C9   
02CA  05        DCR B       (1)  BC:0D34  DE:0C0A  HL:00F4  AF:6A12  SP:0474  PC:02CA   
02CB  C2 C9 02  JNZ 02C9    (1)  BC:0C34  DE:0C0A  HL:00F4  AF:6A16  SP:0474  PC:02CB   
02C9  23        INX H       (1)  BC:0C34  DE:0C0A  HL:00F4  AF:6A16  SP:0474  PC:02C9   
02CA  05        DCR B       (1)  BC:0C34  DE:0C0A  HL:00F5  AF:6A16  SP:0474  PC:02CA   
02CB  C2 C9 02  JNZ 02C9    (1)  BC:0B34  DE:0C0A  HL:00F5  AF:6A12  SP:0474  PC:02CB   
02C9  23        INX H       (1)  BC:0B34  DE:0C0A  HL:00F5  AF:6A12  SP:0474  PC:02C9   
02CA  05        DCR B       (1)  BC:0B34  DE:0C0A  HL:00F6  AF:6A12  SP:0474  PC:02CA   
02CB  C2 C9 02  JNZ 02C9    (1)  BC:0A34  DE:0C0A  HL:00F6  AF:6A16  SP:0474  PC:02CB   
02C9  23        INX H       (1)  BC:0A34  DE:0C0A  HL:00F6  AF:6A16  SP:0474  PC:02C9   
02CA  05        DCR B       (1)  BC:0A34  DE:0C0A  HL:00F7  AF:6A16  SP:0474  PC:02CA   
02CB  C2 C9 02  JNZ 02C9    (1)  BC:0934  DE:0C0A  HL:00F7  AF:6A16  SP:0474  PC:02CB   
02C9  23        INX H       (1)  BC:0934  DE:0C0A  HL:00F7  AF:6A16  SP:0474  PC:02C9   
02CA  05        DCR B       (1)  BC:0934  DE:0C0A  HL:00F8  AF:6A16  SP:0474  PC:02CA   
02CB  C2 C9 02  JNZ 02C9    (1)  BC:0834  DE:0C0A  HL:00F8  AF:6A12  SP:0474  PC:02CB   
02C9  23        INX H       (1)  BC:0834  DE:0C0A  HL:00F8  AF:6A12  SP:0474  PC:02C9   
02CA  05        DCR B       (1)  BC:0834  DE:0C0A  HL:00F9  AF:6A12  SP:0474  PC:02CA   
02CB  C2 C9 02  JNZ 02C9    (1)  BC:0734  DE:0C0A  HL:00F9  AF:6A12  SP:0474  PC:02CB   
02C9  23        INX H       (1)  BC:0734  DE:0C0A  HL:00F9  AF:6A12  SP:0474  PC:02C9   
02CA  05        DCR B       (1)  BC:0734  DE:0C0A  HL:00FA  AF:6A12  SP:0474  PC:02CA   
02CB  C2 C9 02  JNZ 02C9    (1)  BC:0634  DE:0C0A  HL:00FA  AF:6A16  SP:0474  PC:02CB   
02C9  23        INX H       (1)  BC:0634  DE:0C0A  HL:00FA  AF:6A16  SP:0474  PC:02C9   
02CA  05        DCR B       (1)  BC:0634  DE:0C0A  HL:00FB  AF:6A16  SP:0474  PC:02CA   
02CB  C2 C9 02  JNZ 02C9    (1)  BC:0534  DE:0C0A  HL:00FB  AF:6A16  SP:0474  PC:02CB   
02C9  23        INX H       (1)  BC:0534  DE:0C0A  HL:00FB  AF:6A16  SP:0474  PC:02C9   
02CA  05        DCR B       (1)  BC:0534  DE:0C0A  HL:00FC  AF:6A16  SP:0474  PC:02CA   
02CB  C2 C9 02  JNZ 02C9    (1)  BC:0434  DE:0C0A  HL:00FC  AF:6A12  SP:0474  PC:02CB   
02C9  23        INX H       (1)  BC:0434  DE:0C0A  HL:00FC  AF:6A12  SP:0474  PC:02C9   
02CA  05        DCR B       (1)  BC:0434  DE:0C0A  HL:00FD  AF:6A12  SP:0474  PC:02CA   
02CB  C2 C9 02  JNZ 02C9    (1)  BC:0334  DE:0C0A  HL:00FD  AF:6A16  SP:0474  PC:02CB   
02C9  23        INX H       (1)  BC:0334  DE:0C0A  HL:00FD  AF:6A16  SP:0474  PC:02C9   
02CA  05        DCR B       (1)  BC:0334  DE:0C0A  HL:00FE  AF:6A16  SP:0474  PC:02CA   
02CB  C2 C9 02  JNZ 02C9    (1)  BC:0234  DE:0C0A  HL:00FE  AF:6A12  SP:0474  PC:02CB   
02C9  23        INX H       (1)  BC:0234  DE:0C0A  HL:00FE  AF:6A12  SP:0474  PC:02C9   
02CA  05        DCR B       (1)  BC:0234  DE:0C0A  HL:00FF  AF:6A12  SP:0474  PC:02CA   
02CB  C2 C9 02  JNZ 02C9    (1)  BC:0134  DE:0C0A  HL:00FF  AF:6A12  SP:0474  PC:02CB   
02C9  23        INX H       (1)  BC:0134  DE:0C0A  HL:00FF  AF:6A12  SP:0474  PC:02C9   
02CA  05        DCR B       (1)  BC:0134  DE:0C0A  HL:0100  AF:6A12  SP:0474  PC:02CA   
02CB  C2 C9 02  JNZ 02C9    (1)  BC:0034  DE:0C0A  HL:0100  AF:6A56  SP:0474  PC:02CB   
02CE  7C        MOV A,H     (1)  BC:0034  DE:0C0A  HL:0100  AF:6A56  SP:0474  PC:02CE   
02CF  FE 01     CPI 01      (1)  BC:0034  DE:0C0A  HL:0100  AF:0156  SP:0474  PC:02CF   
02D1  C4 15 03  CNZ 0315    (1)  BC:0034  DE:0C0A  HL:0100  AF:0146  SP:0474  PC:02D1   
02D4  7D        MOV A,L     (1)  BC:0034  DE:0C0A  HL:0100  AF:0146  SP:0474  PC:02D4   
02D5  FE 00     CPI 00      (1)  BC:0034  DE:0C0A  HL:0100  AF:0046  SP:0474  PC:02D5   
02D7  C4 15 03  CNZ 0315    (1)  BC:0034  DE:0C0A  HL:0100  AF:0046  SP:0474  PC:02D7   
02DA  21 E3 02  LXI H,02E3  (1)  BC:0034  DE:0C0A  HL:0100  AF:0046  SP:0474  PC:02DA   
02DD  CD 50 00  CALL 0050   (1)  BC:0034  DE:0C0A  HL:02E3  AF:0046  SP:0474  PC:02DD   
0050  C5        PUSH B      (2)  BC:0034  DE:0C0A  HL:02E3  AF:0046  SP:0472  PC:0050   
0051  D5        PUSH D      (2)  BC:0034  DE:0C0A  HL:02E3  AF:0046  SP:0470  PC:0051   
0052  E5        PUSH H      (2)  BC:0034  DE:0C0A  HL:02E3  AF:0046  SP:046E  PC:0052   
0053  F5        PUSH PSW    (2)  BC:0034  DE:0C0A  HL:02E3  AF:0046  SP:046C  PC:0053   
0054  7E        MOV A,M     (2)  BC:0034  DE:0C0A  HL:02E3  AF:0046  SP:046A  PC:0054   
0055  FE 24     CPI 24      (2)  BC:0034  DE:0C0A  HL:02E3  AF:0D46  SP:046A  PC:0055   
0057  CA 62 00  JZ 0062     (2)  BC:0034  DE:0C0A  HL:02E3  AF:0D83  SP:046A  PC:0057   
005A  7E        MOV A,M     (2)  BC:0034  DE:0C0A  HL:02E3  AF:0D83  SP:046A  PC:005A   
005B  CD 67 00  CALL 0067   (2)  BC:0034  DE:0C0A  HL:02E3  AF:0D83  SP:046A  PC:005B   
005E  23        INX H       (2)  BC:0034  DE:0C0A  HL:02E3  AF:0D83  SP:046A  PC:005E   
005F  C3 54 00  JMP 0054    (2)  BC:0034  DE:0C0A  HL:02E4  AF:0D83  SP:046A  PC:005F   
0054  7E        MOV A,M     (2)  BC:0034  DE:0C0A  HL:02E4  AF:0D83  SP:046A  PC:0054   
0055  FE 24     CPI 24      (2)  BC:0034  DE:0C0A  HL:02E4  AF:0A83  SP:046A  PC:0055   
0057  CA 62 00  JZ 0062     (2)  BC:0034  DE:0C0A  HL:02E4  AF:0A83  SP:046A  PC:0057   
005A  7E        MOV A,M     (2)  BC:0034  DE:0C0A  HL:02E4  AF:0A83  SP:046A  PC:005A   
005B  CD 67 00  CALL 0067   (2)  BC:0034  DE:0C0A  HL:02E4  AF:0A83  SP:046A  PC:005B   
005E  23        INX H       (2)  BC:0034  DE:0C0A  HL:02E4  AF:0A83  SP:046A  PC:005E   
005F  C3 54 00  JMP 0054    (2)  BC:0034  DE:0C0A  HL:02E5  AF:0A83  SP:046A  PC:005F   
0054  7E        MOV A,M     (2)  BC:0034  DE:0C0A  HL:02E5  AF:0A83  SP:046A  PC:0054   
0055  FE 24     CPI 24      (2)  BC:0034  DE:0C0A  HL:02E5  AF:5483  SP:046A  PC:0055   
0057  CA 62 00  JZ 0062     (2)  BC:0034  DE:0C0A  HL:02E5  AF:5406  SP:046A  PC:0057   
005A  7E        MOV A,M     (2)  BC:0034  DE:0C0A  HL:02E5  AF:5406  SP:046A  PC:005A   
005B  CD 67 00  CALL 0067   (2)  BC:0034  DE:0C0A  HL:02E5  AF:5406  SP:046A  PC:005B   
005E  23        INX H       (2)  BC:0034  DE:0C0A  HL:02E5  AF:5406  SP:046A  PC:005E   
005F  C3 54 00  JMP 0054    (2)  BC:0034  DE:0C0A  HL:02E6  AF:5406  SP:046A  PC:005F   
0054  7E        MOV A,M     (2)  BC:0034  DE:0C0A  HL:02E6  AF:5406  SP:046A  PC:0054   
0055  FE 24     CPI 24      (2)  BC:0034  DE:0C0A  HL:02E6  AF:4506  SP:046A  PC:0055   
0057  CA 62 00  JZ 0062     (2)  BC:0034  DE:0C0A  HL:02E6  AF:4506  SP:046A  PC:0057   
005A  7E        MOV A,M     (2)  BC:0034  DE:0C0A  HL:02E6  AF:4506  SP:046A  PC:005A   
005B  CD 67 00  CALL 0067   (2)  BC:0034  DE:0C0A  HL:02E6  AF:4506  SP:046A  PC:005B   
005E  23        INX H       (2)  BC:0034  DE:0C0A  HL:02E6  AF:4506  SP:046A  PC:005E   
005F  C3 54 00  JMP 0054    (2)  BC:0034  DE:0C0A  HL:02E7  AF:4506  SP:046A  PC:005F   
0054  7E        MOV A,M     (2)  BC:0034  DE:0C0A  HL:02E7  AF:4506  SP:046A  PC:0054   
0055  FE 24     CPI 24      (2)  BC:0034  DE:0C0A  HL:02E7  AF:5306  SP:046A  PC:0055   
0057  CA 62 00  JZ 0062     (2)  BC:0034  DE:0C0A  HL:02E7  AF:5312  SP:046A  PC:0057   
005A  7E        MOV A,M     (2)  BC:0034  DE:0C0A  HL:02E7  AF:5312  SP:046A  PC:005A   
005B  CD 67 00  CALL 0067   (2)  BC:0034  DE:0C0A  HL:02E7  AF:5312  SP:046A  PC:005B   
005E  23        INX H       (2)  BC:0034  DE:0C0A  HL:02E7  AF:5312  SP:046A  PC:005E   
005F  C3 54 00  JMP 0054    (2)  BC:0034  DE:0C0A  HL:02E8  AF:5312  SP:046A  PC:005F   
0054  7E        MOV A,M     (2)  BC:0034  DE:0C0A  HL:02E8  AF:5312  SP:046A  PC:0054   
0055  FE 24     CPI 24      (2)  BC:0034  DE:0C0A  HL:02E8  AF:5412  SP:046A  PC:0055   
0057  CA 62 00  JZ 0062     (2)  BC:0034  DE:0C0A  HL:02E8  AF:5406  SP:046A  PC:0057   
005A  7E        MOV A,M     (2)  BC:0034  DE:0C0A  HL:02E8  AF:5406  SP:046A  PC:005A   
005B  CD 67 00  CALL 0067   (2)  BC:0034  DE:0C0A  HL:02E8  AF:5406  SP:046A  PC:005B   
005E  23        INX H       (2)  BC:0034  DE:0C0A  HL:02E8  AF:5406  SP:046A  PC:005E   
005F  C3 54 00  JMP 0054    (2)  BC:0034  DE:0C0A  HL:02E9  AF:5406  SP:046A  PC:005F   
0054  7E        MOV A,M     (2)  BC:0034  DE:0C0A  HL:02E9  AF:5406  SP:046A  PC:0054   
0055  FE 24     CPI 24      (2)  BC:0034  DE:0C0A  HL:02E9  AF:5306  SP:046A  PC:0055   
0057  CA 62 00  JZ 0062     (2)  BC:0034  DE:0C0A  HL:02E9  AF:5312  SP:046A  PC:0057   
005A  7E        MOV A,M     (2)  BC:0034  DE:0C0A  HL:02E9  AF:5312  SP:046A  PC:005A   
005B  CD 67 00  CALL 0067   (2)  BC:0034  DE:0C0A  HL:02E9  AF:5312  SP:046A  PC:005B   
005E  23        INX H       (2)  BC:0034  DE:0C0A  HL:02E9  AF:5312  SP:046A  PC:005E   
005F  C3 54 00  JMP 0054    (2)  BC:0034  DE:0C0A  HL:02EA  AF:5312  SP:046A  PC:005F   
0054  7E        MOV A,M     (2)  BC:0034  DE:0C0A  HL:02EA  AF:5312  SP:046A  PC:0054   
0055  FE 24     CPI 24      (2)  BC:0034  DE:0C0A  HL:02EA  AF:2012  SP:046A  PC:0055   
0057  CA 62 00  JZ 0062     (2)  BC:0034  DE:0C0A  HL:02EA  AF:2097  SP:046A  PC:0057   
005A  7E        MOV A,M     (2)  BC:0034  DE:0C0A  HL:02EA  AF:2097  SP:046A  PC:005A   
005B  CD 67 00  CALL 0067   (2)  BC:0034  DE:0C0A  HL:02EA  AF:2097  SP:046A  PC:005B   
005E  23        INX H       (2)  BC:0034  DE:0C0A  HL:02EA  AF:2097  SP:046A  PC:005E   
005F  C3 54 00  JMP 0054    (2)  BC:0034  DE:0C0A  HL:02EB  AF:2097  SP:046A  PC:005F   
0054  7E        MOV A,M     (2)  BC:0034  DE:0C0A  HL:02EB  AF:2097  SP:046A  PC:0054   
0055  FE 24     CPI 24      (2)  BC:0034  DE:0C0A  HL:02EB  AF:5397  SP:046A  PC:0055   
0057  CA 62 00  JZ 0062     (2)  BC:0034  DE:0C0A  HL:02EB  AF:5312  SP:046A  PC:0057   
005A  7E        MOV A,M     (2)  BC:0034  DE:0C0A  HL:02EB  AF:5312  SP:046A  PC:005A   
005B  CD 67 00  CALL 0067   (2)  BC:0034  DE:0C0A  HL:02EB  AF:5312  SP:046A  PC:005B   
005E  23        INX H       (2)  BC:0034  DE:0C0A  HL:02EB  AF:5312  SP:046A  PC:005E   
005F  C3 54 00  JMP 0054    (2)  BC:0034  DE:0C0A  HL:02EC  AF:5312  SP:046A  PC:005F   
0054  7E        MOV A,M     (2)  BC:0034  DE:0C0A  HL:02EC  AF:5312  SP:046A  PC:0054   
0055  FE 24     CPI 24      (2)  BC:0034  DE:0C0A  HL:02EC  AF:5512  SP:046A  PC:0055   
0057  CA 62 00  JZ 0062     (2)  BC:0034  DE:0C0A  HL:02EC  AF:5502  SP:046A  PC:0057   
005A  7E        MOV A,M     (2)  BC:0034  DE:0C0A  HL:02EC  AF:5502  SP:046A  PC:005A   
005B  CD 67 00  CALL 0067   (2)  BC:0034  DE:0C0A  HL:02EC  AF:5502  SP:046A  PC:005B   
005E  23        INX H       (2)  BC:0034  DE:0C0A  HL:02EC  AF:5502  SP:046A  PC:005E   
005F  C3 54 00  JMP 0054    (2)  BC:0034  DE:0C0A  HL:02ED  AF:5502  SP:046A  PC:005F   
0054  7E        MOV A,M     (2)  BC:0034  DE:0C0A  HL:02ED  AF:5502  SP:046A  PC:0054   
0055  FE 24     CPI 24      (2)  BC:0034  DE:0C0A  HL:02ED  AF:4302  SP:046A  PC:0055   
0057  CA 62 00  JZ 0062     (2)  BC:0034  DE:0C0A  HL:02ED  AF:4312  SP:046A  PC:0057   
005A  7E        MOV A,M     (2)  BC:0034  DE:0C0A  HL:02ED  AF:4312  SP:046A  PC:005A   
005B  CD 67 00  CALL 0067   (2)  BC:0034  DE:0C0A  HL:02ED  AF:4312  SP:046A  PC:005B   
005E  23        INX H       (2)  BC:0034  DE:0C0A  HL:02ED  AF:4312  SP:046A  PC:005E   
005F  C3 54 00  JMP 0054    (2)  BC:0034  DE:0C0A  HL:02EE  AF:4312  SP:046A  PC:005F   
0054  7E        MOV A,M     (2)  BC:0034  DE:0C0A  HL:02EE  AF:4312  SP:046A  PC:0054   
0055  FE 24     CPI 24      (2)  BC:0034  DE:0C0A  HL:02EE  AF:4312  SP:046A  PC:0055   
0057  CA 62 00  JZ 0062     (2)  BC:0034  DE:0C0A  HL:02EE  AF:4312  SP:046A  PC:0057   
005A  7E        MOV A,M     (2)  BC:0034  DE:0C0A  HL:02EE  AF:4312  SP:046A  PC:005A   
005B  CD 67 00  CALL 0067   (2)  BC:0034  DE:0C0A  HL:02EE  AF:4312  SP:046A  PC:005B   
005E  23        INX H       (2)  BC:0034  DE:0C0A  HL:02EE  AF:4312  SP:046A  PC:005E   
005F  C3 54 00  JMP 0054    (2)  BC:0034  DE:0C0A  HL:02EF  AF:4312  SP:046A  PC:005F   
0054  7E        MOV A,M     (2)  BC:0034  DE:0C0A  HL:02EF  AF:4312  SP:046A  PC:0054   
0055  FE 24     CPI 24      (2)  BC:0034  DE:0C0A  HL:02EF  AF:4512  SP:046A  PC:0055   
0057  CA 62 00  JZ 0062     (2)  BC:0034  DE:0C0A  HL:02EF  AF:4506  SP:046A  PC:0057   
005A  7E        MOV A,M     (2)  BC:0034  DE:0C0A  HL:02EF  AF:4506  SP:046A  PC:005A   
005B  CD 67 00  CALL 0067   (2)  BC:0034  DE:0C0A  HL:02EF  AF:4506  SP:046A  PC:005B   
005E  23        INX H       (2)  BC:0034  DE:0C0A  HL:02EF  AF:4506  SP:046A  PC:005E   
005F  C3 54 00  JMP 0054    (2)  BC:0034  DE:0C0A  HL:02F0  AF:4506  SP:046A  PC:005F   
0054  7E        MOV A,M     (2)  BC:0034  DE:0C0A  HL:02F0  AF:4506  SP:046A  PC:0054   
0055  FE 24     CPI 24      (2)  BC:0034  DE:0C0A  HL:02F0  AF:5306  SP:046A  PC:0055   
0057  CA 62 00  JZ 0062     (2)  BC:0034  DE:0C0A  HL:02F0  AF:5312  SP:046A  PC:0057   
005A  7E        MOV A,M     (2)  BC:0034  DE:0C0A  HL:02F0  AF:5312  SP:046A  PC:005A   
005B  CD 67 00  CALL 0067   (2)  BC:0034  DE:0C0A  HL:02F0  AF:5312  SP:046A  PC:005B   
005E  23        INX H       (2)  BC:0034  DE:0C0A  HL:02F0  AF:5312  SP:046A  PC:005E   
005F  C3 54 00  JMP 0054    (2)  BC:0034  DE:0C0A  HL:02F1  AF:5312  SP:046A  PC:005F   
0054  7E        MOV A,M     (2)  BC:0034  DE:0C0A  HL:02F1  AF:5312  SP:046A  PC:0054   
0055  FE 24     CPI 24      (2)  BC:0034  DE:0C0A  HL:02F1  AF:5312  SP:046A  PC:0055   
0057  CA 62 00  JZ 0062     (2)  BC:0034  DE:0C0A  HL:02F1  AF:5312  SP:046A  PC:0057   
005A  7E        MOV A,M     (2)  BC:0034  DE:0C0A  HL:02F1  AF:5312  SP:046A  PC:005A   
005B  CD 67 00  CALL 0067   (2)  BC:0034  DE:0C0A  HL:02F1  AF:5312  SP:046A  PC:005B   
005E  23        INX H       (2)  BC:0034  DE:0C0A  HL:02F1  AF:5312  SP:046A  PC:005E   
005F  C3 54 00  JMP 0054    (2)  BC:0034  DE:0C0A  HL:02F2  AF:5312  SP:046A  PC:005F   
0054  7E        MOV A,M     (2)  BC:0034  DE:0C0A  HL:02F2  AF:5312  SP:046A  PC:0054   
0055  FE 24     CPI 24      (2)  BC:0034  DE:0C0A  HL:02F2  AF:4612  SP:046A  PC:0055   
0057  CA 62 00  JZ 0062     (2)  BC:0034  DE:0C0A  HL:02F2  AF:4606  SP:046A  PC:0057   
005A  7E        MOV A,M     (2)  BC:0034  DE:0C0A  HL:02F2  AF:4606  SP:046A  PC:005A   
005B  CD 67 00  CALL 0067   (2)  BC:0034  DE:0C0A  HL:02F2  AF:4606  SP:046A  PC:005B   
005E  23        INX H       (2)  BC:0034  DE:0C0A  HL:02F2  AF:4606  SP:046A  PC:005E   
005F  C3 54 00  JMP 0054    (2)  BC:0034  DE:0C0A  HL:02F3  AF:4606  SP:046A  PC:005F   
0054  7E        MOV A,M     (2)  BC:0034  DE:0C0A  HL:02F3  AF:4606  SP:046A  PC:0054   
0055  FE 24     CPI 24      (2)  BC:0034  DE:0C0A  HL:02F3  AF:5506  SP:046A  PC:0055   
0057  CA 62 00  JZ 0062     (2)  BC:0034  DE:0C0A  HL:02F3  AF:5502  SP:046A  PC:0057   
005A  7E        MOV A,M     (2)  BC:0034  DE:0C0A  HL:02F3  AF:5502  SP:046A  PC:005A   
005B  CD 67 00  CALL 0067   (2)  BC:0034  DE:0C0A  HL:02F3  AF:5502  SP:046A  PC:005B   
005E  23        INX H       (2)  BC:0034  DE:0C0A  HL:02F3  AF:5502  SP:046A  PC:005E   
005F  C3 54 00  JMP 0054    (2)  BC:0034  DE:0C0A  HL:02F4  AF:5502  SP:046A  PC:005F   
0054  7E        MOV A,M     (2)  BC:0034  DE:0C0A  HL:02F4  AF:5502  SP:046A  PC:0054   
0055  FE 24     CPI 24      (2)  BC:0034  DE:0C0A  HL:02F4  AF:4C02  SP:046A  PC:0055   
0057  CA 62 00  JZ 0062     (2)  BC:0034  DE:0C0A  HL:02F4  AF:4C06  SP:046A  PC:0057   
005A  7E        MOV A,M     (2)  BC:0034  DE:0C0A  HL:02F4  AF:4C06  SP:046A  PC:005A   
005B  CD 67 00  CALL 0067   (2)  BC:0034  DE:0C0A  HL:02F4  AF:4C06  SP:046A  PC:005B   
005E  23        INX H       (2)  BC:0034  DE:0C0A  HL:02F4  AF:4C06  SP:046A  PC:005E   
005F  C3 54 00  JMP 0054    (2)  BC:0034  DE:0C0A  HL:02F5  AF:4C06  SP:046A  PC:005F   
0054  7E        MOV A,M     (2)  BC:0034  DE:0C0A  HL:02F5  AF:4C06  SP:046A  PC:0054   
0055  FE 24     CPI 24      (2)  BC:0034  DE:0C0A  HL:02F5  AF:2406  SP:046A  PC:0055   
0057  CA 62 00  JZ 0062     (2)  BC:0034  DE:0C0A  HL:02F5  AF:2446  SP:046A  PC:0057   
0062  F1        POP PSW     (2)  BC:0034  DE:0C0A  HL:02F5  AF:2446  SP:046A  PC:0062   
0063  E1        POP H       (2)  BC:0034  DE:0C0A  HL:02F5  AF:0046  SP:046C  PC:0063   
0064  D1        POP D       (2)  BC:0034  DE:0C0A  HL:02E3  AF:0046  SP:046E  PC:0064   
0065  C1        POP B       (2)  BC:0034  DE:0C0A  HL:02E3  AF:0046  SP:0470  PC:0065   
0066  C9        RET         (2)  BC:0034  DE:0C0A  HL:02E3  AF:0046  SP:0472  PC:0066   
02E0  C3 4D 00  JMP 004D    (1)  BC:0034  DE:0C0A  HL:02E3  AF:0046  SP:0474  PC:02E0   
004D  C3 00 C8  JMP C800    (1)  BC:0034  DE:0C0A  HL:02E3  AF:0046  SP:0474  PC:004D   