	                ;*********************************************************************************************************
	                ; 
	                ; Autogenerated by DizAssembler:
	                ;   https://github.com/codenjoyme/8080-emulator/blob/master/src/main/java/spec/assembler/DizAssembler.java
	                ; From: src/main/resources/lik/apps/klad/klad.rks
	                ; In test: DizAssemblerTest.testDizAssembly()
	                ; 
	                ;*********************************************************************************************************
	                
	                         CPU  8080
	                         .ORG 00000h
	                lolif    EQU 07A13h
	                lolih    EQU 07B13h
	                lcauo    EQU 08FE1h
	                lcasc    EQU 08FF1h
	                lgftu    EQU 08FF2h
	                lcopl    EQU 09000h
	                lclor    EQU 09004h
	                lghbg    EQU 090FAh
	                lgeam    EQU 090FEh
	                lcofb    EQU 09128h
	                lcocx    EQU 09318h
	                lcoej    EQU 09418h
	                lcoeb    EQU 09618h
	                lcojx    EQU 09820h
	                lckxn    EQU 0991Ch
	                lcojy    EQU 099A0h
	                lclgz    EQU 09A14h
	                lggzb    EQU 09B0Ah
	                lclhb    EQU 09B14h
	                lgdzi    EQU 09DEEh
	                lclif    EQU 09E14h
	                lcpzx    EQU 0A074h
	                lcpqb    EQU 0A07Ch
	                lcqcu    EQU 0A084h
	                lctds    EQU 0A0C0h
	                lctap    EQU 0A130h
	                lcqap    EQU 0A154h
	                lcpte    EQU 0A1CCh
	                lcqbp    EQU 0A414h
	                lcsxv    EQU 0AB20h
	                lcswp    EQU 0AF30h
	                lgixa    EQU 0AFE6h
	                lgine    EQU 0AFEEh
	                lcrnn    EQU 0B314h
	                lgngz    EQU 0B40Ah
	                lctzs    EQU 0B898h
	                lctzv    EQU 0B918h
	                lcubr    EQU 0B928h
	                lctzn    EQU 0BB18h
	                lcuaz    EQU 0BC18h
	                lcunb    EQU 0BF00h
	                ldlif    EQU 0C000h
	                ldlft    EQU 0C010h
	                lgozx    EQU 0C037h
	                ldlfj    EQU 0C170h
	                lgpdp    EQU 0C427h
	                ldstf    EQU 0FF00h
	                ldgqd    EQU 0FF01h
	                lhlrv    EQU 0FF02h
	                lgzot    EQU 0FF03h
	                lhieg    EQU 0FFFEh
	                lgwbe    EQU 0FFFFh
0000	C3 00 40        ljyzh:   JMP lkxfl
0003	21 00 00        lnfuv:   LXI H,00000h
0006	22 E1 8F                 SHLD lcauo
0009	21 00 13                 LXI H,lkaml
000C	22 3A 0F                 SHLD lnrhb
000F	21 00 07                 LXI H,00700h
0012	22 3E 0F                 SHLD lnogh
0015	0E 1F                    MVI C,01Fh
0017	CD 37 C0                 CALL lgozx
001A	3E 05                    MVI A,005h
001C	32 53 0F                 STA lnfop
001F	AF                       XRA A
0020	32 52 0F                 STA lnrrr
0023	32 51 0F                 STA ljmpz
0026	32 3C 0F                 STA ljvhr
0029	3E 3A                    MVI A,03Ah
002B	32 41 0F                 STA ljmsl
002E	CD DD 08                 CALL ljjei
0031	21 0A 9B                 LXI H,lggzb
0034	11 61 0B                 LXI D,ljmqp
0037	CD 24 09                 CALL ljvtb
003A	21 14 9B                 LXI H,lclhb
003D	11 7C 0B                 LXI D,ljvgp
0040	CD 24 09                 CALL ljvtb
0043	21 EE 9D                 LXI H,lgdzi
0046	11 97 0B                 LXI D,lncmk
0049	CD 24 09                 CALL ljvtb
004C	21 E6 AF                 LXI H,lgixa
004F	11 A8 0B                 LXI D,ljyjq
0052	CD 24 09                 CALL ljvtb
0055	21 EE AF                 LXI H,lgine
0058	11 AC 0B                 LXI D,ljviw
005B	CD 24 09                 CALL ljvtb
005E	21 28 91                 LXI H,lcofb
0061	CD 3F 01                 CALL lnchf
0064	21 28 B9                 LXI H,lcubr
0067	CD 3F 01                 CALL lnchf
006A	11 00 13        lnrnp:   LXI D,lkaml
006D	CD 67 01                 CALL lnctr
0070	21 30 A1                 LXI H,lctap
0073	11 2B 0C                 LXI D,lnfgr
0076	CD 24 09                 CALL ljvtb
0079	21 54 A1                 LXI H,lcqap
007C	11 3D 0C                 LXI D,ljjev
007F	CD 24 09                 CALL ljvtb
0082	21 CC A1                 LXI H,lcpte
0085	11 B0 0B                 LXI D,ljyra
0088	00                       NOP
0089	00                       NOP
008A	00                       NOP
008B	CD 10 01                 CALL ljywx
008E	3A F6 0F                 LDA lnoqg
0091	FE 08                    CPI 008h
0093	C2 9D 00                 JNZ ljjjc
0096	21 00 12                 LXI H,lkamj
0099	16 02                    MVI D,002h
009B	1E 31                    MVI E,031h
009D	FE 0B           ljjjc:   CPI 00Bh
009F	C2 A9 00                 JNZ ljmls
00A2	21 00 0D                 LXI H,ljyvr
00A5	16 04                    MVI D,004h
00A7	1E 32                    MVI E,032h
00A9	FE 0E           ljmls:   CPI 00Eh
00AB	C2 B5 00                 JNZ ljjsi
00AE	21 00 09                 LXI H,00900h
00B1	16 06                    MVI D,006h
00B3	1E 33                    MVI E,033h
00B5	FE 11           ljjsi:   CPI 011h
00B7	C2 C1 00                 JNZ ljmwi
00BA	21 00 06                 LXI H,00600h
00BD	16 08                    MVI D,008h
00BF	1E 34                    MVI E,034h
00C1	FE 14           ljmwi:   CPI 014h
00C3	C2 CD 00                 JNZ ljjls
00C6	21 00 04                 LXI H,00400h
00C9	16 0B                    MVI D,00Bh
00CB	1E 35                    MVI E,035h
00CD	FE 17           ljjls:   CPI 017h
00CF	C2 D9 00                 JNZ ljmka
00D2	21 00 02                 LXI H,00200h
00D5	16 0E                    MVI D,00Eh
00D7	1E 36                    MVI E,036h
00D9	22 3E 0F        ljmka:   SHLD lnogh
00DC	7A                       MOV A,D
00DD	32 3D 0F                 STA ljjep
00E0	21 0A B4                 LXI H,lgngz
00E3	7B                       MOV A,E
00E4	CD D6 01                 CALL lnouw
00E7	2A 3A 0F        lncto:   LHLD lnrhb
00EA	11 70 01                 LXI D,00170h
00ED	19                       DAD D
00EE	22 3A 0F                 SHLD lnrhb
00F1	3A 3C 0F                 LDA ljvhr
00F4	3C                       INR A
00F5	27                       DAA
00F6	FE 31                    CPI 031h
00F8	CA 98 09                 JZ ljyic
00FB	32 3C 0F                 STA ljvhr
00FE	EB                       XCHG
00FF	21 14 B3                 LXI H,lcrnn
0102	D5                       PUSH D
0103	CD F9 05                 CALL ljmks
0106	D1                       POP D
0107	CD 0D 01                 CALL ljjlr
010A	C3 E7 00                 JMP lncto
010D	CD 67 01        ljjlr:   CALL lnctr
0110	06 03           ljywx:   MVI B,003h
0112	C5              lnrvn:   PUSH B
0113	2A 3E 0F                 LHLD lnogh
0116	EB                       XCHG
0117	CD BC 02                 CALL ljvlg
011A	3E 01                    MVI A,001h
011C	CD 11 03                 CALL ljmtn
011F	CD 4F 07                 CALL lnclj
0122	CD 47 08                 CALL lncph
0125	CD B3 08                 CALL lnfmu
0128	CD 52 01                 CALL lnrvr
012B	C1                       POP B
012C	05                       DCR B
012D	CA 10 01                 JZ ljywx
0130	C5                       PUSH B
0131	3E 02                    MVI A,002h
0133	CD 11 03                 CALL ljmtn
0136	3E 03                    MVI A,003h
0138	CD 11 03                 CALL ljmtn
013B	C1                       POP B
013C	C3 12 01                 JMP lnrvn
013F	06 16           lnchf:   MVI B,016h
0141	11 BF 0B        ljmwl:   LXI D,lncby
0144	E5                       PUSH H
0145	CD 24 09                 CALL ljvtb
0148	E1                       POP H
0149	7D                       MOV A,L
014A	C6 08                    ADI 008h
014C	6F                       MOV L,A
014D	05                       DCR B
014E	C2 41 01                 JNZ ljmwl
0151	C9                       RET
0152	3A 41 0F        lnrvr:   LDA ljmsl
0155	FE 3A                    CPI 03Ah
0157	D0                       RNC
0158	FE 39                    CPI 039h
015A	CA 8B 05                 JZ lnfmg
015D	3C                       INR A
015E	32 41 0F                 STA ljmsl
0161	21 14 9E                 LXI H,lclif
0164	C3 D6 01                 JMP lnouw
0167	21 F6 0F        lnctr:   LXI H,lnoqg
016A	E5                       PUSH H
016B	21 E6 0F                 LXI H,lnoss
016E	0E 10                    MVI C,010h
0170	1A              ljywl:   LDAX D
0171	77                       MOV M,A
0172	23                       INX H
0173	E3                       XTHL
0174	77                       MOV M,A
0175	23                       INX H
0176	E3                       XTHL
0177	13                       INX D
0178	0D                       DCR C
0179	C2 70 01                 JNZ ljywl
017C	E1                       POP H
017D	D5                       PUSH D
017E	C1                       POP B
017F	EB                       XCHG
0180	2E 28                    MVI L,028h
0182	26 98           lnrxy:   MVI H,098h
0184	EB              ljvyo:   XCHG
0185	0A                       LDAX B
0186	0F                       RRC
0187	0F                       RRC
0188	0F                       RRC
0189	0F                       RRC
018A	E6 0F                    ANI 00Fh
018C	77                       MOV M,A
018D	23                       INX H
018E	EB                       XCHG
018F	CD D6 01                 CALL lnouw
0192	24                       INR H
0193	EB                       XCHG
0194	0A                       LDAX B
0195	E6 0F                    ANI 00Fh
0197	77                       MOV M,A
0198	23                       INX H
0199	EB                       XCHG
019A	CD D6 01                 CALL lnouw
019D	24                       INR H
019E	03                       INX B
019F	7C                       MOV A,H
01A0	FE B8                    CPI 0B8h
01A2	C2 84 01                 JNZ ljvyo
01A5	7D                       MOV A,L
01A6	C6 08                    ADI 008h
01A8	6F                       MOV L,A
01A9	FE D8                    CPI 0D8h
01AB	C2 82 01                 JNZ lnrxy
01AE	3E 01                    MVI A,001h
01B0	CD 9A 02                 CALL lnrlg
01B3	3E 18                    MVI A,018h
01B5	32 E4 0F                 STA ljvuc
01B8	3A 05 10                 LDA ljliv
01BB	32 E5 0F                 STA ljjra
01BE	AF                       XRA A
01BF	32 33 0F                 STA lnfnv
01C2	32 34 0F                 STA ljvrn
01C5	3C                       INR A
01C6	32 37 0F                 STA lncnb
01C9	21 54 0F                 LXI H,ljvsh
01CC	0E 81                    MVI C,081h
01CE	36 00           lnonm:   MVI M,000h
01D0	23                       INX H
01D1	0D                       DCR C
01D2	C2 CE 01                 JNZ lnonm
01D5	C9                       RET
01D6	C5              lnouw:   PUSH B
01D7	D5                       PUSH D
01D8	E5                       PUSH H
01D9	21 4D 0C                 LXI H,ljjib
01DC	16 00                    MVI D,000h
01DE	0E 03                    MVI C,003h
01E0	5F                       MOV E,A
01E1	7B              ljmvu:   MOV A,E
01E2	37                       STC
01E3	3F                       CMC
01E4	17                       RAL
01E5	5F                       MOV E,A
01E6	7A                       MOV A,D
01E7	17                       RAL
01E8	57                       MOV D,A
01E9	0D                       DCR C
01EA	C2 E1 01                 JNZ ljmvu
01ED	19                       DAD D
01EE	EB                       XCHG
01EF	E1                       POP H
01F0	E5                       PUSH H
01F1	0E 08                    MVI C,008h
01F3	1A              lnfry:   LDAX D
01F4	77                       MOV M,A
01F5	23                       INX H
01F6	13                       INX D
01F7	0D                       DCR C
01F8	C2 F3 01                 JNZ lnfry
01FB	E1                       POP H
01FC	D1                       POP D
01FD	C1                       POP B
01FE	C9                       RET
01FF	7E              lnchi:   MOV A,M
0200	C6 98                    ADI 098h
0202	57                       MOV D,A
0203	23                       INX H
0204	4E                       MOV C,M
0205	23                       INX H
0206	7E                       MOV A,M
0207	07                       RLC
0208	07                       RLC
0209	07                       RLC
020A	C6 28                    ADI 028h
020C	23                       INX H
020D	86                       ADD M
020E	86                       ADD M
020F	5F                       MOV E,A
0210	46                       MOV B,M
0211	23                       INX H
0212	7E                       MOV A,M
0213	21 65 0E                 LXI H,ljjqz
0216	D5                       PUSH D
0217	11 00 00                 LXI D,00000h
021A	FE 03                    CPI 003h
021C	DA 2E 02                 JC lnomj
021F	FE 05                    CPI 005h
0221	CA 3E 02                 JZ lnojx
0224	78                       MOV A,B
0225	1F                       RAR
0226	DA 3E 02                 JC lnojx
0229	1E 10                    MVI E,010h
022B	C3 3E 02                 JMP lnojx
022E	1E 20           lnomj:   MVI E,020h
0230	FE 01                    CPI 001h
0232	CA 37 02                 JZ lncqr
0235	1E 60                    MVI E,060h
0237	79              lncqr:   MOV A,C
0238	07                       RLC
0239	07                       RLC
023A	07                       RLC
023B	07                       RLC
023C	83                       ADD E
023D	5F                       MOV E,A
023E	19              lnojx:   DAD D
023F	D1                       POP D
0240	D5                       PUSH D
0241	CD 4A 02                 CALL lnrnx
0244	D1                       POP D
0245	14                       INR D
0246	CD 4A 02                 CALL lnrnx
0249	C9                       RET
024A	0E 08           lnrnx:   MVI C,008h
024C	1A              ljvon:   LDAX D
024D	AE                       XRA M
024E	12                       STAX D
024F	13                       INX D
0250	23                       INX H
0251	0D                       DCR C
0252	C2 4C 02                 JNZ ljvon
0255	C9                       RET
0256	F5              lnoun:   PUSH PSW
0257	CD 88 02                 CALL ljypc
025A	F1                       POP PSW
025B	EB                       XCHG
025C	CD 8E 02                 CALL lnomy
025F	0E 05                    MVI C,005h
0261	78                       MOV A,B
0262	B7                       ORA A
0263	CA 6F 02                 JZ lncjl
0266	1A              lnowj:   LDAX D
0267	77                       MOV M,A
0268	13                       INX D
0269	23                       INX H
026A	0D                       DCR C
026B	C2 66 02                 JNZ lnowj
026E	C9                       RET
026F	7E              lncjl:   MOV A,M
0270	12                       STAX D
0271	13                       INX D
0272	23                       INX H
0273	0D                       DCR C
0274	C2 6F 02                 JNZ lncjl
0277	C9                       RET
0278	4F              ljymf:   MOV C,A
0279	3E FB                    MVI A,0FBh
027B	C6 05           lnfht:   ADI 005h
027D	0D                       DCR C
027E	C2 7B 02                 JNZ lnfht
0281	D5                       PUSH D
0282	16 00                    MVI D,000h
0284	5F                       MOV E,A
0285	19                       DAD D
0286	D1                       POP D
0287	C9                       RET
0288	21 F6 0F        ljypc:   LXI H,lnoqg
028B	C3 78 02                 JMP ljymf
028E	21 D5 0F        lnomy:   LXI H,ljjpe
0291	C3 78 02                 JMP ljymf
0294	21 E6 0F        ljvvs:   LXI H,lnoss
0297	C3 78 02                 JMP ljymf
029A	F5              lnrlg:   PUSH PSW
029B	06 01                    MVI B,001h
029D	CD 56 02                 CALL lnoun
02A0	F1                       POP PSW
02A1	CD 88 02                 CALL ljypc
02A4	C3 FF 01                 JMP lnchi
02A7	F5              lnctc:   PUSH PSW
02A8	CD 88 02                 CALL ljypc
02AB	CD FF 01                 CALL lnchi
02AE	F1                       POP PSW
02AF	F5                       PUSH PSW
02B0	CD 8E 02                 CALL lnomy
02B3	CD FF 01                 CALL lnchi
02B6	F1                       POP PSW
02B7	06 01                    MVI B,001h
02B9	C3 56 02                 JMP lnoun
02BC	E5              ljvlg:   PUSH H
02BD	21 00 00                 LXI H,00000h
02C0	23              ljyzc:   INX H
02C1	CD 27 C4                 CALL lgpdp
02C4	C2 C0 02                 JNZ ljyzc
02C7	E1                       POP H
02C8	C9                       RET
02C9	F5              ljmme:   PUSH PSW
02CA	CD 88 02                 CALL ljypc
02CD	23                       INX H
02CE	3A 38 0F                 LDA ljyil
02D1	86                       ADD M
02D2	77                       MOV M,A
02D3	CD E2 02                 CALL lnrxc
02D6	23                       INX H
02D7	23                       INX H
02D8	3A 39 0F                 LDA ljmfj
02DB	86                       ADD M
02DC	77                       MOV M,A
02DD	CD E2 02                 CALL lnrxc
02E0	F1                       POP PSW
02E1	C9                       RET
02E2	B7              lnrxc:   ORA A
02E3	FA EF 02                 JM lncjk
02E6	FE 04                    CPI 004h
02E8	C0                       RNZ
02E9	2B                       DCX H
02EA	34                       INR M
02EB	23                       INX H
02EC	36 00                    MVI M,000h
02EE	C9                       RET
02EF	2B              lncjk:   DCX H
02F0	35                       DCR M
02F1	23                       INX H
02F2	36 03                    MVI M,003h
02F4	C9                       RET
02F5	C5              ljjse:   PUSH B
02F6	3E 91                    MVI A,091h
02F8	32 03 FF                 STA lgzot
02FB	3E FB                    MVI A,0FBh
02FD	32 01 FF                 STA ldgqd
0300	3A 00 FF                 LDA ldstf
0303	E6 3F                    ANI 03Fh
0305	47                       MOV B,A
0306	3A 02 FF                 LDA lhlrv
0309	E6 03                    ANI 003h
030B	0F                       RRC
030C	0F                       RRC
030D	B0                       ORA B
030E	2F                       CMA
030F	C1                       POP B
0310	C9                       RET
0311	32 40 0F        ljmtn:   STA ljyvn
0314	CD 88 02                 CALL ljypc
0317	22 42 0F                 SHLD lnrud
031A	3A 40 0F                 LDA ljyvn
031D	FE 02                    CPI 002h
031F	E5                       PUSH H
0320	D4 A8 03                 CNC ljyoo
0323	E1                       POP H
0324	56                       MOV D,M
0325	23                       INX H
0326	22 44 0F                 SHLD ljvut
0329	23                       INX H
032A	5E                       MOV E,M
032B	23                       INX H
032C	22 46 0F                 SHLD lnotj
032F	23                       INX H
0330	22 48 0F                 SHLD ljylr
0333	EB                       XCHG
0334	22 4B 0F                 SHLD lnfhf
0337	D5                       PUSH D
0338	CD C4 03                 CALL ljvyk
033B	22 4F 0F                 SHLD lncgl
033E	D1                       POP D
033F	1A                       LDAX D
0340	FE 05                    CPI 005h
0342	CA 7B 03                 JZ lnfhv
0345	CD C4 03                 CALL ljvyk
0348	22 4F 0F                 SHLD lncgl
034B	2C                       INR L
034C	CD E2 03                 CALL lnrxe
034F	7E                       MOV A,M
0350	E6 0F                    ANI 00Fh
0352	FE 06                    CPI 006h
0354	D2 15 04                 JNC ljjuf
0357	2A 4F 0F                 LHLD lncgl
035A	CD E2 03                 CALL lnrxe
035D	7E                       MOV A,M
035E	E6 0F                    ANI 00Fh
0360	FE 07                    CPI 007h
0362	CA 15 04                 JZ ljjuf
0365	DA 7B 03                 JC lnfhv
0368	3A 40 0F                 LDA ljyvn
036B	FE 02                    CPI 002h
036D	DA 15 04                 JC ljjuf
0370	C3 7B 03                 JMP lnfhv
0373	2A 48 0F        lnfrr:   LHLD ljylr
0376	36 05                    MVI M,005h
0378	C3 44 04                 JMP ljvzx
037B	3A 40 0F        lnfhv:   LDA ljyvn
037E	FE 02                    CPI 002h
0380	D2 73 03                 JNC lnfrr
0383	CD F5 02                 CALL ljjse
0386	FE 24                    CPI 024h
0388	C2 91 03                 JNZ ljmtm
038B	CD 32 07                 CALL lnrvv
038E	C3 73 03                 JMP lnfrr
0391	FE 30           ljmtm:   CPI 030h
0393	C2 CD 12                 JNZ ljkyu
0396	CD 26 07                 CALL lnoxn
0399	C3 73 03                 JMP lnfrr
039C	21 E4 0F        ljvly:   LXI H,ljvuc
039F	D6 02                    SUI 002h
03A1	85                       ADD L
03A2	6F                       MOV L,A
03A3	7C                       MOV A,H
03A4	CE 00                    ACI 000h
03A6	67                       MOV H,A
03A7	C9                       RET
03A8	CD 9C 03        ljyoo:   CALL ljvly
03AB	7E                       MOV A,M
03AC	B7                       ORA A
03AD	C8                       RZ
03AE	FE FF                    CPI 0FFh
03B0	CA B8 03                 JZ ljymc
03B3	3D                       DCR A
03B4	77                       MOV M,A
03B5	CA BB 03                 JZ lnfhq
03B8	E1              ljymc:   POP H
03B9	E1                       POP H
03BA	C9                       RET
03BB	3A 40 0F        lnfhq:   LDA ljyvn
03BE	CD 9A 02                 CALL lnrlg
03C1	E1                       POP H
03C2	E1                       POP H
03C3	C9                       RET
03C4	2A 4B 0F        ljvyk:   LHLD lnfhf
03C7	EB                       XCHG
03C8	2A 44 0F                 LHLD ljvut
03CB	CD DA 03                 CALL lnrlm
03CE	82                       ADD D
03CF	57                       MOV D,A
03D0	2A 46 0F                 LHLD lnotj
03D3	CD DA 03                 CALL lnrlm
03D6	83                       ADD E
03D7	5F                       MOV E,A
03D8	EB                       XCHG
03D9	C9                       RET
03DA	7E              lnrlm:   MOV A,M
03DB	FE 02                    CPI 002h
03DD	3E 00                    MVI A,000h
03DF	D8                       RC
03E0	3C                       INR A
03E1	C9                       RET
03E2	11 00 00        lnrxe:   LXI D,00000h
03E5	5D                       MOV E,L
03E6	0E 05                    MVI C,005h
03E8	37              ljyos:   STC
03E9	3F                       CMC
03EA	7B                       MOV A,E
03EB	17                       RAL
03EC	5F                       MOV E,A
03ED	7A                       MOV A,D
03EE	17                       RAL
03EF	57                       MOV D,A
03F0	0D                       DCR C
03F1	C2 E8 03                 JNZ ljyos
03F4	4C                       MOV C,H
03F5	21 06 10                 LXI H,lnqkn
03F8	19                       DAD D
03F9	06 00                    MVI B,000h
03FB	09                       DAD B
03FC	C9                       RET
03FD	2A 4F 0F        ljjik:   LHLD lncgl
0400	EB                       XCHG
0401	2A 42 0F                 LHLD lnrud
0404	72                       MOV M,D
0405	23              ljjwr:   INX H
0406	36 00                    MVI M,000h
0408	C9                       RET
0409	2A 4F 0F        ljmnp:   LHLD lncgl
040C	EB                       XCHG
040D	2A 44 0F                 LHLD ljvut
0410	23                       INX H
0411	73                       MOV M,E
0412	C3 05 04                 JMP ljjwr
0415	3A 40 0F        ljjuf:   LDA ljyvn
0418	FE 02                    CPI 002h
041A	D2 96 06                 JNC lnovo
041D	CD F5 02                 CALL ljjse
0420	2A 48 0F                 LHLD ljylr
0423	FE 30                    CPI 030h
0425	CA 26 07                 JZ lnoxn
0428	FE 24                    CPI 024h
042A	CA 32 07                 JZ lnrvv
042D	FE 04                    CPI 004h
042F	CA 72 04                 JZ lnrwf
0432	FE 10                    CPI 010h
0434	CA 62 04                 JZ lnryr
0437	FE 80                    CPI 080h
0439	CA 52 04                 JZ lnrwv
043C	FE 40                    CPI 040h
043E	CA 42 04                 JZ lnrzh
0441	C9                       RET
0442	36 04           lnrzh:   MVI M,004h
0444	CD FD 03        ljvzx:   CALL ljjik
0447	AF                       XRA A
0448	32 38 0F                 STA ljyil
044B	3C                       INR A
044C	32 39 0F                 STA ljmfj
044F	C3 82 04                 JMP lnrzc
0452	36 03           lnrwv:   MVI M,003h
0454	CD FD 03                 CALL ljjik
0457	AF                       XRA A
0458	32 38 0F                 STA ljyil
045B	3D                       DCR A
045C	32 39 0F                 STA ljmfj
045F	C3 82 04                 JMP lnrzc
0462	36 01           lnryr:   MVI M,001h
0464	CD 09 04                 CALL ljmnp
0467	AF                       XRA A
0468	32 39 0F                 STA ljmfj
046B	3D                       DCR A
046C	32 38 0F                 STA ljyil
046F	C3 24 06                 JMP ljvyv
0472	36 02           lnrwf:   MVI M,002h
0474	CD 09 04                 CALL ljmnp
0477	AF                       XRA A
0478	32 39 0F                 STA ljmfj
047B	3C                       INR A
047C	32 38 0F                 STA ljyil
047F	C3 24 06                 JMP ljvyv
0482	CD 2C 05        lnrzc:   CALL ljvpj
0485	EB                       XCHG
0486	2A 48 0F                 LHLD ljylr
0489	7E                       MOV A,M
048A	FE 05                    CPI 005h
048C	CA C3 04                 JZ lnfwe
048F	2A 4F 0F                 LHLD lncgl
0492	D5                       PUSH D
0493	CD E2 03                 CALL lnrxe
0496	D1                       POP D
0497	7E                       MOV A,M
0498	FE 07                    CPI 007h
049A	C2 A9 04                 JNZ ljmmy
049D	1A                       LDAX D
049E	E6 0F                    ANI 00Fh
04A0	47                       MOV B,A
04A1	FE 07                    CPI 007h
04A3	C2 C9 04                 JNZ ljmns
04A6	C3 DA 04                 JMP lnrmy
04A9	2A 48 0F        ljmmy:   LHLD ljylr
04AC	7E                       MOV A,M
04AD	FE 03                    CPI 003h
04AF	CA E6 06                 JZ lnoxo
04B2	1A                       LDAX D
04B3	E6 0F                    ANI 00Fh
04B5	47                       MOV B,A
04B6	FE 08                    CPI 008h
04B8	D2 E6 06                 JNC lnoxo
04BB	FE 06                    CPI 006h
04BD	CA E6 06                 JZ lnoxo
04C0	C3 DA 04                 JMP lnrmy
04C3	1A              lnfwe:   LDAX D
04C4	E6 0F                    ANI 00Fh
04C6	47                       MOV B,A
04C7	FE 07                    CPI 007h
04C9	D2 E6 06        ljmns:   JNC lnoxo
04CC	FE 06                    CPI 006h
04CE	C2 DA 04                 JNZ lnrmy
04D1	2A 48 0F                 LHLD ljylr
04D4	7E                       MOV A,M
04D5	FE 05                    CPI 005h
04D7	C2 E6 06                 JNZ lnoxo
04DA	3A 40 0F        lnrmy:   LDA ljyvn
04DD	FE 02                    CPI 002h
04DF	DA 44 05                 JC ljvzz
04E2	21 FB 0F        lnryq:   LXI H,lnfec
04E5	3A 40 0F                 LDA ljyvn
04E8	FE 03                    CPI 003h
04EA	CA F0 04                 JZ ljyxo
04ED	21 00 10                 LXI H,lkamr
04F0	CD 0B 05        ljyxo:   CALL lnfmh
04F3	CD 27 C4                 CALL lgpdp
04F6	CA 3C 06                 JZ ljvmn
04F9	21 F6 0F                 LXI H,lnoqg
04FC	CD 0B 05                 CALL lnfmh
04FF	2A 4F 0F                 LHLD lncgl
0502	CD 27 C4                 CALL lgpdp
0505	CA F0 07                 JZ ljyxi
0508	C3 1E 05                 JMP lnomd
050B	56              lnfmh:   MOV D,M
050C	23                       INX H
050D	CD DA 03                 CALL lnrlm
0510	82                       ADD D
0511	57                       MOV D,A
0512	23                       INX H
0513	5E                       MOV E,M
0514	23                       INX H
0515	CD DA 03                 CALL lnrlm
0518	83                       ADD E
0519	5F                       MOV E,A
051A	2A 4B 0F                 LHLD lnfhf
051D	C9                       RET
051E	78              lnomd:   MOV A,B
051F	FE 04                    CPI 004h
0521	CA 1E 08                 JZ lnofx
0524	FE 05                    CPI 005h
0526	CA 1E 08                 JZ lnofx
0529	C3 FE 06                 JMP lnolg
052C	3A 40 0F        ljvpj:   LDA ljyvn
052F	CD C9 02                 CALL ljmme
0532	2A 42 0F                 LHLD lnrud
0535	56                       MOV D,M
0536	23                       INX H
0537	23                       INX H
0538	5E                       MOV E,M
0539	CD 05 07                 CALL ljjwl
053C	EB                       XCHG
053D	22 4B 0F                 SHLD lnfhf
0540	CD E2 03                 CALL lnrxe
0543	C9                       RET
0544	78              ljvzz:   MOV A,B
0545	B7                       ORA A
0546	CA FE 06                 JZ lnolg
0549	3D                       DCR A
054A	CA 72 05                 JZ lnrwh
054D	3D                       DCR A
054E	CA BD 05                 JZ ljjju
0551	3D                       DCR A
0552	CA D7 05                 JZ lncta
0555	3D                       DCR A
0556	CA 18 08                 JZ ljyib
0559	3D                       DCR A
055A	CA 18 08                 JZ ljyib
055D	21 F8 0F                 LXI H,ljyio
0560	7E                       MOV A,M
0561	23                       INX H
0562	B6                       ORA M
0563	C2 FE 06                 JNZ lnolg
0566	2A 48 0F                 LHLD ljylr
0569	7E                       MOV A,M
056A	FE 03                    CPI 003h
056C	CA D4 08                 JZ ljvrg
056F	C3 FE 06                 JMP lnolg
0572	3A 41 0F        lnrwh:   LDA ljmsl
0575	FE 3A                    CPI 03Ah
0577	C4 8B 05                 CNZ lnfmg
057A	3E 30                    MVI A,030h
057C	32 41 0F                 STA ljmsl
057F	CD 0B 06                 CALL lnflx
0582	21 5E 0A                 LXI H,lnoft
0585	CD 47 09                 CALL lncpj
0588	C3 FE 06                 JMP lnolg
058B	3C              lnfmg:   INR A
058C	32 41 0F                 STA ljmsl
058F	21 52 0F                 LXI H,lnrrr
0592	7E                       MOV A,M
0593	C6 10                    ADI 010h
0595	27                       DAA
0596	77                       MOV M,A
0597	2B                       DCX H
0598	7E                       MOV A,M
0599	CE 00                    ACI 000h
059B	27                       DAA
059C	77                       MOV M,A
059D	3E 00                    MVI A,000h
059F	CE 00                    ACI 000h
05A1	4F                       MOV C,A
05A2	7E                       MOV A,M
05A3	23                       INX H
05A4	46                       MOV B,M
05A5	21 14 9B                 LXI H,lclhb
05A8	CD F9 05        ljyqc:   CALL ljmks
05AB	78                       MOV A,B
05AC	CD F9 05                 CALL ljmks
05AF	79                       MOV A,C
05B0	B7                       ORA A
05B1	C4 B5 05                 CNZ ljjtq
05B4	C9                       RET
05B5	3E 31           ljjtq:   MVI A,031h
05B7	21 14 9A                 LXI H,lclgz
05BA	C3 D6 01                 JMP lnouw
05BD	3E 01           ljjju:   MVI A,001h
05BF	32 34 0F                 STA ljvrn
05C2	21 2C 0A                 LXI H,ljviv
05C5	CD 47 09                 CALL lncpj
05C8	2A 4B 0F                 LHLD lnfhf
05CB	22 35 0F                 SHLD ljjol
05CE	CD 0B 06                 CALL lnflx
05D1	CD 1E 06                 CALL lnolt
05D4	C3 FE 06                 JMP lnolg
05D7	21 65 0A        lncta:   LXI H,ljjpt
05DA	CD 47 09                 CALL lncpj
05DD	21 53 0F                 LXI H,lnfop
05E0	7E                       MOV A,M
05E1	3C                       INR A
05E2	27                       DAA
05E3	77                       MOV M,A
05E4	47                       MOV B,A
05E5	AF                       XRA A
05E6	0E 00                    MVI C,000h
05E8	21 14 A4                 LXI H,lcqbp
05EB	CD A8 05                 CALL ljyqc
05EE	CD 0B 06                 CALL lnflx
05F1	C3 FE 06                 JMP lnolg
05F4	7F 7F 7F 7F              DB 07Fh, 07Fh, 07Fh, 07Fh, 000h
	. . .
05F8	00 

05F9	5F              ljmks:   MOV E,A
05FA	0F                       RRC
05FB	0F                       RRC
05FC	0F                       RRC
05FD	0F                       RRC
05FE	CD 02 06        lnolq:   CALL lnryv
0601	7B                       MOV A,E
0602	E6 0F           lnryv:   ANI 00Fh
0604	C6 30                    ADI 030h
0606	CD D6 01                 CALL lnouw
0609	24                       INR H
060A	C9                       RET
060B	2A 4B 0F        lnflx:   LHLD lnfhf
060E	E5                       PUSH H
060F	CD E2 03                 CALL lnrxe
0612	36 00                    MVI M,000h
0614	E1                       POP H
0615	CD 8A 06                 CALL lnroy
0618	3E 00                    MVI A,000h
061A	CD D6 01                 CALL lnouw
061D	C9                       RET
061E	3E 0C           lnolt:   MVI A,00Ch
0620	CD D6 01                 CALL lnouw
0623	C9                       RET
0624	CD 2C 05        ljvyv:   CALL ljvpj
0627	7E                       MOV A,M
0628	E6 0F                    ANI 00Fh
062A	47                       MOV B,A
062B	3A 40 0F                 LDA ljyvn
062E	FE 02                    CPI 002h
0630	DA 48 06                 JC ljyqn
0633	78                       MOV A,B
0634	FE 08                    CPI 008h
0636	D2 B5 06                 JNC ljjtg
0639	C3 E2 04                 JMP lnryq
063C	2A 48 0F        ljvmn:   LHLD ljylr
063F	7E                       MOV A,M
0640	FE 03                    CPI 003h
0642	DA B5 06                 JC ljjtg
0645	C3 E6 06                 JMP lnoxo
0648	78              ljyqn:   MOV A,B
0649	FE 0A                    CPI 00Ah
064B	D2 E6 06                 JNC lnoxo
064E	FE 09                    CPI 009h
0650	C2 5D 06                 JNZ ljjkf
0653	3A 34 0F                 LDA ljvrn
0656	B7                       ORA A
0657	C2 6A 06                 JNZ lnron
065A	C3 E6 06                 JMP lnoxo
065D	FE 08           ljjkf:   CPI 008h
065F	CA 6A 06                 JZ lnron
0662	FE 06                    CPI 006h
0664	D2 FE 06                 JNC lnolg
0667	C3 44 05                 JMP ljvzz
066A	21 78 0A        lnron:   LXI H,ljyhh
066D	CD 47 09                 CALL lncpj
0670	2A 4B 0F                 LHLD lnfhf
0673	E5                       PUSH H
0674	CD E2 03                 CALL lnrxe
0677	36 00                    MVI M,000h
0679	E1                       POP H
067A	CD 8A 06                 CALL lnroy
067D	3E 00                    MVI A,000h
067F	CD D6 01                 CALL lnouw
0682	3E 0D                    MVI A,00Dh
0684	CD D6 01                 CALL lnouw
0687	C3 FE 06                 JMP lnolg
068A	7C              lnroy:   MOV A,H
068B	C6 98                    ADI 098h
068D	67                       MOV H,A
068E	7D                       MOV A,L
068F	07                       RLC
0690	07                       RLC
0691	07                       RLC
0692	C6 28                    ADI 028h
0694	6F                       MOV L,A
0695	C9                       RET
0696	2A 4F 0F        lnovo:   LHLD lncgl
0699	EB                       XCHG
069A	21 F6 0F                 LXI H,lnoqg
069D	5E                       MOV E,M
069E	23                       INX H
069F	CD DA 03                 CALL lnrlm
06A2	83                       ADD E
06A3	BA                       CMP D
06A4	2A 48 0F                 LHLD ljylr
06A7	CA B0 06                 JZ ljyxc
06AA	DA 62 04                 JC lnryr
06AD	C3 72 04                 JMP lnrwf
06B0	3E 01           ljyxc:   MVI A,001h
06B2	32 4A 0F                 STA lnrkh
06B5	3A 40 0F        ljjtg:   LDA ljyvn
06B8	06 00                    MVI B,000h
06BA	CD 56 02                 CALL lnoun
06BD	2A 4F 0F                 LHLD lncgl
06C0	EB                       XCHG
06C1	21 F8 0F                 LXI H,ljyio
06C4	56                       MOV D,M
06C5	23                       INX H
06C6	CD DA 03                 CALL lnrlm
06C9	82                       ADD D
06CA	BB                       CMP E
06CB	2A 48 0F                 LHLD ljylr
06CE	CA DC 06                 JZ ljvng
06D1	3E 00                    MVI A,000h
06D3	32 4A 0F                 STA lnrkh
06D6	DA 52 04                 JC lnrwv
06D9	C3 42 04                 JMP lnrzh
06DC	3A 4A 0F        ljvng:   LDA lnrkh
06DF	B7                       ORA A
06E0	C2 C6 12                 JNZ lnqki
06E3	C3 FE 06                 JMP lnolg
06E6	2A 48 0F        lnoxo:   LHLD ljylr
06E9	7E                       MOV A,M
06EA	F5                       PUSH PSW
06EB	3A 40 0F                 LDA ljyvn
06EE	06 00                    MVI B,000h
06F0	CD 56 02                 CALL lnoun
06F3	F1                       POP PSW
06F4	2A 48 0F                 LHLD ljylr
06F7	7E                       MOV A,M
06F8	FE 05                    CPI 005h
06FA	C0                       RNZ
06FB	3D                       DCR A
06FC	77                       MOV M,A
06FD	C9                       RET
06FE	3A 40 0F        lnolg:   LDA ljyvn
0701	CD A7 02                 CALL lnctc
0704	C9                       RET
0705	2A 46 0F        ljjwl:   LHLD lnotj
0708	7E                       MOV A,M
0709	B7                       ORA A
070A	CA 17 07                 JZ lncsp
070D	2A 48 0F                 LHLD ljylr
0710	7E                       MOV A,M
0711	FE 04                    CPI 004h
0713	DA 17 07                 JC lncsp
0716	1C                       INR E
0717	2A 44 0F        lncsp:   LHLD ljvut
071A	7E                       MOV A,M
071B	B7                       ORA A
071C	C8                       RZ
071D	2A 48 0F                 LHLD ljylr
0720	7E                       MOV A,M
0721	FE 01                    CPI 001h
0723	C8                       RZ
0724	14                       INR D
0725	C9                       RET
0726	3A 33 0F        lnoxn:   LDA lnfnv
0729	B7                       ORA A
072A	C0                       RNZ
072B	3D                       DCR A
072C	32 33 0F                 STA lnfnv
072F	C3 3B 07                 JMP lnfix
0732	3A 33 0F        lnrvv:   LDA lnfnv
0735	B7                       ORA A
0736	C0                       RNZ
0737	3C                       INR A
0738	32 33 0F                 STA lnfnv
073B	CD 30 09        lnfix:   CALL ljyrj
073E	2A 4F 0F                 LHLD lncgl
0741	22 2F 0F                 SHLD lncfr
0744	CD 8A 06        ljvzr:   CALL lnroy
0747	EB                       XCHG
0748	21 05 0F                 LXI H,ljjrn
074B	CD 4A 02                 CALL lnrnx
074E	C9                       RET
074F	3A 33 0F        lnclj:   LDA lnfnv
0752	B7                       ORA A
0753	C8                       RZ
0754	2A 2F 0F                 LHLD lncfr
0757	84                       ADD H
0758	67                       MOV H,A
0759	22 31 0F                 SHLD ljmpf
075C	CD E2 03                 CALL lnrxe
075F	7E                       MOV A,M
0760	E6 0F                    ANI 00Fh
0762	FE 08                    CPI 008h
0764	DA E1 07                 JC ljmws
0767	FE 0A                    CPI 00Ah
0769	CA 76 07                 JZ lnovf
076C	2A 2F 0F        ljvpf:   LHLD lncfr
076F	AF                       XRA A
0770	32 33 0F                 STA lnfnv
0773	C3 44 07                 JMP ljvzr
0776	7E              lnovf:   MOV A,M
0777	E6 F0                    ANI 0F0h
0779	E5                       PUSH H
077A	F5                       PUSH PSW
077B	01 00 03                 LXI B,00300h
077E	CD 33 09                 CALL lnfmx
0781	F1                       POP PSW
0782	E1                       POP H
0783	CD BD 07                 CALL ljjjm
0786	FE 20                    CPI 020h
0788	CA 92 07                 JZ lnrwk
078B	7E                       MOV A,M
078C	C6 10                    ADI 010h
078E	77                       MOV M,A
078F	C3 6C 07                 JMP ljvpf
0792	36 00           lnrwk:   MVI M,000h
0794	2A 31 0F                 LHLD ljmpf
0797	E5                       PUSH H
0798	3A 54 0F                 LDA ljvsh
079B	4F                       MOV C,A
079C	21 55 0F                 LXI H,ljjpf
079F	CD AA 08                 CALL lnrim
07A2	36 00                    MVI M,000h
07A4	23                       INX H
07A5	36 02                    MVI M,002h
07A7	CD A7 08                 CALL lncom
07AA	D1                       POP D
07AB	73                       MOV M,E
07AC	23                       INX H
07AD	72                       MOV M,D
07AE	79                       MOV A,C
07AF	3C                       INR A
07B0	FE 20                    CPI 020h
07B2	CC BB 07                 CZ lnfiw
07B5	32 54 0F                 STA ljvsh
07B8	C3 6C 07                 JMP ljvpf
07BB	AF              lnfiw:   XRA A
07BC	C9                       RET
07BD	F5              ljjjm:   PUSH PSW
07BE	E5                       PUSH H
07BF	0F                       RRC
07C0	0F                       RRC
07C1	0F                       RRC
07C2	0F                       RRC
07C3	C6 0E                    ADI 00Eh
07C5	57                       MOV D,A
07C6	3A 33 0F                 LDA lnfnv
07C9	FE 01                    CPI 001h
07CB	CA D2 07                 JZ lnrwo
07CE	7A                       MOV A,D
07CF	C6 03                    ADI 003h
07D1	57                       MOV D,A
07D2	7A              lnrwo:   MOV A,D
07D3	2A 31 0F                 LHLD ljmpf
07D6	F5                       PUSH PSW
07D7	CD 8A 06                 CALL lnroy
07DA	F1                       POP PSW
07DB	CD D6 01                 CALL lnouw
07DE	E1                       POP H
07DF	F1                       POP PSW
07E0	C9                       RET
07E1	2A 2F 0F        ljmws:   LHLD lncfr
07E4	CD 44 07                 CALL ljvzr
07E7	2A 31 0F                 LHLD ljmpf
07EA	22 2F 0F                 SHLD lncfr
07ED	C3 44 07                 JMP ljvzr
07F0	21 13 0A        ljyxi:   LXI H,lnfnd
07F3	CD 47 09                 CALL lncpj
07F6	21 53 0F                 LXI H,lnfop
07F9	3E 99                    MVI A,099h
07FB	86                       ADD M
07FC	27                       DAA
07FD	77                       MOV M,A
07FE	47                       MOV B,A
07FF	AF                       XRA A
0800	21 14 A4                 LXI H,lcqbp
0803	CD F9 05                 CALL ljmks
0806	78                       MOV A,B
0807	CD F9 05                 CALL ljmks
080A	78                       MOV A,B
080B	B7                       ORA A
080C	E1                       POP H
080D	E1                       POP H
080E	2A 3A 0F                 LHLD lnrhb
0811	EB                       XCHG
0812	C2 0D 01                 JNZ ljjlr
0815	C3 68 09                 JMP ljykd
0818	CD 30 09        ljyib:   CALL ljyrj
081B	C3 F0 07                 JMP ljyxi
081E	3A 40 0F        lnofx:   LDA ljyvn
0821	06 00                    MVI B,000h
0823	CD 56 02                 CALL lnoun
0826	3A 40 0F                 LDA ljyvn
0829	CD 9A 02                 CALL lnrlg
082C	3A 40 0F                 LDA ljyvn
082F	CD 94 02                 CALL ljvvs
0832	EB                       XCHG
0833	3A 40 0F                 LDA ljyvn
0836	CD 88 02                 CALL ljypc
0839	0E 05                    MVI C,005h
083B	CD 66 02                 CALL lnowj
083E	3A 40 0F                 LDA ljyvn
0841	CD 9C 03                 CALL ljvly
0844	36 18                    MVI M,018h
0846	C9                       RET
0847	0E 00           lncph:   MVI C,000h
0849	21 55 0F                 LXI H,ljjpf
084C	7E              ljvjx:   MOV A,M
084D	5E                       MOV E,M
084E	23                       INX H
084F	56                       MOV D,M
0850	B6                       ORA M
0851	CA 6A 08                 JZ lnrir
0854	1B                       DCX D
0855	72                       MOV M,D
0856	2B                       DCX H
0857	73                       MOV M,E
0858	7B                       MOV A,E
0859	37                       STC
085A	3F                       CMC
085B	17                       RAL
085C	5F                       MOV E,A
085D	7A                       MOV A,D
085E	17                       RAL
085F	57                       MOV D,A
0860	7B                       MOV A,E
0861	B7                       ORA A
0862	23                       INX H
0863	E5                       PUSH H
0864	C5                       PUSH B
0865	CA 73 08                 JZ lnfmz
0868	C1              ljykb:   POP B
0869	E1                       POP H
086A	23              lnrir:   INX H
086B	0C                       INR C
086C	79                       MOV A,C
086D	FE 20                    CPI 020h
086F	C2 4C 08                 JNZ ljvjx
0872	C9                       RET
0873	7A              lnfmz:   MOV A,D
0874	07                       RLC
0875	07                       RLC
0876	07                       RLC
0877	21 0D 0F                 LXI H,ljjhr
087A	16 00                    MVI D,000h
087C	5F                       MOV E,A
087D	19                       DAD D
087E	E5                       PUSH H
087F	CD A7 08                 CALL lncom
0882	5E                       MOV E,M
0883	23                       INX H
0884	56                       MOV D,M
0885	EB                       XCHG
0886	22 2D 0F                 SHLD ljjhb
0889	CD 8A 06                 CALL lnroy
088C	EB                       XCHG
088D	E1                       POP H
088E	E5                       PUSH H
088F	CD 4A 02                 CALL lnrnx
0892	E1                       POP H
0893	11 0D 0F                 LXI D,ljjhr
0896	CD 27 C4                 CALL lgpdp
0899	C2 68 08                 JNZ ljykb
089C	2A 2D 0F                 LHLD ljjhb
089F	CD E2 03                 CALL lnrxe
08A2	36 0A                    MVI M,00Ah
08A4	C3 68 08                 JMP ljykb
08A7	21 95 0F        lncom:   LXI H,ljjpa
08AA	79              lnrim:   MOV A,C
08AB	07                       RLC
08AC	85                       ADD L
08AD	6F                       MOV L,A
08AE	7C                       MOV A,H
08AF	CE 00                    ACI 000h
08B1	67                       MOV H,A
08B2	C9                       RET
08B3	3A 34 0F        lnfmu:   LDA ljvrn
08B6	B7                       ORA A
08B7	C8                       RZ
08B8	3A 37 0F                 LDA lncnb
08BB	3D                       DCR A
08BC	32 37 0F                 STA lncnb
08BF	C0                       RNZ
08C0	3A 3D 0F                 LDA ljjep
08C3	32 37 0F                 STA lncnb
08C6	2A 35 0F                 LHLD ljjol
08C9	CD 8A 06                 CALL lnroy
08CC	EB                       XCHG
08CD	21 AD 0C                 LXI H,ljjhg
08D0	CD 4A 02                 CALL lnrnx
08D3	C9                       RET
08D4	21 3F 0A        ljvrg:   LXI H,lncbx
08D7	CD 47 09                 CALL lncpj
08DA	E1                       POP H
08DB	E1                       POP H
08DC	C9                       RET
08DD	21 C6 0B        ljjei:   LXI H,lnosc
08E0	7E              ljytw:   MOV A,M
08E1	FE FF                    CPI 0FFh
08E3	C8                       RZ
08E4	56                       MOV D,M
08E5	23                       INX H
08E6	5E                       MOV E,M
08E7	D5                       PUSH D
08E8	23                       INX H
08E9	11 00 00                 LXI D,00000h
08EC	7E                       MOV A,M
08ED	3D                       DCR A
08EE	C2 F2 08                 JNZ lnrqa
08F1	15                       DCR D
08F2	3D              lnrqa:   DCR A
08F3	C2 F7 08                 JNZ lncme
08F6	14                       INR D
08F7	3D              lncme:   DCR A
08F8	C2 FC 08                 JNZ ljvgu
08FB	1B                       DCX D
08FC	3D              ljvgu:   DCR A
08FD	C2 01 09                 JNZ ljmrj
0900	13                       INX D
0901	23              ljmrj:   INX H
0902	4E                       MOV C,M
0903	23                       INX H
0904	46                       MOV B,M
0905	23                       INX H
0906	E3                       XTHL
0907	D5              lncpf:   PUSH D
0908	E5                       PUSH H
0909	7C                       MOV A,H
090A	C6 90                    ADI 090h
090C	67                       MOV H,A
090D	7D                       MOV A,L
090E	07                       RLC
090F	07                       RLC
0910	07                       RLC
0911	6F                       MOV L,A
0912	78                       MOV A,B
0913	CD D6 01                 CALL lnouw
0916	E1                       POP H
0917	D1                       POP D
0918	0D                       DCR C
0919	C2 20 09                 JNZ ljytv
091C	E1                       POP H
091D	C3 E0 08                 JMP ljytw
0920	19              ljytv:   DAD D
0921	C3 07 09                 JMP lncpf
0924	1A              ljvtb:   LDAX D
0925	FE FF                    CPI 0FFh
0927	C8                       RZ
0928	CD D6 01                 CALL lnouw
092B	24                       INR H
092C	13                       INX D
092D	C3 24 09                 JMP ljvtb
0930	01 00 08        ljyrj:   LXI B,00800h
0933	21 00 C0        lnfmx:   LXI H,ldlif
0936	7E              lnopf:   MOV A,M
0937	1F                       RAR
0938	3E 0A                    MVI A,00Ah
093A	CE 00                    ACI 000h
093C	32 03 FF                 STA lgzot
093F	23                       INX H
0940	0B                       DCX B
0941	78                       MOV A,B
0942	B1                       ORA C
0943	C2 36 09                 JNZ lnopf
0946	C9                       RET
0947	7E              lncpj:   MOV A,M
0948	B7                       ORA A
0949	C8                       RZ
094A	FE FF                    CPI 0FFh
094C	CA 5E 09                 JZ lnogd
094F	32 F2 8F                 STA lgftu
0952	23                       INX H
0953	7E                       MOV A,M
0954	32 F1 8F                 STA lcasc
0957	23                       INX H
0958	CD 70 C1                 CALL ldlfj
095B	C3 47 09                 JMP lncpj
095E	5E              lnogd:   MOV E,M
095F	23                       INX H
0960	56                       MOV D,M
0961	23                       INX H
0962	CD BC 02                 CALL ljvlg
0965	C3 47 09                 JMP lncpj
0968	21 74 A0        ljykd:   LXI H,lcpzx
096B	11 41 0B                 LXI D,ljmrf
096E	CD 24 09                 CALL ljvtb
0971	21 7C A0                 LXI H,lcpqb
0974	11 21 0B                 LXI D,ljmql
0977	CD 24 09                 CALL ljvtb
097A	21 84 A0                 LXI H,lcqcu
097D	11 51 0B                 LXI D,ljmot
0980	CD 24 09                 CALL ljvtb
0983	11 00 90                 LXI D,lcopl
0986	CD BC 02                 CALL ljvlg
0989	21 9D 0A                 LXI H,ljjdw
098C	CD 47 09                 CALL lncpj
098F	CD E4 09                 CALL ljvte
0992	CD F1 09                 CALL ljmok
0995	C3 00 00                 JMP ljyzh
0998	21 74 A0        ljyic:   LXI H,lcpzx
099B	11 41 0B                 LXI D,ljmrf
099E	CD 24 09                 CALL ljvtb
09A1	21 7C A0                 LXI H,lcpqb
09A4	11 31 0B                 LXI D,ljmnz
09A7	CD 24 09                 CALL ljvtb
09AA	21 84 A0                 LXI H,lcqcu
09AD	11 51 0B                 LXI D,ljmot
09B0	CD 24 09                 CALL ljvtb
09B3	11 00 90                 LXI D,lcopl
09B6	CD BC 02                 CALL ljvlg
09B9	21 C8 0A                 LXI H,ljyki
09BC	CD 47 09                 CALL lncpj
09BF	CD E4 09                 CALL ljvte
09C2	31 FF 3F                 LXI SP,lnjsg
09C5	21 00 13                 LXI H,lkaml
09C8	22 3A 0F                 SHLD lnrhb
09CB	21 53 0F                 LXI H,lnfop
09CE	7E                       MOV A,M
09CF	C6 05                    ADI 005h
09D1	27                       DAA
09D2	77                       MOV M,A
09D3	47                       MOV B,A
09D4	AF                       XRA A
09D5	0E 00                    MVI C,000h
09D7	21 14 A4                 LXI H,lcqbp
09DA	CD A8 05                 CALL ljyqc
09DD	AF                       XRA A
09DE	32 3C 0F                 STA ljvhr
09E1	C3 6A 00                 JMP lnrnp
09E4	26 04           ljvte:   MVI H,004h
09E6	11 FF FF        lnoru:   LXI D,lgwbe
09E9	CD BC 02                 CALL ljvlg
09EC	25                       DCR H
09ED	C2 E6 09                 JNZ lnoru
09F0	C9                       RET
09F1	0E 80           ljmok:   MVI C,080h
09F3	69              lnfna:   MOV L,C
09F4	CD 02 0A                 CALL lnrsr
09F7	79                       MOV A,C
09F8	2F                       CMA
09F9	6F                       MOV L,A
09FA	CD 02 0A                 CALL lnrsr
09FD	0C                       INR C
09FE	C2 F3 09                 JNZ lnfna
0A01	C9                       RET
0A02	26 90           lnrsr:   MVI H,090h
0A04	36 00           ljvth:   MVI M,000h
0A06	24                       INR H
0A07	7C                       MOV A,H
0A08	FE C0                    CPI 0C0h
0A0A	C2 04 0A                 JNZ ljvth
0A0D	11 90 00                 LXI D,00090h
0A10	C3 BC 02                 JMP ljvlg
	                
0A13	05 FA 05 E6     lnfnd:   DB 005h, 0FAh, 005h, 0E6h, 005h, 0D2h, 005h, 0BEh, 007h, 0AAh
	. . .
0A1B	07 AA 

0A1D	0A 96 0A 8C              DB 00Ah, 096h, 00Ah, 08Ch, 00Ah, 082h, 00Ah, 078h, 00Ah, 06Eh
	. . .
0A25	0A 6E 

0A27	0A 64 0A 5A              DB 00Ah, 064h, 00Ah, 05Ah, 000h
	. . .
0A2B	00 

0A2C	28 56 FF 02     ljviv:   DB 028h, 056h, 0FFh, 002h, 02Dh, 04Dh, 0FFh, 002h, 032h, 044h
	. . .
0A34	32 44 

0A36	FF 02 38 40              DB 0FFh, 002h, 038h, 040h, 0FFh, 002h, 03Fh, 038h, 000h
	. . .
0A3E	00 

0A3F	28 56 FF 02     lncbx:   DB 028h, 056h, 0FFh, 002h, 032h, 04Dh, 0FFh, 002h, 03Ch, 044h
	. . .
0A47	3C 44 

0A49	FF 02 46 40              DB 0FFh, 002h, 046h, 040h, 0FFh, 002h, 050h, 038h, 0FFh, 002h
	. . .
0A51	FF 02 

0A53	5A 31 FF 02              DB 05Ah, 031h, 0FFh, 002h, 064h, 02Bh, 0FFh, 002h, 06Eh, 028h
	. . .
0A5B	6E 28 

0A5D	00                       DB 000h
0A5E	18 56 1A 4D     lnoft:   DB 018h, 056h, 01Ah, 04Dh, 01Eh, 044h, 000h
	. . .
0A62	1E 44 00 

0A65	28 56 FF 03     ljjpt:   DB 028h, 056h, 0FFh, 003h, 028h, 056h, 0FFh, 003h, 028h, 056h
	. . .
0A6D	28 56 

0A6F	FF 03 28 56              DB 0FFh, 003h, 028h, 056h, 0FFh, 003h, 028h, 056h, 000h
	. . .
0A77	00 

0A78	03 3C FF 04     ljyhh:   DB 003h, 03Ch, 0FFh, 004h, 003h, 046h, 0FFh, 004h, 003h, 050h
	. . .
0A80	03 50 

0A82	FF 04 03 5A              DB 0FFh, 004h, 003h, 05Ah, 0FFh, 004h, 003h, 064h, 0FFh, 004h
	. . .
0A8A	FF 04 

0A8C	03 6E FF 04              DB 003h, 06Eh, 0FFh, 004h, 003h, 078h, 0FFh, 004h, 003h, 082h
	. . .
0A94	03 82 

0A96	FF 04 03 8C              DB 0FFh, 004h, 003h, 08Ch, 0FFh, 004h, 000h
	. . .
0A9A	FF 04 00 

0A9D	BE ED FF 07     ljjdw:   DB 0BEh, 0EDh, 0FFh, 007h, 0BEh, 0EDh, 0FFh, 007h, 032h, 0EDh
	. . .
0AA5	32 ED 

0AA7	FF 03 BE ED              DB 0FFh, 003h, 0BEh, 0EDh, 0FFh, 007h, 0DFh, 0C8h, 0FFh, 007h
	. . .
0AAF	FF 07 

0AB1	3C D4 FF 03              DB 03Ch, 0D4h, 0FFh, 003h, 0CDh, 0D4h, 0FFh, 007h, 032h, 0EDh
	. . .
0AB9	32 ED 

0ABB	FF 03 BE ED              DB 0FFh, 003h, 0BEh, 0EDh, 0FFh, 007h, 028h, 0FBh, 0FFh, 003h
	. . .
0AC3	FF 03 

0AC5	BE ED 00                 DB 0BEh, 0EDh, 000h
0AC8	96 B0 5A 8B     ljyki:   DB 096h, 0B0h, 05Ah, 08Bh, 06Eh, 075h, 03Ch, 056h, 0FFh, 004h
	. . .
0AD0	FF 04 

0AD2	3C 56 FF 04              DB 03Ch, 056h, 0FFh, 004h, 03Ch, 056h, 0FFh, 004h, 03Ch, 056h
	. . .
0ADA	3C 56 

0ADC	FF 04 3C 56              DB 0FFh, 004h, 03Ch, 056h, 0FFh, 004h, 03Ch, 056h, 0FFh, 004h
	. . .
0AE4	FF 04 

0AE6	3C 56 FF 04              DB 03Ch, 056h, 0FFh, 004h, 03Ch, 056h, 0FFh, 004h, 041h, 04Dh
	. . .
0AEE	41 4D 

0AF0	FF 04 41 4D              DB 0FFh, 004h, 041h, 04Dh, 0FFh, 004h, 041h, 04Dh, 0FFh, 004h
	. . .
0AF8	FF 04 

0AFA	41 4D FF 04              DB 041h, 04Dh, 0FFh, 004h, 041h, 04Dh, 0FFh, 004h, 041h, 04Dh
	. . .
0B02	41 4D 

0B04	FF 04 41 4D              DB 0FFh, 004h, 041h, 04Dh, 0FFh, 004h, 041h, 04Dh, 0FFh, 004h
	. . .
0B0C	FF 04 

0B0E	FE 44 96 44              DB 0FEh, 044h, 096h, 044h, 0FCh, 04Dh, 078h, 04Dh, 064h, 056h
	. . .
0B16	64 56 

0B18	FF 05 50 75              DB 0FFh, 005h, 050h, 075h, 0FFh, 005h, 06Eh, 056h, 000h
	. . .
0B20	00 

0B21	15 25 40 27     ljmql:   DB 015h, 025h, 040h, 027h, 041h, 000h, 021h, 024h, 021h, 02Ah
	. . .
0B29	21 2A 

0B2B	26 29 2A 41              DB 026h, 029h, 02Ah, 041h, 015h, 0FFh
	. . .
0B2F	15 FF 

0B31	15 20 27 25     ljmnz:   DB 015h, 020h, 027h, 025h, 033h, 021h, 028h, 041h, 042h, 000h
	. . .
0B39	42 00 

0B3B	25 40 27 41              DB 025h, 040h, 027h, 041h, 015h, 0FFh
	. . .
0B3F	15 FF 

0B41	16 14 14 14     ljmrf:   DB 016h, 014h, 014h, 014h, 014h, 014h, 014h, 014h, 014h, 014h
	. . .
0B49	14 14 

0B4B	14 14 14 14              DB 014h, 014h, 014h, 014h, 017h, 0FFh
	. . .
0B4F	17 FF 

0B51	19 14 14 14     ljmot:   DB 019h, 014h, 014h, 014h, 014h, 014h, 014h, 014h, 014h, 014h
	. . .
0B59	14 14 

0B5B	14 14 14 14              DB 014h, 014h, 014h, 014h, 018h, 0FFh
	. . .
0B5F	18 FF 

0B61	21 26 24 25     ljmqp:   DB 021h, 026h, 024h, 025h, 000h, 000h, 020h, 021h, 020h, 022h
	. . .
0B69	20 22 

0B6B	23 24 25 00              DB 023h, 024h, 025h, 000h, 000h, 02Dh, 024h, 021h, 027h, 021h
	. . .
0B73	27 21 

0B75	2D 23 2B 3A              DB 02Dh, 023h, 02Bh, 03Ah, 030h, 030h, 0FFh
	. . .
0B79	30 30 FF 

0B7C	30 30 30 30     ljvgp:   DB 030h, 030h, 030h, 030h, 000h, 000h, 000h, 000h, 000h, 030h
	. . .
0B84	00 30 

0B86	30 30 35 00              DB 030h, 030h, 035h, 000h, 000h, 000h, 02Ch, 027h, 021h, 028h
	. . .
0B8E	21 28 

0B90	29 2A 2B 3A              DB 029h, 02Ah, 02Bh, 03Ah, 030h, 030h, 0FFh
	. . .
0B94	30 30 FF 

0B97	26 29 27 2A     lncmk:   DB 026h, 029h, 027h, 02Ah, 021h, 028h, 02Eh, 022h, 02Fh, 031h
	. . .
0B9F	2F 31 

0BA1	39 38 38 00              DB 039h, 038h, 038h, 000h, 000h, 03Bh, 0FFh
	. . .
0BA5	00 3B FF 

0BA8	1A 1B 1C FF     ljyjq:   DB 01Ah, 01Bh, 01Ch, 0FFh
0BAC	1D 1E 1F FF     ljviw:   DB 01Dh, 01Eh, 01Fh, 0FFh
0BB0	3C 25 3D 25     ljyra:   DB 03Ch, 025h, 03Dh, 025h, 02Ah, 02Dh, 024h, 025h, 03Eh, 000h
	. . .
0BB8	3E 00 

0BBA	24 3F 28 3F              DB 024h, 03Fh, 028h, 03Fh, 0FFh
	. . .
0BBE	FF 

0BBF	07 07 07 07     lncby:   DB 007h, 007h, 007h, 007h, 007h, 007h, 0FFh
	. . .
0BC3	07 07 FF 

0BC6	00 00 01 01     lnosc:   DB 000h, 000h, 001h, 001h, 016h, 000h, 001h, 004h, 01Eh, 015h
	. . .
0BCE	1E 15 

0BD0	00 1F 01 01              DB 000h, 01Fh, 001h, 001h, 019h, 001h, 01Fh, 002h, 02Eh, 014h
	. . .
0BD8	2E 14 

0BDA	2F 1F 01 01              DB 02Fh, 01Fh, 001h, 001h, 018h, 02Fh, 01Eh, 003h, 01Eh, 015h
	. . .
0BE2	1E 15 

0BE4	2F 00 01 01              DB 02Fh, 000h, 001h, 001h, 017h, 02Eh, 000h, 001h, 02Eh, 014h
	. . .
0BEC	2E 14 

0BEE	01 01 02 07              DB 001h, 001h, 002h, 007h, 014h, 001h, 002h, 002h, 007h, 014h
	. . .
0BF6	07 14 

0BF8	01 03 02 07              DB 001h, 003h, 002h, 007h, 014h, 028h, 001h, 002h, 007h, 014h
	. . .
0C00	07 14 

0C02	28 02 02 07              DB 028h, 002h, 002h, 007h, 014h, 028h, 003h, 002h, 007h, 014h
	. . .
0C0A	07 14 

0C0C	01 1C 02 0B              DB 001h, 01Ch, 002h, 00Bh, 014h, 001h, 01Dh, 002h, 00Bh, 014h
	. . .
0C14	0B 14 

0C16	01 1E 02 0B              DB 001h, 01Eh, 002h, 00Bh, 014h, 024h, 01Ch, 002h, 00Bh, 014h
	. . .
0C1E	0B 14 

0C20	24 1D 02 0B              DB 024h, 01Dh, 002h, 00Bh, 014h, 024h, 01Eh, 002h, 00Bh, 014h
	. . .
0C28	0B 14 

0C2A	FF                       DB 0FFh
0C2B	31 0A 07 32     lnfgr:   DB 031h, 00Ah, 007h, 032h, 00Ah, 007h, 033h, 00Ah, 007h, 034h
	. . .
0C33	07 34 

0C35	0A 07 35 0A              DB 00Ah, 007h, 035h, 00Ah, 007h, 036h, 00Ah, 0FFh
	. . .
0C39	07 36 0A FF 

0C3D	2D 00 24 00     ljjev:   DB 02Dh, 000h, 024h, 000h, 021h, 000h, 027h, 000h, 021h, 000h
	. . .
0C45	21 00 

0C47	2D 00 23 00              DB 02Dh, 000h, 023h, 000h, 02Bh, 0FFh
	. . .
0C4B	2B FF 

0C4D	00 00 00 00     ljjib:   DB 000h, 000h, 000h, 000h, 000h, 000h, 000h, 000h, 000h, 000h
	. . .
0C55	00 00 

0C57	00 7E 2A 7E              DB 000h, 07Eh, 02Ah, 07Eh, 07Eh, 000h, 000h, 000h, 000h, 07Eh
	. . .
0C5F	00 7E 

0C61	2A 7E 7E 00              DB 02Ah, 07Eh, 07Eh, 000h, 000h, 000h, 000h, 07Eh, 02Ah, 07Eh
	. . .
0C69	2A 7E 

0C6B	7E 00 00 22              DB 07Eh, 000h, 000h, 022h, 044h, 0AAh, 000h, 0AAh, 000h, 055h
	. . .
0C73	00 55 

0C75	00 55 00 AA              DB 000h, 055h, 000h, 0AAh, 000h, 0AAh, 000h, 055h, 0FFh, 055h
	. . .
0C7D	FF 55 

0C7F	00 00 00 00              DB 000h, 000h, 000h, 000h, 000h, 000h, 066h, 0FFh, 066h, 066h
	. . .
0C87	66 66 

0C89	66 FF 66 66              DB 066h, 0FFh, 066h, 066h, 038h, 020h, 038h, 020h, 038h, 020h
	. . .
0C91	38 20 

0C93	38 20 38 20              DB 038h, 020h, 038h, 020h, 038h, 020h, 038h, 020h, 038h, 020h
	. . .
0C9B	38 20 

0C9D	D6 B5 5B AD              DB 0D6h, 0B5h, 05Bh, 0ADh, 0D6h, 0B5h, 05Bh, 0ADh, 0C6h, 0EEh
	. . .
0CA5	C6 EE 

0CA7	39 BA 6C EE              DB 039h, 0BAh, 06Ch, 0EEh, 093h, 0ABh
	. . .
0CAB	93 AB 

0CAD	07 05 0F 18     ljjhg:   DB 007h, 005h, 00Fh, 018h, 030h, 060h, 0F0h, 0A0h, 000h, 07Eh
	. . .
0CB5	00 7E 

0CB7	00 7E 00 7E              DB 000h, 07Eh, 000h, 07Eh, 000h, 07Eh, 0D6h, 0B5h, 05Bh, 00Dh
	. . .
0CBF	5B 0D 

0CC1	06 31 5B AD              DB 006h, 031h, 05Bh, 0ADh, 0D6h, 035h, 003h, 001h, 002h, 001h
	. . .
0CC9	02 01 

0CCB	1B AD 00 00              DB 01Bh, 0ADh, 000h, 000h, 000h, 000h, 000h, 000h, 000h, 000h
	. . .
0CD3	00 00 

0CD5	D6 B5 5B 84              DB 0D6h, 0B5h, 05Bh, 084h, 0D0h, 0B0h, 05Bh, 0ADh, 0D6h, 0B4h
	. . .
0CDD	D6 B4 

0CDF	50 80 C0 A0              DB 050h, 080h, 0C0h, 0A0h, 058h, 0ADh, 000h, 000h, 000h, 000h
	. . .
0CE7	00 00 

0CE9	00 00 00 00              DB 000h, 000h, 000h, 000h, 000h, 000h, 0FFh, 0FFh, 0FFh, 0FFh
	. . .
0CF1	FF FF 

0CF3	00 00 3C 3C              DB 000h, 000h, 03Ch, 03Ch, 03Ch, 03Ch, 03Ch, 03Ch, 03Ch, 03Ch
	. . .
0CFB	3C 3C 

0CFD	00 00 03                 DB 000h, 000h, 003h
0D00	0F 1F 1F 3E     ljyvr:   DB 00Fh, 01Fh, 01Fh, 03Eh, 03Ch, 000h, 000h, 0C0h, 0F0h, 0F8h
	. . .
0D08	F0 F8 

0D0A	F8 7C 3C 3C              DB 0F8h, 07Ch, 03Ch, 03Ch, 07Ch, 0F8h, 0F8h, 0F0h, 0C0h, 000h
	. . .
0D12	C0 00 

0D14	00 3C 3E 1F              DB 000h, 03Ch, 03Eh, 01Fh, 01Fh, 00Fh, 003h, 000h, 000h, 000h
	. . .
0D1C	00 00 

0D1E	00 01 03 07              DB 000h, 001h, 003h, 007h, 00Fh, 00Fh, 00Fh, 03Ch, 0BFh, 0BFh
	. . .
0D26	BF BF 

0D28	B3 B3 BC BC              DB 0B3h, 0B3h, 0BCh, 0BCh, 0B3h, 000h, 000h, 080h, 020h, 030h
	. . .
0D30	20 30 

0D32	F0 F0 30 0F              DB 0F0h, 0F0h, 030h, 00Fh, 00Fh, 00Fh, 007h, 003h, 001h, 000h
	. . .
0D3A	01 00 

0D3C	00 B3 BF 83              DB 000h, 0B3h, 0BFh, 083h, 0FBh, 0FBh, 0FBh, 0FBh, 03Ch, 030h
	. . .
0D44	3C 30 

0D46	F0 F0 E0 C0              DB 0F0h, 0F0h, 0E0h, 0C0h, 080h, 000h, 000h, 0FEh, 0C6h, 0C6h
	. . .
0D4E	C6 C6 

0D50	C6 C6 C6 C6              DB 0C6h, 0C6h, 0C6h, 0C6h, 0C6h, 07Ch, 0C6h, 0C6h, 0C6h, 0C6h
	. . .
0D58	C6 C6 

0D5A	C6 C6 7C C2              DB 0C6h, 0C6h, 07Ch, 0C2h, 0C2h, 0C2h, 0F2h, 0DAh, 0DAh, 0DAh
	. . .
0D62	DA DA 

0D64	F2 FE BA 38              DB 0F2h, 0FEh, 0BAh, 038h, 038h, 038h, 038h, 038h, 038h, 0C6h
	. . .
0D6C	38 C6 

0D6E	CC D8 F0 F0              DB 0CCh, 0D8h, 0F0h, 0F0h, 0D8h, 0CCh, 0C6h, 0C6h, 0C6h, 0C6h
	. . .
0D76	C6 C6 

0D78	C6 CE D6 E6              DB 0C6h, 0CEh, 0D6h, 0E6h, 0C6h, 0C6h, 0C6h, 0C6h, 0C6h, 07Eh
	. . .
0D80	C6 7E 

0D82	06 06 06 FC              DB 006h, 006h, 006h, 0FCh, 0C6h, 0C6h, 0C6h, 0FCh, 0C0h, 0C0h
	. . .
0D8A	C0 C0 

0D8C	C0 FC C6 C6              DB 0C0h, 0FCh, 0C6h, 0C6h, 0FCh, 0FCh, 0C6h, 0C6h, 0FCh, 0FEh
	. . .
0D94	FC FE 

0D96	C2 C0 F0 F0              DB 0C2h, 0C0h, 0F0h, 0F0h, 0C0h, 0C2h, 0FEh, 0C6h, 0C6h, 0C6h
	. . .
0D9E	C6 C6 

0DA0	C6 FE C6 C6              DB 0C6h, 0FEh, 0C6h, 0C6h, 0C6h, 0C0h, 0C0h, 0C0h, 0FCh, 0C6h
	. . .
0DA8	FC C6 

0DAA	C6 C6 FC C6              DB 0C6h, 0C6h, 0FCh, 0C6h, 0C6h, 0C6h, 0C6h, 07Eh, 006h, 0CCh
	. . .
0DB2	06 CC 

0DB4	78 7C C6 C6              DB 078h, 07Ch, 0C6h, 0C6h, 0C0h, 0C0h, 0C6h, 0C6h, 07Ch, 0CCh
	. . .
0DBC	7C CC 

0DBE	CC CC CC CC              DB 0CCh, 0CCh, 0CCh, 0CCh, 0CCh, 0CCh, 0FEh, 000h, 000h, 032h
	. . .
0DC6	00 32 

0DC8	7E 4C 00 00              DB 07Eh, 04Ch, 000h, 000h, 000h, 07Ch, 0C6h, 0C6h, 0CEh, 0D6h
	. . .
0DD0	CE D6 

0DD2	E6 C6 7C 18              DB 0E6h, 0C6h, 07Ch, 018h, 038h, 058h, 018h, 018h, 018h, 018h
	. . .
0DDA	18 18 

0DDC	7E 7C C6 C6              DB 07Eh, 07Ch, 0C6h, 0C6h, 00Ch, 038h, 060h, 0C6h, 0FEh, 07Ch
	. . .
0DE4	FE 7C 

0DE6	C6 C6 1C 1C              DB 0C6h, 0C6h, 01Ch, 01Ch, 0C6h, 0C6h, 07Ch, 01Ch, 03Ch, 06Ch
	. . .
0DEE	3C 6C 

0DF0	CC 8C FE 0C              DB 0CCh, 08Ch, 0FEh, 00Ch, 00Ch, 0FEh, 0C0h, 0C0h, 0FCh, 006h
	. . .
0DF8	FC 06 

0DFA	C6 C6 7C 3C              DB 0C6h, 0C6h, 07Ch, 03Ch, 066h, 0C0h, 0FCh, 0C6h, 0C6h, 0C6h
	. . .
0E02	C6 C6 

0E04	7C FE C6 06              DB 07Ch, 0FEh, 0C6h, 006h, 00Ch, 018h, 030h, 030h, 030h, 07Ch
	. . .
0E0C	30 7C 

0E0E	C6 C6 7C 7C              DB 0C6h, 0C6h, 07Ch, 07Ch, 0C6h, 0C6h, 07Ch, 07Ch, 0C6h, 0C6h
	. . .
0E16	C6 C6 

0E18	C6 7E 06 CC              DB 0C6h, 07Eh, 006h, 0CCh, 078h, 000h, 000h, 000h, 0FEh, 0FEh
	. . .
0E20	FE FE 

0E22	00 00 00 00              DB 000h, 000h, 000h, 000h, 000h, 018h, 03Ch, 03Ch, 018h, 000h
	. . .
0E2A	18 00 

0E2C	00 3E 36 36              DB 000h, 03Eh, 036h, 036h, 036h, 036h, 036h, 066h, 0C6h, 0D6h
	. . .
0E34	C6 D6 

0E36	D6 D6 D6 D6              DB 0D6h, 0D6h, 0D6h, 0D6h, 0D6h, 0FEh, 006h, 0D6h, 0D6h, 0C6h
	. . .
0E3E	D6 C6 

0E40	C6 CE D6 E6              DB 0C6h, 0CEh, 0D6h, 0E6h, 0C6h, 000h, 000h, 000h, 000h, 070h
	. . .
0E48	00 70 

0E4A	70 70 00 FE              DB 070h, 070h, 000h, 0FEh, 0C6h, 0C0h, 0C0h, 0C0h, 0C0h, 0C0h
	. . .
0E52	C0 C0 

0E54	C0 38 7C C6              DB 0C0h, 038h, 07Ch, 0C6h, 0C6h, 0FEh, 0C6h, 0C6h, 0C6h, 07Eh
	. . .
0E5C	C6 7E 

0E5E	C6 C6 C6 7E              DB 0C6h, 0C6h, 0C6h, 07Eh, 036h, 066h, 0C6h
	. . .
0E62	36 66 C6 

0E65	58 58 4A 3E     ljjqz:   DB 058h, 058h, 04Ah, 03Eh, 018h, 028h, 028h, 008h, 000h, 000h
	. . .
0E6D	00 00 

0E6F	00 00 00 00              DB 000h, 000h, 000h, 000h, 000h, 000h, 01Ah, 01Ah, 04Ah, 07Ch
	. . .
0E77	4A 7C 

0E79	18 14 14 10              DB 018h, 014h, 014h, 010h, 000h, 000h, 000h, 000h, 000h, 000h
	. . .
0E81	00 00 

0E83	00 00 30 30              DB 000h, 000h, 030h, 030h, 05Eh, 07Bh, 01Ch, 037h, 020h, 060h
	. . .
0E8B	20 60 

0E8D	00 00 00 00              DB 000h, 000h, 000h, 000h, 000h, 000h, 000h, 000h, 00Ch, 00Ch
	. . .
0E95	0C 0C 

0E97	07 1E 06 0E              DB 007h, 01Eh, 006h, 00Eh, 00Ah, 005h, 000h, 000h, 000h, 080h
	. . .
0E9F	00 80 

0EA1	80 00 00 00              DB 080h, 000h, 000h, 000h, 003h, 003h, 001h, 001h, 001h, 003h
	. . .
0EA9	01 03 

0EAB	03 01 00 00              DB 003h, 001h, 000h, 000h, 080h, 0C0h, 080h, 000h, 0C0h, 080h
	. . .
0EB3	C0 80 

0EB5	00 00 00 01              DB 000h, 000h, 000h, 001h, 000h, 000h, 000h, 000h, 0C0h, 0C0h
	. . .
0EBD	C0 C0 

0EBF	70 E8 68 E0              DB 070h, 0E8h, 068h, 0E0h, 0A0h, 050h, 00Ch, 00Ch, 07Ah, 0DEh
	. . .
0EC7	7A DE 

0EC9	38 EC 04 06              DB 038h, 0ECh, 004h, 006h, 000h, 000h, 000h, 000h, 000h, 000h
	. . .
0ED1	00 00 

0ED3	00 00 03 03              DB 000h, 000h, 003h, 003h, 00Eh, 017h, 016h, 007h, 005h, 00Ah
	. . .
0EDB	05 0A 

0EDD	00 00 00 80              DB 000h, 000h, 000h, 080h, 000h, 000h, 000h, 000h, 000h, 000h
	. . .
0EE5	00 00 

0EE7	01 03 01 00              DB 001h, 003h, 001h, 000h, 003h, 001h, 0C0h, 0C0h, 080h, 080h
	. . .
0EEF	80 80 

0EF1	80 C0 C0 80              DB 080h, 0C0h, 0C0h, 080h, 000h, 000h, 000h, 001h, 001h, 000h
	. . .
0EF9	01 00 

0EFB	00 00 30 30              DB 000h, 000h, 030h, 030h, 0E0h, 078h, 060h, 078h, 050h, 0A0h
	. . .
0F03	50 A0 

0F05	00 00 10 24     ljjrn:   DB 000h, 000h, 010h, 024h, 008h, 000h, 000h, 000h
	. . .
0F09	08 00 00 00 

0F0D	00 00           ljjhr:   DB 000h, 000h
0F0F	00 01 D6 80     lncgh:   DB 000h, 001h, 0D6h, 080h, 000h, 000h, 000h, 000h, 001h, 0ACh
	. . .
0F17	01 AC 

0F19	00 01 00 00              DB 000h, 001h, 000h, 000h, 080h, 091h, 05Ah, 000h, 000h, 034h
	. . .
0F21	00 34 

0F23	13 81 56 24              DB 013h, 081h, 056h, 024h, 000h, 000h, 000h, 000h, 048h, 02Ch
	. . .
0F2B	48 2C 

0F2D	07 0B           ljjhb:   DB 007h, 00Bh
0F2F	14 1D           lncfr:   DB 014h, 01Dh
0F31	14 1E           ljmpf:   DB 014h, 01Eh
0F33	00              lnfnv:   DB 000h
0F34	00              ljvrn:   DB 000h
0F35	08 11           ljjol:   DB 008h, 011h
0F37	01              lncnb:   DB 001h
0F38	00              ljyil:   DB 000h
0F39	01              ljmfj:   DB 001h
0F3A	00 13           lnrhb:   DB 000h, 013h
0F3C	00              ljvhr:   DB 000h
0F3D	06              ljjep:   DB 006h
0F3E	00 07           lnogh:   DB 000h, 007h
0F40	01              ljyvn:   DB 001h
0F41	3A              ljmsl:   DB 03Ah
0F42	F6 0F           lnrud:   DB 0F6h, 00Fh
0F44	F7 0F           ljvut:   DB 0F7h, 00Fh
0F46	F9 0F           lnotj:   DB 0F9h, 00Fh
0F48	FA 0F           ljylr:   DB 0FAh, 00Fh
0F4A	00              lnrkh:   DB 000h
0F4B	03 02 17 B7     lnfhf:   DB 003h, 002h, 017h, 0B7h
0F4F	03 02           lncgl:   DB 003h, 002h
0F51	00              ljmpz:   DB 000h
0F52	00              lnrrr:   DB 000h
0F53	05              lnfop:   DB 005h
0F54	00              ljvsh:   DB 000h
0F55	00 00 00 00     ljjpf:   DB 000h, 000h, 000h, 000h, 000h, 000h, 000h, 000h, 000h, 000h
	. . .
0F5D	00 00 

0F5F	00 00 00 00              DB 000h, 000h, 000h, 000h, 000h, 000h, 000h, 000h, 000h, 000h
	. . .
0F67	00 00 

0F69	00 00 00 00              DB 000h, 000h, 000h, 000h, 000h, 000h, 000h, 000h, 000h, 000h
	. . .
0F71	00 00 

0F73	00 00 00 00              DB 000h, 000h, 000h, 000h, 000h, 000h, 000h, 000h, 000h, 000h
	. . .
0F7B	00 00 

0F7D	00 00 00 00              DB 000h, 000h, 000h, 000h, 000h, 000h, 000h, 000h, 000h, 000h
	. . .
0F85	00 00 

0F87	00 00 00 00              DB 000h, 000h, 000h, 000h, 000h, 000h, 000h, 000h, 000h, 000h
	. . .
0F8F	00 00 

0F91	00 00 00 00              DB 000h, 000h, 000h, 000h
0F95	00 00 00 00     ljjpa:   DB 000h, 000h, 000h, 000h, 000h, 000h, 000h, 000h, 000h, 000h
	. . .
0F9D	00 00 

0F9F	00 00 00 00              DB 000h, 000h, 000h, 000h, 000h, 000h, 000h, 000h, 000h, 000h
	. . .
0FA7	00 00 

0FA9	00 00 00 00              DB 000h, 000h, 000h, 000h, 000h, 000h, 000h, 000h, 000h, 000h
	. . .
0FB1	00 00 

0FB3	00 00 00 00              DB 000h, 000h, 000h, 000h, 000h, 000h, 000h, 000h, 000h, 000h
	. . .
0FBB	00 00 

0FBD	00 00 00 00              DB 000h, 000h, 000h, 000h, 000h, 000h, 000h, 000h, 000h, 000h
	. . .
0FC5	00 00 

0FC7	00 00 00 00              DB 000h, 000h, 000h, 000h, 000h, 000h, 000h, 000h, 000h, 000h
	. . .
0FCF	00 00 

0FD1	00 00 00 00              DB 000h, 000h, 000h, 000h
0FD5	02 00 03 00     ljjpe:   DB 002h, 000h, 003h, 000h, 005h, 004h, 000h, 000h, 000h, 001h
	. . .
0FDD	00 01 

0FDF	1A 00 00 00              DB 01Ah, 000h, 000h, 000h, 001h
	. . .
0FE3	01 

0FE4	00              ljvuc:   DB 000h
0FE5	00              ljjra:   DB 000h
0FE6	02 00 00 00     lnoss:   DB 002h, 000h, 000h, 000h, 004h, 005h, 000h, 000h, 000h, 004h
	. . .
0FEE	00 04 

0FF0	1B 00 00 00              DB 01Bh, 000h, 000h, 000h, 004h, 018h
	. . .
0FF4	04 18 

0FF6	02 00           lnoqg:   DB 002h, 000h
0FF8	03 00 04        ljyio:   DB 003h, 000h, 004h
0FFB	04 00 00 00     lnfec:   DB 004h, 000h, 000h, 000h, 001h
	. . .
0FFF	01 

1000	1A 00 00 00     lkamr:   DB 01Ah, 000h, 000h, 000h, 001h
	. . .
1004	01 

1005	18              ljliv:   DB 018h
1006	0B 0B 00 0A     lnqkn:   DB 00Bh, 00Bh, 000h, 00Ah, 000h, 000h, 00Ah, 00Bh, 007h, 00Ah
	. . .
100E	07 0A 

1010	0A 07 0A 0A              DB 00Ah, 007h, 00Ah, 00Ah, 007h, 00Ah, 00Ah, 007h, 00Ah, 00Ah
	. . .
1018	0A 0A 

101A	07 0A 0A 07              DB 007h, 00Ah, 00Ah, 007h, 00Bh, 00Ah, 000h, 000h, 00Ah, 000h
	. . .
1022	0A 00 

1024	0B 0B 0B 0B              DB 00Bh, 00Bh, 00Bh, 00Bh, 000h, 00Ah, 00Ah, 00Ah, 00Ah, 00Bh
	. . .
102C	0A 0B 

102E	07 0B 0A 07              DB 007h, 00Bh, 00Ah, 007h, 00Bh, 00Ah, 007h, 00Bh, 00Ah, 007h
	. . .
1036	0A 07 

1038	0B 0A 07 0B              DB 00Bh, 00Ah, 007h, 00Bh, 00Ah, 007h, 00Bh, 00Ah, 00Ah, 00Ah
	. . .
1040	0A 0A 

1042	0A 00 0B 0B              DB 00Ah, 000h, 00Bh, 00Bh, 00Bh, 00Bh, 000h, 00Ah, 00Ah, 00Ah
	. . .
104A	0A 0A 

104C	0A 0A 07 0A              DB 00Ah, 00Ah, 007h, 00Ah, 00Ah, 007h, 00Ah, 00Ah, 007h, 00Ah
	. . .
1054	07 0A 

1056	0A 07 0A 0A              DB 00Ah, 007h, 00Ah, 00Ah, 007h, 00Ah, 00Ah, 007h, 00Ah, 00Ah
	. . .
105E	0A 0A 

1060	0A 0A 0A 00              DB 00Ah, 00Ah, 00Ah, 000h, 00Bh, 00Bh, 00Bh, 00Bh, 000h, 000h
	. . .
1068	00 00 

106A	00 00 00 00              DB 000h, 000h, 000h, 000h, 007h, 000h, 000h, 007h, 000h, 000h
	. . .
1072	00 00 

1074	07 00 00 07              DB 007h, 000h, 000h, 007h, 000h, 000h, 007h, 000h, 000h, 007h
	. . .
107C	00 07 

107E	00 00 00 00              DB 000h, 000h, 000h, 000h, 000h, 000h, 00Bh, 00Bh, 00Bh, 00Bh
	. . .
1086	0B 0B 

1088	07 06 07 0B              DB 007h, 006h, 007h, 00Bh, 00Ah, 00Ah, 00Ah, 00Ah, 00Ah, 00Ah
	. . .
1090	0A 0A 

1092	0A 0A 0A 0A              DB 00Ah, 00Ah, 00Ah, 00Ah, 00Ah, 00Ah, 00Ah, 00Ah, 00Ah, 00Ah
	. . .
109A	0A 0A 

109C	0A 0A 0A 0A              DB 00Ah, 00Ah, 00Ah, 00Ah, 00Bh, 007h, 006h, 007h, 00Bh, 00Bh
	. . .
10A4	0B 0B 

10A6	0B 0B 07 00              DB 00Bh, 00Bh, 007h, 000h, 007h, 00Bh, 00Ah, 000h, 000h, 000h
	. . .
10AE	00 00 

10B0	00 00 00 00              DB 000h, 000h, 000h, 000h, 000h, 000h, 000h, 000h, 000h, 000h
	. . .
10B8	00 00 

10BA	00 00 00 00              DB 000h, 000h, 000h, 000h, 000h, 00Ah, 00Bh, 007h, 000h, 007h
	. . .
10C2	00 07 

10C4	0B 0B 0B 0B              DB 00Bh, 00Bh, 00Bh, 00Bh, 007h, 000h, 007h, 00Bh, 00Ah, 000h
	. . .
10CC	0A 00 

10CE	00 00 00 00              DB 000h, 000h, 000h, 000h, 000h, 000h, 000h, 000h, 000h, 000h
	. . .
10D6	00 00 

10D8	00 00 00 00              DB 000h, 000h, 000h, 000h, 000h, 000h, 000h, 00Ah, 00Bh, 007h
	. . .
10E0	0B 07 

10E2	00 07 0B 0B              DB 000h, 007h, 00Bh, 00Bh, 00Bh, 00Bh, 007h, 000h, 007h, 00Bh
	. . .
10EA	07 0B 

10EC	0A 07 07 07              DB 00Ah, 007h, 007h, 007h, 007h, 007h, 007h, 007h, 007h, 007h
	. . .
10F4	07 07 

10F6	07 07 07 07              DB 007h, 007h, 007h, 007h, 007h, 007h, 007h, 007h, 007h, 00Ah
	. . .
10FE	07 0A 

1100	0B 07 00 07              DB 00Bh, 007h, 000h, 007h, 00Bh, 00Bh, 00Bh, 00Bh, 007h, 000h
	. . .
1108	07 00 

110A	07 0A 0A 00              DB 007h, 00Ah, 00Ah, 000h, 000h, 000h, 000h, 000h, 000h, 000h
	. . .
1112	00 00 

1114	00 00 00 00              DB 000h, 000h, 000h, 000h, 000h, 000h, 000h, 000h, 000h, 000h
	. . .
111C	00 00 

111E	00 0A 0A 07              DB 000h, 00Ah, 00Ah, 007h, 000h, 007h, 00Bh, 00Bh, 00Bh, 00Bh
	. . .
1126	0B 0B 

1128	0A 07 0B 06              DB 00Ah, 007h, 00Bh, 006h, 006h, 006h, 006h, 006h, 006h, 006h
	. . .
1130	06 06 

1132	06 06 06 06              DB 006h, 006h, 006h, 006h, 006h, 006h, 006h, 006h, 006h, 006h
	. . .
113A	06 06 

113C	06 06 06 06              DB 006h, 006h, 006h, 006h, 006h, 00Bh, 007h, 00Ah, 00Bh, 00Bh
	. . .
1144	0B 0B 

1146	0B 0B 0A 07              DB 00Bh, 00Bh, 00Ah, 007h, 00Bh, 001h, 001h, 001h, 001h, 001h
	. . .
114E	01 01 

1150	01 01 01 01              DB 001h, 001h, 001h, 001h, 001h, 001h, 001h, 001h, 001h, 001h
	. . .
1158	01 01 

115A	01 01 01 01              DB 001h, 001h, 001h, 001h, 001h, 001h, 001h, 00Bh, 007h, 00Ah
	. . .
1162	07 0A 

1164	0B 0B 0B 0B              DB 00Bh, 00Bh, 00Bh, 00Bh, 00Ah, 007h, 00Bh, 004h, 00Bh, 00Bh
	. . .
116C	0B 0B 

116E	0B 04 0B 0B              DB 00Bh, 004h, 00Bh, 00Bh, 00Bh, 004h, 004h, 00Bh, 00Bh, 004h
	. . .
1176	0B 04 

1178	04 04 0B 0B              DB 004h, 004h, 00Bh, 00Bh, 00Bh, 00Bh, 004h, 004h, 004h, 00Bh
	. . .
1180	04 0B 

1182	07 0A 0B 0B              DB 007h, 00Ah, 00Bh, 00Bh, 00Bh, 00Bh, 00Ah, 007h, 00Bh, 005h
	. . .
118A	0B 05 

118C	0B 0B 05 0B              DB 00Bh, 00Bh, 005h, 00Bh, 00Bh, 00Bh, 005h, 005h, 005h, 00Bh
	. . .
1194	05 0B 

1196	05 05 05 05              DB 005h, 005h, 005h, 005h, 005h, 00Bh, 00Bh, 005h, 005h, 005h
	. . .
119E	05 05 

11A0	05 0B 07 0A              DB 005h, 00Bh, 007h, 00Ah, 00Bh, 00Bh, 00Bh, 00Bh, 00Ah, 007h
	. . .
11A8	0A 07 

11AA	0B 05 0B 05              DB 00Bh, 005h, 00Bh, 005h, 00Bh, 00Bh, 00Bh, 00Bh, 005h, 00Bh
	. . .
11B2	05 0B 

11B4	05 0B 05 0B              DB 005h, 00Bh, 005h, 00Bh, 00Bh, 00Bh, 005h, 00Bh, 00Bh, 005h
	. . .
11BC	0B 05 

11BE	0B 0B 05 0B              DB 00Bh, 00Bh, 005h, 00Bh, 007h, 00Ah, 00Bh, 00Bh, 00Bh, 00Bh
	. . .
11C6	0B 0B 

11C8	0A 07 0B 05              DB 00Ah, 007h, 00Bh, 005h, 005h, 00Bh, 00Bh, 00Bh, 00Bh, 00Bh
	. . .
11D0	0B 0B 

11D2	05 0B 05 0B              DB 005h, 00Bh, 005h, 00Bh, 005h, 005h, 005h, 005h, 005h, 00Bh
	. . .
11DA	05 0B 

11DC	0B 05 0B 0B              DB 00Bh, 005h, 00Bh, 00Bh, 005h, 00Bh, 007h, 00Ah, 00Bh, 00Bh
	. . .
11E4	0B 0B 

11E6	0B 0B 0A 07              DB 00Bh, 00Bh, 00Ah, 007h, 00Bh, 005h, 00Bh, 005h, 00Bh, 00Bh
	. . .
11EE	0B 0B 

11F0	0B 0B 05 0B              DB 00Bh, 00Bh, 005h, 00Bh, 005h, 00Bh, 005h, 00Bh, 00Bh, 00Bh
	. . .
11F8	0B 0B 

11FA	05 0B 0B 05              DB 005h, 00Bh, 00Bh, 005h, 00Bh, 00Bh
	. . .
11FE	0B 0B 

1200	05 0B 07 0A     lkamj:   DB 005h, 00Bh, 007h, 00Ah, 00Bh, 00Bh, 00Bh, 00Bh, 00Ah, 007h
	. . .
1208	0A 07 

120A	0B 05 0B 0B              DB 00Bh, 005h, 00Bh, 00Bh, 005h, 00Bh, 00Bh, 00Bh, 005h
	. . .
1212	05 

1213	0B 05 0B 05     lnhfl:   DB 00Bh, 005h, 00Bh, 005h, 00Bh, 00Bh, 00Bh, 005h, 00Bh, 00Bh
	. . .
121B	0B 0B 

121D	05 0B 0B 05              DB 005h, 00Bh, 00Bh, 005h, 00Bh, 007h, 00Ah, 00Bh, 00Bh, 00Bh
	. . .
1225	0B 0B 

1227	0B 0A 07 0B              DB 00Bh, 00Ah, 007h, 00Bh, 005h, 00Bh, 00Bh, 00Bh, 005h, 00Bh
	. . .
122F	05 0B 

1231	05 05 0B 05              DB 005h, 005h, 00Bh, 005h, 00Bh, 005h, 00Bh, 00Bh, 00Bh, 005h
	. . .
1239	0B 05 

123B	0B 05 05 05              DB 00Bh, 005h, 005h, 005h, 005h, 005h, 00Bh, 007h, 00Ah, 00Bh
	. . .
1243	0A 0B 

1245	0B 0B 0B 0A              DB 00Bh, 00Bh, 00Bh, 00Ah, 007h, 00Bh, 00Bh, 00Bh, 00Bh, 00Bh
	. . .
124D	0B 0B 

124F	0B 0B 0B 0B              DB 00Bh, 00Bh, 00Bh, 00Bh, 00Bh, 00Bh, 00Bh, 00Bh, 00Bh, 00Bh
	. . .
1257	0B 0B 

1259	0B 0B 0B 0B              DB 00Bh, 00Bh, 00Bh, 00Bh, 00Bh, 00Bh, 00Bh, 00Bh, 00Bh, 007h
	. . .
1261	0B 07 

1263	0A 0B 0B 0B              DB 00Ah, 00Bh, 00Bh, 00Bh, 00Bh, 00Ah, 007h, 000h, 000h, 000h
	. . .
126B	00 00 

126D	00 00 00 00              DB 000h, 000h, 000h, 000h, 000h, 000h, 000h, 000h, 000h, 000h
	. . .
1275	00 00 

1277	00 00 00 00              DB 000h, 000h, 000h, 000h, 000h, 000h, 000h, 000h, 000h, 000h
	. . .
127F	00 00 

1281	00 07 0A 0B              DB 000h, 007h, 00Ah, 00Bh, 00Bh, 00Bh, 00Bh, 00Ah, 007h, 000h
	. . .
1289	07 00 

128B	07 0B 06 06              DB 007h, 00Bh, 006h, 006h, 006h, 006h, 006h, 006h, 006h, 006h
	. . .
1293	06 06 

1295	06 06 06 06              DB 006h, 006h, 006h, 006h, 006h, 006h, 006h, 006h, 006h, 006h
	. . .
129D	06 06 

129F	0B 07 00 07              DB 00Bh, 007h, 000h, 007h, 00Ah, 00Bh, 00Bh, 00Bh, 00Bh, 00Bh
	. . .
12A7	0B 0B 

12A9	0B 0B 0B 0B              DB 00Bh, 00Bh, 00Bh, 00Bh, 004h
	. . .
12AD	04 

12AE	04 04 04 04     lnpzs:   DB 004h, 004h, 004h, 004h, 004h, 004h, 004h, 004h, 004h, 004h
	. . .
12B6	04 04 

12B8	04 04 04 04              DB 004h, 004h, 004h, 004h, 004h, 004h, 004h, 00Bh, 00Bh, 00Bh
	. . .
12C0	0B 0B 

12C2	0B 0B 0B 0B              DB 00Bh, 00Bh, 00Bh, 00Bh
12C6	AF              lnqki:   XRA A
12C7	32 4A 0F                 STA lnrkh
12CA	C3 F0 07                 JMP ljyxi
12CD	FE 43           ljkyu:   CPI 043h
12CF	CA D4 08                 JZ ljvrg
12D2	FE 83                    CPI 083h
12D4	C2 73 03                 JNZ lnfrr
12D7	3A 53 0F                 LDA lnfop
12DA	3C                       INR A
12DB	27                       DAA
12DC	32 53 0F                 STA lnfop
12DF	C3 73 03                 JMP lnfrr
12E2	37 3F 17 5F              DB 037h, 03Fh, 017h, 05Fh, 07Ah, 017h, 057h, 00Dh, 0C2h, 0E1h
	. . .
12EA	C2 E1 

12EC	01 19 EB E1              DB 001h, 019h, 0EBh, 0E1h, 0E5h, 00Eh, 008h, 01Ah, 077h, 023h
	. . .
12F4	77 23 

12F6	13 0D C2 F3              DB 013h, 00Dh, 0C2h, 0F3h, 001h, 0E1h, 0D1h, 0C1h, 0C9h, 07Eh
	. . .
12FE	C9 7E 

1300	02 00 00 00     lkaml:   DB 002h, 000h, 000h, 000h, 004h, 005h, 000h, 000h, 000h, 004h
	. . .
1308	00 04 

130A	1B 00 00 00              DB 01Bh, 000h, 000h, 000h, 004h, 018h, 0BBh, 00Ah, 000h, 0ABh
	. . .
1312	00 AB 

1314	7A A7 AA 7A              DB 07Ah, 0A7h, 0AAh, 07Ah, 0A7h, 0AAh, 07Ah, 0A7h, 0BAh, 000h
	. . .
131C	BA 00 

131E	A0 BB BB 0A              DB 0A0h, 0BBh, 0BBh, 00Ah, 0AAh, 0ABh, 07Bh, 0A7h, 0BAh, 07Bh
	. . .
1326	BA 7B 

1328	A7 BA 7B A7              DB 0A7h, 0BAh, 07Bh, 0A7h, 0BAh, 0AAh, 0A0h, 0BBh, 0BBh, 00Ah
	. . .
1330	BB 0A 

1332	AA AA 7A A7              DB 0AAh, 0AAh, 07Ah, 0A7h, 0AAh, 07Ah, 0A7h, 0AAh, 07Ah, 0A7h
	. . .
133A	7A A7 

133C	AA AA A0 BB              DB 0AAh, 0AAh, 0A0h, 0BBh, 0BBh, 000h, 000h, 000h, 070h, 007h
	. . .
1344	70 07 

1346	00 70 07 00              DB 000h, 070h, 007h, 000h, 070h, 007h, 000h, 000h, 000h, 0BBh
	. . .
134E	00 BB 

1350	BB 76 7B AA              DB 0BBh, 076h, 07Bh, 0AAh, 0AAh, 0AAh, 0AAh, 0AAh, 0AAh, 0AAh
	. . .
1358	AA AA 

135A	AA AA AA B7              DB 0AAh, 0AAh, 0AAh, 0B7h, 067h, 0BBh, 0BBh, 070h, 07Bh, 0A0h
	. . .
1362	7B A0 

1364	00 00 00 00              DB 000h, 000h, 000h, 000h, 000h, 000h, 000h, 000h, 00Ah, 0B7h
	. . .
136C	0A B7 

136E	07 BB BB 70              DB 007h, 0BBh, 0BBh, 070h, 07Bh, 0A0h, 000h, 000h, 000h
	. . .
1376	00 

1377	00 00 00 00     lneeh:   DB 000h, 000h, 000h, 000h, 000h, 00Ah, 0B7h, 007h, 0BBh, 0BBh
	. . .
137F	BB BB 

1381	70 7B A7 77              DB 070h, 07Bh, 0A7h, 077h, 077h, 077h, 077h, 077h, 077h, 077h
	. . .
1389	77 77 

138B	77 7A B7 07              DB 077h, 07Ah, 0B7h, 007h, 0BBh, 0BBh, 070h, 07Ah, 0A0h, 000h
	. . .
1393	A0 00 

1395	00 00 00 00              DB 000h, 000h, 000h, 000h, 000h, 000h, 000h, 00Ah, 0A7h, 007h
	. . .
139D	A7 07 

139F	BB BB A7 B6              DB 0BBh, 0BBh, 0A7h, 0B6h, 066h, 066h, 066h, 066h, 066h, 066h
	. . .
13A7	66 66 

13A9	66 66 66 66              DB 066h, 066h, 066h, 066h, 06Bh, 07Ah, 0BBh, 0BBh, 0A7h, 0B1h
	. . .
13B1	A7 B1 

13B3	11 11 11 11              DB 011h, 011h, 011h, 011h, 011h, 011h, 011h, 011h, 011h, 011h
	. . .
13BB	11 11 

13BD	1B 7A BB BB              DB 01Bh, 07Ah, 0BBh, 0BBh, 0A7h, 0B4h, 0BBh, 0B4h, 0BBh, 0B4h
	. . .
13C5	BB B4 

13C7	4B B4 44 BB              DB 04Bh, 0B4h, 044h, 0BBh, 0BBh, 044h, 04Bh, 07Ah, 0BBh, 0BBh
	. . .
13CF	BB BB 

13D1	A7 B5 BB 5B              DB 0A7h, 0B5h, 0BBh, 05Bh, 0BBh, 055h, 05Bh, 055h, 055h, 05Bh
	. . .
13D9	55 5B 

13DB	B5 55 5B 7A              DB 0B5h, 055h, 05Bh, 07Ah, 0BBh, 0BBh, 0A7h, 0B5h, 0B5h, 0BBh
	. . .
13E3	B5 BB 

13E5	BB 5B 5B 5B              DB 0BBh, 05Bh, 05Bh, 05Bh, 0BBh, 05Bh, 0B5h, 0BBh, 05Bh, 07Ah
	. . .
13ED	5B 7A 

13EF	BB BB A7 B5              DB 0BBh, 0BBh, 0A7h, 0B5h, 05Bh, 0BBh, 0BBh, 05Bh, 05Bh, 055h
	. . .
13F7	5B 55 

13F9	55 5B B5 BB              DB 055h, 05Bh, 0B5h, 0BBh, 05Bh, 07Ah, 0BBh, 0BBh, 0A7h, 0B5h
	. . .
1401	A7 B5 

1403	B5 BB BB 5B              DB 0B5h, 0BBh, 0BBh, 05Bh, 05Bh, 05Bh, 0BBh, 05Bh, 0B5h, 0BBh
	. . .
140B	B5 BB 

140D	5B 7A BB BB              DB 05Bh, 07Ah, 0BBh, 0BBh, 0A7h, 0B5h, 0BBh, 05Bh, 0BBh, 05Bh
	. . .
1415	BB 5B 

1417	5B 5B BB 5B              DB 05Bh, 05Bh, 0BBh, 05Bh, 0B5h, 0BBh, 05Bh, 07Ah, 0BBh, 0BBh
	. . .
141F	BB BB 

1421	A7 B5 BB B5              DB 0A7h, 0B5h, 0BBh, 0B5h, 0B5h, 05Bh, 05Bh, 05Bh, 0BBh, 05Bh
	. . .
1429	BB 5B 

142B	55 55 5B 7A              DB 055h, 055h, 05Bh, 07Ah, 0BBh, 0BBh, 0A7h, 0BBh, 0BBh, 0BBh
	. . .
1433	BB BB 

1435	BB BB BB BB              DB 0BBh, 0BBh, 0BBh, 0BBh, 0BBh, 0BBh, 0BBh, 0BBh, 0BBh, 07Ah
	. . .
143D	BB 7A 

143F	BB BB A7 00              DB 0BBh, 0BBh, 0A7h, 000h, 000h, 000h, 000h, 000h, 000h, 000h
	. . .
1447	00 00 

1449	00 00 00 00              DB 000h, 000h, 000h, 000h, 000h, 07Ah, 0BBh, 0BBh, 0A7h, 007h
	. . .
1451	A7 07 

1453	B6 66 66 66              DB 0B6h, 066h, 066h, 066h, 066h, 066h, 066h, 066h, 066h, 06Bh
	. . .
145B	66 6B 

145D	70 7A BB BB              DB 070h, 07Ah, 0BBh, 0BBh, 0BBh, 0BBh, 0B4h, 044h, 044h, 044h
	. . .
1465	44 44 

1467	44 44 44 44              DB 044h, 044h, 044h, 044h, 044h, 04Bh, 0BBh, 0BBh, 0BBh, 002h
	. . .
146F	BB 02 

1471	00 00 00 04              DB 000h, 000h, 000h, 004h, 011h, 000h, 001h, 000h, 004h, 000h
	. . .
1479	04 00 

147B	00 00 00 01              DB 000h, 000h, 000h, 001h, 0FFh, 0BBh, 00Bh, 0AAh, 0AAh, 0AAh
	. . .
1483	AA AA 

1485	AA AA AA AA              DB 0AAh, 0AAh, 0AAh, 0AAh, 0AAh, 0AAh, 0AAh, 0AAh, 0AAh, 07Ah
	. . .
148D	AA 7A 

148F	BB BB 0B 00              DB 0BBh, 0BBh, 00Bh, 000h, 000h, 000h, 000h, 000h, 000h, 000h
	. . .
1497	00 00 

1499	00 00 00 00              DB 000h, 000h, 000h, 000h, 000h, 070h, 0BBh, 0BBh, 00Bh, 07Ah
	. . .
14A1	0B 7A 

14A3	A0 07 AA 00              DB 0A0h, 007h, 0AAh, 000h, 000h, 000h, 007h, 0AAh, 0AAh, 0A0h
	. . .
14AB	AA A0 

14AD	00 70 BB BB              DB 000h, 070h, 0BBh, 0BBh, 00Bh, 07Ah, 0A0h, 007h, 0AAh, 06Ah
	. . .
14B5	AA 6A 

14B7	7A AA AA AA              DB 07Ah, 0AAh, 0AAh, 0AAh, 0AAh, 0A6h, 0AAh, 07Ah, 0BBh, 0BBh
	. . .
14BF	BB BB 

14C1	0B 7A A6 A7              DB 00Bh, 07Ah, 0A6h, 0A7h, 000h, 000h, 070h, 000h, 000h, 000h
	. . .
14C9	00 00 

14CB	00 90 00 70              DB 000h, 090h, 000h, 070h, 0BBh, 0BBh, 00Bh, 070h, 000h, 007h
	. . .
14D3	00 07 

14D5	00 00 70 00              DB 000h, 000h, 070h, 000h, 000h, 000h, 07Ah, 0AAh, 0AAh, 0A0h
	. . .
14DD	AA A0 

14DF	BB BB 0B 70              DB 0BBh, 0BBh, 00Bh, 070h, 000h, 007h, 000h, 00Ah, 0AAh, 0AAh
	. . .
14E7	AA AA 

14E9	AA AA 70 00              DB 0AAh, 0AAh, 070h, 000h, 000h, 070h, 0BBh, 0BBh, 00Bh, 070h
	. . .
14F1	0B 70 

14F3	00 07 00 00              DB 000h, 007h, 000h, 000h, 000h, 000h, 000h, 00Ah, 0AAh, 070h
	. . .
14FB	AA 70 

14FD	00 70 BB BB              DB 000h, 070h, 0BBh, 0BBh, 00Bh, 070h, 0AAh, 0A7h, 0AAh, 06Ah
	. . .
1505	AA 6A 

1507	A0 02 00 00              DB 0A0h, 002h, 000h, 000h, 000h, 076h, 066h, 070h, 0BBh, 0BBh
	. . .
150F	BB BB 

1511	0B 70 00 07              DB 00Bh, 070h, 000h, 007h, 000h, 000h, 0AAh, 0AAh, 0AAh, 0AAh
	. . .
1519	AA AA 

151B	00 70 00 70              DB 000h, 070h, 000h, 070h, 0BBh, 0BBh, 00Bh, 070h, 000h, 007h
	. . .
1523	00 07 

1525	00 00 00 01              DB 000h, 000h, 000h, 001h, 001h, 000h, 000h, 070h, 000h, 070h
	. . .
152D	00 70 

152F	BB BB 0B 70              DB 0BBh, 0BBh, 00Bh, 070h, 00Ah, 0AAh, 0AAh, 06Ah, 0A7h, 0AAh
	. . .
1537	A7 AA 

1539	0A AA A0 70              DB 00Ah, 0AAh, 0A0h, 070h, 000h, 070h, 0BBh, 0BBh, 00Bh, 070h
	. . .
1541	0B 70 

1543	00 00 00 00              DB 000h, 000h, 000h, 000h, 007h, 000h, 000h, 000h, 000h, 070h
	. . .
154B	00 70 

154D	00 70 BB BB              DB 000h, 070h, 0BBh, 0BBh, 00Bh, 0A6h, 06Ah, 0A7h, 000h, 000h
	. . .
1555	00 00 

1557	07 00 0A AA              DB 007h, 000h, 00Ah, 0AAh, 000h, 070h, 007h, 0A0h, 0BBh, 0BBh
	. . .
155F	BB BB 

1561	0B 00 00 07              DB 00Bh, 000h, 000h, 007h, 000h, 000h, 007h, 0AAh, 06Ah, 0AAh
	. . .
1569	6A AA 

156B	6A A0 07 00              DB 06Ah, 0A0h, 007h, 000h, 0BBh, 0BBh, 00Bh, 030h, 000h, 0AAh
	. . .
1573	00 AA 

1575	AA AA 67 00              DB 0AAh, 0AAh, 067h, 000h, 000h, 000h, 000h, 000h, 007h, 001h
	. . .
157D	07 01 

157F	BB BB 0B AA              DB 0BBh, 0BBh, 00Bh, 0AAh, 000h, 000h, 000h, 000h, 007h, 000h
	. . .
1587	07 00 

1589	00 00 0A 7A              DB 000h, 000h, 00Ah, 07Ah, 007h, 0AAh, 0BBh, 0BBh, 00Bh, 010h
	. . .
1591	0B 10 

1593	00 A7 AA AA              DB 000h, 0A7h, 0AAh, 0AAh, 0AAh, 0AAh, 06Ah, 0A0h, 000h, 070h
	. . .
159B	00 70 

159D	07 0A BB BB              DB 007h, 00Ah, 0BBh, 0BBh, 00Bh, 0AAh, 0A0h, 007h, 000h, 000h
	. . .
15A5	00 00 

15A7	00 00 00 00              DB 000h, 000h, 000h, 000h, 0AAh, 07Ah, 0AAh, 00Ah, 0BBh, 0BBh
	. . .
15AF	BB BB 

15B1	0B 00 00 07              DB 00Bh, 000h, 000h, 007h, 0AAh, 0AAh, 0AAh, 0AAh, 06Ah, 000h
	. . .
15B9	6A 00 

15BB	00 70 00 1A              DB 000h, 070h, 000h, 01Ah, 0BBh, 0BBh, 000h, 000h, 000h, 007h
	. . .
15C3	00 07 

15C5	00 00 00 00              DB 000h, 000h, 000h, 000h, 000h, 000h, 000h, 070h, 00Ah, 0AAh
	. . .
15CD	0A AA 

15CF	BB BB BB BB              DB 0BBh, 0BBh, 0BBh, 0BBh, 0BBh, 0BBh, 044h, 044h, 044h, 044h
	. . .
15D7	44 44 

15D9	44 44 44 BB              DB 044h, 044h, 044h, 0BBh, 0BBh, 0BBh, 0BBh, 002h, 000h, 014h
	. . .
15E1	00 14 

15E3	00 02 18 00              DB 000h, 002h, 018h, 000h, 000h, 000h, 004h, 000h, 000h, 000h
	. . .
15EB	00 00 

15ED	00 01 FF BB              DB 000h, 001h, 0FFh, 0BBh, 0AAh, 0AAh, 0AAh, 0AAh, 0AAh, 0AAh
	. . .
15F5	AA AA 

15F7	AA AA AA AA              DB 0AAh, 0AAh, 0AAh, 0AAh, 0AAh, 00Ah, 07Ah, 0AAh, 0BBh, 0BBh
	. . .
15FF	BB BB 

1601	00 00 00 00              DB 000h, 000h, 000h, 000h, 000h, 000h, 000h, 030h, 000h, 000h
	. . .
1609	00 00 

160B	00 00 70 00              DB 000h, 000h, 070h, 000h, 0BBh, 0BBh, 000h, 007h, 0AAh, 0AAh
	. . .
1613	AA AA 

1615	66 6A AA AA              DB 066h, 06Ah, 0AAh, 0AAh, 0A6h, 066h, 0AAh, 0AAh, 0A0h, 000h
	. . .
161D	A0 00 

161F	BB BB 00 07              DB 0BBh, 0BBh, 000h, 007h, 000h, 000h, 000h, 000h, 000h, 000h
	. . .
1627	00 00 

1629	00 00 00 00              DB 000h, 000h, 000h, 000h, 000h, 000h, 0BBh, 0BBh, 010h, 007h
	. . .
1631	10 07 

1633	00 00 00 00              DB 000h, 000h, 000h, 000h, 000h, 000h, 000h, 000h, 000h, 000h
	. . .
163B	00 00 

163D	00 00 BB BB              DB 000h, 000h, 0BBh, 0BBh, 0A7h, 0AAh, 000h, 00Ah, 07Ah, 0AAh
	. . .
1645	7A AA 

1647	A6 66 66 AA              DB 0A6h, 066h, 066h, 0AAh, 0AAh, 0A7h, 000h, 000h, 0BBh, 0BBh
	. . .
164F	BB BB 

1651	07 00 00 00              DB 007h, 000h, 000h, 000h, 070h, 000h, 000h, 000h, 000h, 000h
	. . .
1659	00 00 

165B	00 07 00 00              DB 000h, 007h, 000h, 000h, 0BBh, 0BBh, 007h, 000h, 000h, 000h
	. . .
1663	00 00 

1665	70 00 00 00              DB 070h, 000h, 000h, 000h, 000h, 000h, 000h, 007h, 000h, 000h
	. . .
166D	00 00 

166F	BB BB 07 01              DB 0BBh, 0BBh, 007h, 001h, 000h, 000h, 070h, 000h, 001h, 000h
	. . .
1677	01 00 

1679	00 00 00 17              DB 000h, 000h, 000h, 017h, 000h, 000h, 0BBh, 0BBh, 007h, 00Ah
	. . .
1681	07 0A 

1683	7A AA A0 00              DB 07Ah, 0AAh, 0A0h, 000h, 07Ah, 0AAh, 0A7h, 0A0h, 000h, 0AAh
	. . .
168B	00 AA 

168D	A7 00 BB BB              DB 0A7h, 000h, 0BBh, 0BBh, 007h, 000h, 070h, 000h, 000h, 000h
	. . .
1695	00 00 

1697	70 00 07 00              DB 070h, 000h, 007h, 000h, 000h, 000h, 007h, 000h, 0BBh, 0BBh
	. . .
169F	BB BB 

16A1	07 00 70 00              DB 007h, 000h, 070h, 000h, 000h, 000h, 070h, 000h, 007h, 000h
	. . .
16A9	07 00 

16AB	00 00 07 00              DB 000h, 000h, 007h, 000h, 0BBh, 0BBh, 007h, 000h, 070h, 000h
	. . .
16B3	70 00 

16B5	00 00 70 00              DB 000h, 000h, 070h, 000h, 007h, 000h, 000h, 000h, 007h, 000h
	. . .
16BD	07 00 

16BF	BB BB AA AA              DB 0BBh, 0BBh, 0AAh, 0AAh, 0A0h, 000h, 07Ah, 0AAh, 0A0h, 000h
	. . .
16C7	A0 00 

16C9	07 AA AA 70              DB 007h, 0AAh, 0AAh, 070h, 007h, 000h, 0BBh, 0BBh, 000h, 000h
	. . .
16D1	00 00 

16D3	00 00 70 00              DB 000h, 000h, 070h, 000h, 000h, 000h, 007h, 000h, 000h, 070h
	. . .
16DB	00 70 

16DD	07 00 BB BB              DB 007h, 000h, 0BBh, 0BBh, 000h, 000h, 000h, 000h, 070h, 000h
	. . .
16E5	70 00 

16E7	00 00 07 00              DB 000h, 000h, 007h, 000h, 000h, 070h, 007h, 000h, 0BBh, 0BBh
	. . .
16EF	BB BB 

16F1	00 01 00 00              DB 000h, 001h, 000h, 000h, 070h, 000h, 001h, 000h, 007h, 000h
	. . .
16F9	07 00 

16FB	00 70 07 00              DB 000h, 070h, 007h, 000h, 0BBh, 0BBh, 000h, 00Ah, 0A7h, 0AAh
	. . .
1703	A7 AA 

1705	AA A0 0A AA              DB 0AAh, 0A0h, 00Ah, 0AAh, 0AAh, 0A0h, 000h, 0AAh, 0AAh, 000h
	. . .
170D	AA 00 

170F	BB BB 00 00              DB 0BBh, 0BBh, 000h, 000h, 007h, 000h, 000h, 000h, 000h, 000h
	. . .
1717	00 00 

1719	00 00 00 00              DB 000h, 000h, 000h, 000h, 000h, 000h, 0BBh, 0BBh, 000h, 000h
	. . .
1721	00 00 

1723	07 00 00 00              DB 007h, 000h, 000h, 000h, 000h, 000h, 000h, 000h, 000h, 000h
	. . .
172B	00 00 

172D	00 00 BB BB              DB 000h, 000h, 0BBh, 0BBh, 000h, 000h, 007h, 000h, 000h, 000h
	. . .
1735	00 00 

1737	00 00 00 00              DB 000h, 000h, 000h, 000h, 000h, 000h, 000h, 000h, 0BBh, 0BBh
	. . .
173F	BB BB 

1741	BB BB BB B4              DB 0BBh, 0BBh, 0BBh, 0B4h, 044h, 044h, 044h, 044h, 044h, 044h
	. . .
1749	44 44 

174B	44 44 44 44              DB 044h, 044h, 044h, 044h, 0BBh, 002h, 000h, 014h, 000h, 002h
	. . .
1753	00 02 

1755	0F 00 00 00              DB 00Fh, 000h, 000h, 000h, 004h, 000h, 000h, 000h, 000h, 004h
	. . .
175D	00 04 

175F	FF BB AA AA              DB 0FFh, 0BBh, 0AAh, 0AAh, 0AAh, 0AAh, 0AAh, 0AAh, 0A0h, 0AAh
	. . .
1767	A0 AA 

1769	AA AA AA AA              DB 0AAh, 0AAh, 0AAh, 0AAh, 0AAh, 07Ah, 0BBh, 0BBh, 000h, 000h
	. . .
1771	00 00 

1773	00 00 00 00              DB 000h, 000h, 000h, 000h, 000h, 000h, 000h, 000h, 010h, 0A0h
	. . .
177B	10 A0 

177D	90 70 BB BB              DB 090h, 070h, 0BBh, 0BBh, 000h, 067h, 0AAh, 0AAh, 0AAh, 0A7h
	. . .
1785	AA A7 

1787	AA AA AA AA              DB 0AAh, 0AAh, 0AAh, 0AAh, 0A0h, 0A7h, 0AAh, 0AAh, 0BBh, 0BBh
	. . .
178F	BB BB 

1791	01 07 00 00              DB 001h, 007h, 000h, 000h, 002h, 007h, 000h, 000h, 000h, 007h
	. . .
1799	00 07 

179B	00 07 A7 A3              DB 000h, 007h, 0A7h, 0A3h, 0BBh, 0BBh, 00Ah, 007h, 0A0h, 0AAh
	. . .
17A3	A0 AA 

17A5	AA AA 0A 07              DB 0AAh, 0AAh, 00Ah, 007h, 0AAh, 0A7h, 0A6h, 0AAh, 007h, 0AAh
	. . .
17AD	07 AA 

17AF	BB BB 0A 07              DB 0BBh, 0BBh, 00Ah, 007h, 000h, 000h, 000h, 000h, 000h, 007h
	. . .
17B7	00 07 

17B9	00 0A 00 00              DB 000h, 00Ah, 000h, 000h, 007h, 0A0h, 0BBh, 0BBh, 00Ah, 007h
	. . .
17C1	0A 07 

17C3	00 06 AA AA              DB 000h, 006h, 0AAh, 0AAh, 06Ah, 06Ah, 0AAh, 0AAh, 076h, 066h
	. . .
17CB	76 66 

17CD	A0 A0 BB BB              DB 0A0h, 0A0h, 0BBh, 0BBh, 00Ah, 007h, 0A6h, 070h, 000h, 000h
	. . .
17D5	00 00 

17D7	0A 00 00 00              DB 00Ah, 000h, 000h, 000h, 070h, 000h, 000h, 000h, 0BBh, 0BBh
	. . .
17DF	BB BB 

17E1	0A 00 00 76              DB 00Ah, 000h, 000h, 076h, 0AAh, 0AAh, 00Ah, 007h, 0AAh, 0AAh
	. . .
17E9	AA AA 

17EB	A6 A6 AA AA              DB 0A6h, 0A6h, 0AAh, 0AAh, 0BBh, 0BBh, 00Ah, 066h, 0A0h, 070h
	. . .
17F3	A0 70 

17F5	01 0A 0A 07              DB 001h, 00Ah, 00Ah, 007h, 000h, 000h, 000h, 000h, 000h, 000h
	. . .
17FD	00 00 

17FF	BB BB 0A 00              DB 0BBh, 0BBh, 00Ah, 000h, 0A0h, 07Ah, 0AAh, 00Ah, 000h, 00Bh
	. . .
1807	00 0B 

1809	66 AA A6 A6              DB 066h, 0AAh, 0A6h, 0A6h, 0AAh, 070h, 0BBh, 0BBh, 00Ah, 010h
	. . .
1811	0A 10 

1813	A0 70 0A 0A              DB 0A0h, 070h, 00Ah, 00Ah, 0AAh, 00Bh, 044h, 04Bh, 001h, 0A0h
	. . .
181B	01 A0 

181D	AA 70 BB BB              DB 0AAh, 070h, 0BBh, 0BBh, 00Ah, 0A0h, 0A0h, 070h, 000h, 000h
	. . .
1825	00 00 

1827	0A 0B BB BB              DB 00Ah, 00Bh, 0BBh, 0BBh, 00Ah, 0A0h, 000h, 070h, 0BBh, 0BBh
	. . .
182F	BB BB 

1831	0A A0 B4 BA              DB 00Ah, 0A0h, 0B4h, 0BAh, 07Ah, 06Ah, 000h, 000h, 000h, 000h
	. . .
1839	00 00 

183B	0A A6 AA 70              DB 00Ah, 0A6h, 0AAh, 070h, 0BBh, 0BBh, 00Ah, 0A0h, 0BBh, 0BAh
	. . .
1843	BB BA 

1845	7A 0A AA 6A              DB 07Ah, 00Ah, 0AAh, 06Ah, 0AAh, 0A0h, 000h, 000h, 0AAh, 070h
	. . .
184D	AA 70 

184F	BB BB 0A A1              DB 0BBh, 0BBh, 00Ah, 0A1h, 000h, 000h, 070h, 000h, 000h, 000h
	. . .
1857	00 00 

1859	00 A6 6A A0              DB 000h, 0A6h, 06Ah, 0A0h, 0AAh, 070h, 0BBh, 0BBh, 00Ah, 0AAh
	. . .
1861	0A AA 

1863	0A 7A AA 6A              DB 00Ah, 07Ah, 0AAh, 06Ah, 0AAh, 0AAh, 0A0h, 000h, 000h, 000h
	. . .
186B	00 00 

186D	AA 70 BB BB              DB 0AAh, 070h, 0BBh, 0BBh, 00Ah, 0AAh, 000h, 070h, 000h, 000h
	. . .
1875	00 00 

1877	01 00 00 B7              DB 001h, 000h, 000h, 0B7h, 06Ah, 000h, 000h, 070h, 0BBh, 0BBh
	. . .
187F	BB BB 

1881	0A AA AA 7A              DB 00Ah, 0AAh, 0AAh, 07Ah, 0AAh, 066h, 0AAh, 0AAh, 066h, 0B7h
	. . .
1889	66 B7 

188B	0A A6 A0 70              DB 00Ah, 0A6h, 0A0h, 070h, 0BBh, 0BBh, 000h, 000h, 000h, 070h
	. . .
1893	00 70 

1895	00 00 00 00              DB 000h, 000h, 000h, 000h, 000h, 017h, 00Ah, 0A0h, 0A0h, 070h
	. . .
189D	A0 70 

189F	BB BB 00 00              DB 0BBh, 0BBh, 000h, 000h, 000h, 07Bh, 044h, 044h, 044h, 044h
	. . .
18A7	44 44 

18A9	44 BB 44 44              DB 044h, 0BBh, 044h, 044h, 0BBh, 0BBh, 0BBh, 0BBh, 0BBh, 0BBh
	. . .
18B1	BB BB 

18B3	BB BB 55 55              DB 0BBh, 0BBh, 055h, 055h, 055h, 055h, 055h, 055h, 055h, 055h
	. . .
18BB	55 55 

18BD	BB BB BB 03              DB 0BBh, 0BBh, 0BBh, 003h, 000h, 014h, 000h, 002h, 003h, 000h
	. . .
18C5	03 00 

18C7	00 00 04 00              DB 000h, 000h, 004h, 000h, 000h, 000h, 000h, 001h, 0FFh, 0BBh
	. . .
18CF	FF BB 

18D1	00 70 00 00              DB 000h, 070h, 000h, 000h, 000h, 000h, 000h, 000h, 000h, 000h
	. . .
18D9	00 00 

18DB	00 00 00 00              DB 000h, 000h, 000h, 000h, 0BBh, 0BBh, 000h, 070h, 000h, 000h
	. . .
18E3	00 00 

18E5	00 00 10 00              DB 000h, 000h, 010h, 000h, 066h, 066h, 066h, 066h, 066h, 070h
	. . .
18ED	66 70 

18EF	BB BB 00 07              DB 0BBh, 0BBh, 000h, 007h, 000h, 000h, 000h, 000h, 066h, 070h
	. . .
18F7	66 70 

18F9	00 00 00 00              DB 000h, 000h, 000h, 000h, 000h, 070h, 0BBh, 0BBh, 00Ah, 0A0h
	. . .
1901	0A A0 

1903	70 00 00 00              DB 070h, 000h, 000h, 000h, 000h, 070h, 001h, 066h, 066h, 070h
	. . .
190B	66 70 

190D	00 70 BB BB              DB 000h, 070h, 0BBh, 0BBh, 00Ah, 0A0h, 007h, 000h, 000h, 000h
	. . .
1915	00 00 

1917	07 00 00 00              DB 007h, 000h, 000h, 000h, 000h, 007h, 000h, 070h, 0BBh, 0BBh
	. . .
191F	BB BB 

1921	00 90 00 70              DB 000h, 090h, 000h, 070h, 000h, 000h, 070h, 000h, 007h, 066h
	. . .
1929	07 66 

192B	66 67 00 70              DB 066h, 067h, 000h, 070h, 0BBh, 0BBh, 007h, 0A6h, 066h, 067h
	. . .
1933	66 67 

1935	00 00 70 00              DB 000h, 000h, 070h, 000h, 007h, 000h, 000h, 000h, 000h, 070h
	. . .
193D	00 70 

193F	BB BB 07 00              DB 0BBh, 0BBh, 007h, 000h, 000h, 000h, 070h, 000h, 007h, 000h
	. . .
1947	07 00 

1949	07 66 66 70              DB 007h, 066h, 066h, 070h, 010h, 070h, 0BBh, 0BBh, 007h, 020h
	. . .
1951	07 20 

1953	00 00 07 00              DB 000h, 000h, 007h, 000h, 000h, 070h, 000h, 000h, 000h, 070h
	. . .
195B	00 70 

195D	00 70 BB BB              DB 000h, 070h, 0BBh, 0BBh, 007h, 0A0h, 000h, 000h, 000h, 070h
	. . .
1965	00 70 

1967	00 70 07 66              DB 000h, 070h, 007h, 066h, 066h, 070h, 010h, 070h, 0BBh, 0BBh
	. . .
196F	BB BB 

1971	07 01 11 11              DB 007h, 001h, 011h, 011h, 010h, 007h, 070h, 007h, 007h, 000h
	. . .
1979	07 00 

197B	00 00 00 70              DB 000h, 000h, 000h, 070h, 0BBh, 0BBh, 007h, 00Ah, 066h, 066h
	. . .
1983	66 66 

1985	60 17 07 07              DB 060h, 017h, 007h, 007h, 007h, 066h, 066h, 070h, 010h, 070h
	. . .
198D	10 70 

198F	BB BB 07 30              DB 0BBh, 0BBh, 007h, 030h, 011h, 011h, 010h, 066h, 000h, 007h
	. . .
1997	00 07 

1999	00 00 00 70              DB 000h, 000h, 000h, 070h, 000h, 070h, 0BBh, 0BBh, 000h, 0A0h
	. . .
19A1	00 A0 

19A3	A6 66 66 66              DB 0A6h, 066h, 066h, 066h, 070h, 070h, 0A6h, 066h, 066h, 070h
	. . .
19AB	66 70 

19AD	A6 70 BB BB              DB 0A6h, 070h, 0BBh, 0BBh, 000h, 000h, 000h, 000h, 000h, 000h
	. . .
19B5	00 00 

19B7	07 00 00 00              DB 007h, 000h, 000h, 000h, 000h, 000h, 000h, 070h, 0BBh, 0BBh
	. . .
19BF	BB BB 

19C1	00 07 66 66              DB 000h, 007h, 066h, 066h, 066h, 067h, 000h, 007h, 066h, 066h
	. . .
19C9	66 66 

19CB	66 66 66 70              DB 066h, 066h, 066h, 070h, 0BBh, 0BBh, 000h, 007h, 000h, 000h
	. . .
19D3	00 00 

19D5	00 00 66 60              DB 000h, 000h, 066h, 060h, 000h, 000h, 000h, 000h, 000h, 000h
	. . .
19DD	00 00 

19DF	BB BB 00 07              DB 0BBh, 0BBh, 000h, 007h, 066h, 066h, 066h, 070h, 000h, 000h
	. . .
19E7	00 00 

19E9	76 66 66 66              DB 076h, 066h, 066h, 066h, 066h, 070h, 0BBh, 0BBh, 000h, 000h
	. . .
19F1	00 00 

19F3	00 00 00 06              DB 000h, 000h, 000h, 006h, 066h, 066h, 000h, 000h, 000h, 000h
	. . .
19FB	00 00 

19FD	00 70 BB BB              DB 000h, 070h, 0BBh, 0BBh, 000h, 007h, 066h, 066h, 067h, 000h
	. . .
1A05	67 00 

1A07	00 00 07 66              DB 000h, 000h, 007h, 066h, 066h, 066h, 066h, 000h, 0BBh, 0BBh
	. . .
1A0F	BB BB 

1A11	00 07 00 00              DB 000h, 007h, 000h, 000h, 000h, 066h, 066h, 066h, 060h, 000h
	. . .
1A19	60 00 

1A1B	00 00 00 00              DB 000h, 000h, 000h, 000h, 0BBh, 0BBh, 0AAh, 0AAh, 044h, 044h
	. . .
1A23	44 44 

1A25	44 44 44 44              DB 044h, 044h, 044h, 044h, 044h, 044h, 044h, 044h, 044h, 044h
	. . .
1A2D	44 44 

1A2F	BB 02 00 13              DB 0BBh, 002h, 000h, 013h, 000h, 002h, 006h, 000h, 000h, 000h
	. . .
1A37	00 00 

1A39	04 18 00 00              DB 004h, 018h, 000h, 000h, 000h, 004h, 018h, 0BBh, 000h, 000h
	. . .
1A41	00 00 

1A43	00 00 00 00              DB 000h, 000h, 000h, 000h, 000h, 000h, 000h, 000h, 000h, 000h
	. . .
1A4B	00 00 

1A4D	00 B7 BB BB              DB 000h, 0B7h, 0BBh, 0BBh, 000h, 000h, 000h, 000h, 000h, 000h
	. . .
1A55	00 00 

1A57	00 00 00 00              DB 000h, 000h, 000h, 000h, 000h, 000h, 000h, 0B7h, 0BBh, 0BBh
	. . .
1A5F	BB BB 

1A61	01 77 77 71              DB 001h, 077h, 077h, 071h, 077h, 077h, 072h, 077h, 077h, 071h
	. . .
1A69	77 71 

1A6B	77 77 73 97              DB 077h, 077h, 073h, 097h, 0BBh, 0BBh, 007h, 000h, 070h, 007h
	. . .
1A73	70 07 

1A75	00 70 07 00              DB 000h, 070h, 007h, 000h, 070h, 007h, 000h, 070h, 007h, 0ABh
	. . .
1A7D	07 AB 

1A7F	BB BB 07 00              DB 0BBh, 0BBh, 007h, 000h, 070h, 007h, 000h, 070h, 007h, 000h
	. . .
1A87	07 00 

1A89	70 07 00 70              DB 070h, 007h, 000h, 070h, 007h, 00Bh, 0BBh, 0BBh, 007h, 077h
	. . .
1A91	07 77 

1A93	17 77 77 17              DB 017h, 077h, 077h, 017h, 077h, 077h, 017h, 077h, 077h, 017h
	. . .
1A9B	77 17 

1A9D	77 0B BB BB              DB 077h, 00Bh, 0BBh, 0BBh, 007h, 000h, 070h, 007h, 000h, 070h
	. . .
1AA5	00 70 

1AA7	07 00 70 07              DB 007h, 000h, 070h, 007h, 000h, 070h, 007h, 00Bh, 0BBh, 0BBh
	. . .
1AAF	BB BB 

1AB1	07 00 70 07              DB 007h, 000h, 070h, 007h, 000h, 070h, 007h, 000h, 070h, 007h
	. . .
1AB9	70 07 

1ABB	00 70 07 0B              DB 000h, 070h, 007h, 00Bh, 0BBh, 0BBh, 001h, 077h, 077h, 071h
	. . .
1AC3	77 71 

1AC5	77 77 71 77              DB 077h, 077h, 071h, 077h, 077h, 071h, 077h, 077h, 071h, 00Bh
	. . .
1ACD	71 0B 

1ACF	BB BB 07 00              DB 0BBh, 0BBh, 007h, 000h, 070h, 007h, 000h, 070h, 007h, 000h
	. . .
1AD7	07 00 

1AD9	70 07 00 70              DB 070h, 007h, 000h, 070h, 007h, 00Bh, 0BBh, 0BBh, 007h, 000h
	. . .
1AE1	07 00 

1AE3	70 07 00 70              DB 070h, 007h, 000h, 070h, 007h, 000h, 070h, 007h, 000h, 070h
	. . .
1AEB	00 70 

1AED	07 0B BB BB              DB 007h, 00Bh, 0BBh, 0BBh, 007h, 077h, 017h, 077h, 077h, 017h
	. . .
1AF5	77 17 

1AF7	77 77 17 77              DB 077h, 077h, 017h, 077h, 077h, 017h, 077h, 00Bh, 0BBh, 0BBh
	. . .
1AFF	BB BB 

1B01	07 00 70 07              DB 007h, 000h, 070h, 007h, 000h, 070h, 007h, 000h, 070h, 007h
	. . .
1B09	70 07 

1B0B	00 70 07 0B              DB 000h, 070h, 007h, 00Bh, 0BBh, 0BBh, 007h, 000h, 070h, 007h
	. . .
1B13	70 07 

1B15	00 70 07 00              DB 000h, 070h, 007h, 000h, 070h, 007h, 000h, 070h, 007h, 00Bh
	. . .
1B1D	07 0B 

1B1F	BB BB 01 77              DB 0BBh, 0BBh, 001h, 077h, 077h, 071h, 077h, 077h, 071h, 077h
	. . .
1B27	71 77 

1B29	77 71 77 77              DB 077h, 071h, 077h, 077h, 071h, 00Bh, 0BBh, 0BBh, 007h, 000h
	. . .
1B31	07 00 

1B33	70 07 00 70              DB 070h, 007h, 000h, 070h, 007h, 000h, 070h, 007h, 000h, 070h
	. . .
1B3B	00 70 

1B3D	07 0B BB BB              DB 007h, 00Bh, 0BBh, 0BBh, 007h, 000h, 070h, 007h, 000h, 070h
	. . .
1B45	00 70 

1B47	07 00 70 07              DB 007h, 000h, 070h, 007h, 000h, 070h, 007h, 00Bh, 0BBh, 0BBh
	. . .
1B4F	BB BB 

1B51	07 77 17 77              DB 007h, 077h, 017h, 077h, 077h, 017h, 077h, 077h, 017h, 077h
	. . .
1B59	17 77 

1B5B	77 17 77 0B              DB 077h, 017h, 077h, 00Bh, 0BBh, 0BBh, 007h, 000h, 070h, 007h
	. . .
1B63	70 07 

1B65	00 70 07 00              DB 000h, 070h, 007h, 000h, 070h, 007h, 000h, 070h, 007h, 00Bh
	. . .
1B6D	07 0B 

1B6F	BB BB 07 00              DB 0BBh, 0BBh, 007h, 000h, 070h, 007h, 000h, 070h, 007h, 000h
	. . .
1B77	07 00 

1B79	70 07 00 70              DB 070h, 007h, 000h, 070h, 007h, 00Bh, 0BBh, 0BBh, 0BBh, 044h
	. . .
1B81	BB 44 

1B83	B4 4B 44 B4              DB 0B4h, 04Bh, 044h, 0B4h, 04Bh, 044h, 0B4h, 04Bh, 044h, 0B4h
	. . .
1B8B	44 B4 

1B8D	4B 4B BB BB              DB 04Bh, 04Bh, 0BBh, 0BBh, 0BBh, 055h, 055h, 055h, 055h, 055h
	. . .
1B95	55 55 

1B97	55 55 55 55              DB 055h, 055h, 055h, 055h, 055h, 055h, 055h, 05Bh, 0BBh, 002h
	. . .
1B9F	BB 02 

1BA1	00 14 00 02              DB 000h, 014h, 000h, 002h, 004h, 000h, 000h, 000h, 004h, 01Bh
	. . .
1BA9	04 1B 

1BAB	00 00 00 04              DB 000h, 000h, 000h, 004h, 018h, 0BBh, 000h, 000h, 000h, 000h
	. . .
1BB3	00 00 

1BB5	00 00 00 00              DB 000h, 000h, 000h, 000h, 000h, 000h, 000h, 000h, 000h, 000h
	. . .
1BBD	00 00 

1BBF	7B BB 00 AA              DB 07Bh, 0BBh, 000h, 0AAh, 0AAh, 0AAh, 0AAh, 067h, 066h, 066h
	. . .
1BC7	66 66 

1BC9	76 AA AA AA              DB 076h, 0AAh, 0AAh, 0AAh, 0AAh, 000h, 07Bh, 0BBh, 000h, 0A0h
	. . .
1BD1	00 A0 

1BD3	01 10 0A 07              DB 001h, 010h, 00Ah, 007h, 000h, 000h, 070h, 0A0h, 001h, 010h
	. . .
1BDB	01 10 

1BDD	0A 00 7B BB              DB 00Ah, 000h, 07Bh, 0BBh, 000h, 00Ah, 0AAh, 0AAh, 0A0h, 007h
	. . .
1BE5	A0 07 

1BE7	00 00 70 0A              DB 000h, 000h, 070h, 00Ah, 0AAh, 0AAh, 0A0h, 000h, 07Bh, 0BBh
	. . .
1BEF	7B BB 

1BF1	00 A0 01 10              DB 000h, 0A0h, 001h, 010h, 00Ah, 007h, 000h, 000h, 070h, 0A0h
	. . .
1BF9	70 A0 

1BFB	01 10 0A 00              DB 001h, 010h, 00Ah, 000h, 07Bh, 0BBh, 000h, 00Ah, 0AAh, 0AAh
	. . .
1C03	AA AA 

1C05	A0 07 00 00              DB 0A0h, 007h, 000h, 000h, 070h, 00Ah, 0AAh, 0AAh, 0A0h, 000h
	. . .
1C0D	A0 00 

1C0F	7B BB 00 A0              DB 07Bh, 0BBh, 000h, 0A0h, 001h, 010h, 00Ah, 007h, 000h, 000h
	. . .
1C17	00 00 

1C19	70 A0 01 10              DB 070h, 0A0h, 001h, 010h, 00Ah, 000h, 07Bh, 0BBh, 000h, 00Ah
	. . .
1C21	00 0A 

1C23	AA AA A0 07              DB 0AAh, 0AAh, 0A0h, 007h, 000h, 000h, 070h, 00Ah, 0AAh, 0AAh
	. . .
1C2B	AA AA 

1C2D	A0 00 7B BB              DB 0A0h, 000h, 07Bh, 0BBh, 000h, 0A0h, 001h, 010h, 00Ah, 007h
	. . .
1C35	0A 07 

1C37	00 00 70 A0              DB 000h, 000h, 070h, 0A0h, 001h, 010h, 00Ah, 000h, 07Bh, 0BBh
	. . .
1C3F	7B BB 

1C41	00 0A AA AA              DB 000h, 00Ah, 0AAh, 0AAh, 0A0h, 007h, 000h, 000h, 070h, 00Ah
	. . .
1C49	70 0A 

1C4B	AA AA A0 00              DB 0AAh, 0AAh, 0A0h, 000h, 07Bh, 0BBh, 000h, 0A0h, 001h, 010h
	. . .
1C53	01 10 

1C55	0A 07 00 00              DB 00Ah, 007h, 000h, 000h, 070h, 0A0h, 001h, 010h, 00Ah, 000h
	. . .
1C5D	0A 00 

1C5F	7B BB 00 0A              DB 07Bh, 0BBh, 000h, 00Ah, 0AAh, 0AAh, 0A0h, 007h, 000h, 000h
	. . .
1C67	00 00 

1C69	70 0A AA AA              DB 070h, 00Ah, 0AAh, 0AAh, 0A0h, 000h, 07Bh, 0BBh, 000h, 0A0h
	. . .
1C71	00 A0 

1C73	01 10 0A 07              DB 001h, 010h, 00Ah, 007h, 000h, 000h, 070h, 0A0h, 001h, 010h
	. . .
1C7B	01 10 

1C7D	0A 00 7B BB              DB 00Ah, 000h, 07Bh, 0BBh, 000h, 00Ah, 0AAh, 0AAh, 0A0h, 007h
	. . .
1C85	A0 07 

1C87	00 00 70 0A              DB 000h, 000h, 070h, 00Ah, 0AAh, 0AAh, 0A0h, 000h, 07Bh, 0BBh
	. . .
1C8F	7B BB 

1C91	00 A0 01 10              DB 000h, 0A0h, 001h, 010h, 00Ah, 007h, 000h, 000h, 070h, 0A0h
	. . .
1C99	70 A0 

1C9B	01 10 0A 00              DB 001h, 010h, 00Ah, 000h, 07Bh, 0BBh, 000h, 00Ah, 0AAh, 0AAh
	. . .
1CA3	AA AA 

1CA5	A0 07 00 00              DB 0A0h, 007h, 000h, 000h, 070h, 00Ah, 0AAh, 0AAh, 0A0h, 000h
	. . .
1CAD	A0 00 

1CAF	7B BB 00 A0              DB 07Bh, 0BBh, 000h, 0A0h, 001h, 010h, 00Ah, 007h, 000h, 000h
	. . .
1CB7	00 00 

1CB9	70 A0 01 10              DB 070h, 0A0h, 001h, 010h, 00Ah, 000h, 07Bh, 0BBh, 000h, 00Ah
	. . .
1CC1	00 0A 

1CC3	AA AA A0 07              DB 0AAh, 0AAh, 0A0h, 007h, 000h, 000h, 070h, 00Ah, 0AAh, 0AAh
	. . .
1CCB	AA AA 

1CCD	A0 00 7B BB              DB 0A0h, 000h, 07Bh, 0BBh, 000h, 0A0h, 002h, 010h, 00Ah, 007h
	. . .
1CD5	0A 07 

1CD7	00 00 70 A0              DB 000h, 000h, 070h, 0A0h, 003h, 010h, 00Ah, 000h, 07Bh, 0BBh
	. . .
1CDF	7B BB 

1CE1	00 AA AA AA              DB 000h, 0AAh, 0AAh, 0AAh, 0AAh, 007h, 000h, 000h, 070h, 0AAh
	. . .
1CE9	70 AA 

1CEB	AA AA AA 0B              DB 0AAh, 0AAh, 0AAh, 00Bh, 07Bh, 0BBh, 000h, 080h, 000h, 000h
	. . .
1CF3	00 00 

1CF5	08 07 00 00              DB 008h, 007h, 000h, 000h, 070h, 080h, 000h, 000h, 008h, 009h
	. . .
1CFD	08 09 

1CFF	7B BB BB BB              DB 07Bh, 0BBh, 0BBh, 0BBh, 0BBh, 0BBh, 0BBh, 0BBh, 044h, 044h
	. . .
1D07	44 44 

1D09	BB BB BB BB              DB 0BBh, 0BBh, 0BBh, 0BBh, 0BBh, 0BBh, 0BBh, 002h, 000h, 014h
	. . .
1D11	00 14 

1D13	00                       DB 000h
1D14	02 03 00 00     ljxfv:   DB 002h, 003h, 000h, 000h, 000h, 004h, 01Ch, 000h, 000h, 000h
	. . .
1D1C	00 00 

1D1E	04 18 BB 00              DB 004h, 018h, 0BBh, 000h, 000h, 000h, 000h, 000h, 000h, 00Ah
	. . .
1D26	00 0A 

1D28	7B 00 00 00              DB 07Bh, 000h, 000h, 000h, 000h, 000h, 000h, 0BBh, 0BBh, 000h
	. . .
1D30	BB 00 

1D32	00 00 00 00              DB 000h, 000h, 000h, 000h, 000h, 009h, 07Bh, 000h, 000h, 000h
	. . .
1D3A	00 00 

1D3C	00 00 00 BB              DB 000h, 000h, 000h, 0BBh, 0BBh, 076h, 066h, 066h, 066h, 066h
	. . .
1D44	66 66 

1D46	66 6B BB 66              DB 066h, 06Bh, 0BBh, 066h, 066h, 066h, 066h, 066h, 067h, 0BBh
	. . .
1D4E	67 BB 

1D50	BB 71 11 11              DB 0BBh, 071h, 011h, 011h, 011h, 011h, 011h, 011h, 031h, 011h
	. . .
1D58	31 11 

1D5A	11 11 11 11              DB 011h, 011h, 011h, 011h, 017h, 0BBh, 0BBh, 076h, 066h, 066h
	. . .
1D62	66 66 

1D64	66 66 66 66              DB 066h, 066h, 066h, 066h, 066h, 066h, 066h, 066h, 066h, 066h
	. . .
1D6C	66 66 

1D6E	67 BB BB 71              DB 067h, 0BBh, 0BBh, 071h, 000h, 000h, 000h, 000h, 000h, 000h
	. . .
1D76	00 00 

1D78	00 00 00 00              DB 000h, 000h, 000h, 000h, 000h, 000h, 017h, 0BBh, 0BBh, 071h
	. . .
1D80	BB 71 

1D82	BB 44 4B BB              DB 0BBh, 044h, 04Bh, 0BBh, 044h, 04Bh, 0BBh, 044h, 04Bh, 0B4h
	. . .
1D8A	4B B4 

1D8C	BB 4B 17 BB              DB 0BBh, 04Bh, 017h, 0BBh, 0BBh, 071h, 0B5h, 055h, 055h, 0B5h
	. . .
1D94	55 B5 

1D96	55 55 B5 55              DB 055h, 055h, 0B5h, 055h, 055h, 0B5h, 0BBh, 05Bh, 017h, 0BBh
	. . .
1D9E	17 BB 

1DA0	BB 71 B5 BB              DB 0BBh, 071h, 0B5h, 0BBh, 0B5h, 0B5h, 0BBh, 0B5h, 0B5h, 0BBh
	. . .
1DA8	B5 BB 

1DAA	B5 B5 BB 5B              DB 0B5h, 0B5h, 0BBh, 05Bh, 017h, 0BBh, 0BBh, 071h, 0B5h, 0BBh
	. . .
1DB2	B5 BB 

1DB4	B5 B5 BB BB              DB 0B5h, 0B5h, 0BBh, 0BBh, 0B5h, 0BBh, 0BBh, 0B5h, 0BBh, 05Bh
	. . .
1DBC	BB 5B 

1DBE	17 BB BB 71              DB 017h, 0BBh, 0BBh, 071h, 0B5h, 0BBh, 0B5h, 0B5h, 055h, 055h
	. . .
1DC6	55 55 

1DC8	B5 BB BB B5              DB 0B5h, 0BBh, 0BBh, 0B5h, 0BBh, 05Bh, 017h, 0BBh, 0BBh, 071h
	. . .
1DD0	BB 71 

1DD2	B5 55 55 BB              DB 0B5h, 055h, 055h, 0BBh, 0BBh, 0B5h, 0B5h, 0BBh, 0BBh, 0B5h
	. . .
1DDA	BB B5 

1DDC	BB 5B 17 BB              DB 0BBh, 05Bh, 017h, 0BBh, 0BBh, 071h, 0B5h, 055h, 055h, 0B5h
	. . .
1DE4	55 B5 

1DE6	BB B5 B5 BB              DB 0BBh, 0B5h, 0B5h, 0BBh, 0B5h, 0B5h, 0BBh, 05Bh, 017h, 0BBh
	. . .
1DEE	17 BB 

1DF0	BB 71 B5 BB              DB 0BBh, 071h, 0B5h, 0BBh, 0B5h, 0B5h, 055h, 055h, 0B5h, 055h
	. . .
1DF8	B5 55 

1DFA	55 B5 BB 5B              DB 055h, 0B5h, 0BBh, 05Bh, 017h, 0BBh, 0BBh, 071h, 0B5h, 0BBh
	. . .
1E02	B5 BB 

1E04	B5 BB 55 5B              DB 0B5h, 0BBh, 055h, 05Bh, 0BBh, 055h, 05Bh, 0B5h, 0BBh, 05Bh
	. . .
1E0C	BB 5B 

1E0E	17 BB BB 71              DB 017h, 0BBh, 0BBh, 071h, 0BBh, 0BBh, 0BBh, 0BBh, 0BBh, 0BBh
	. . .
1E16	BB BB 

1E18	BB BB BB BB              DB 0BBh, 0BBh, 0BBh, 0BBh, 0BBh, 0BBh, 017h, 0BBh, 0BBh, 071h
	. . .
1E20	BB 71 

1E22	11 11 11 11              DB 011h, 011h, 011h, 011h, 011h, 011h, 021h, 011h, 011h, 011h
	. . .
1E2A	11 11 

1E2C	11 11 17 BB              DB 011h, 011h, 017h, 0BBh, 0BBh, 070h, 070h, 070h, 070h, 070h
	. . .
1E34	70 70 

1E36	70 70 70 70              DB 070h, 070h, 070h, 070h, 070h, 070h, 070h, 070h, 070h, 0BBh
	. . .
1E3E	70 BB 

1E40	BB 07 07 07              DB 0BBh, 007h, 007h, 007h, 007h, 007h, 007h, 007h, 007h, 007h
	. . .
1E48	07 07 

1E4A	07 07 07 07              DB 007h, 007h, 007h, 007h, 007h, 0BBh, 0BBh, 070h, 070h, 070h
	. . .
1E52	70 70 

1E54	70 70 70 70              DB 070h, 070h, 070h, 070h, 070h, 070h, 070h, 070h, 070h, 070h
	. . .
1E5C	70 70 

1E5E	70 BB BB 07              DB 070h, 0BBh, 0BBh, 007h, 007h, 007h, 007h, 007h, 007h, 007h
	. . .
1E66	07 07 

1E68	07 07 07 07              DB 007h, 007h, 007h, 007h, 007h, 007h, 007h, 0BBh, 0BBh, 0AAh
	. . .
1E70	BB AA 

1E72	AA AA AA AA              DB 0AAh, 0AAh, 0AAh, 0AAh, 0AAh, 0AAh, 0AAh, 0AAh, 0AAh, 0AAh
	. . .
1E7A	AA AA 

1E7C	AA AA AA BB              DB 0AAh, 0AAh, 0AAh, 0BBh, 003h, 000h, 014h, 000h, 002h, 00Fh
	. . .
1E84	02 0F 

1E86	00 00 00 04              DB 000h, 000h, 000h, 004h, 010h, 000h, 000h, 000h, 004h, 018h
	. . .
1E8E	04 18 

1E90	BB BB BB BB              DB 0BBh, 0BBh, 0BBh, 0BBh, 0BBh, 0BBh, 0BBh, 0B0h, 00Bh, 0BBh
	. . .
1E98	0B BB 

1E9A	BB BB BB BB              DB 0BBh, 0BBh, 0BBh, 0BBh, 07Bh, 0BBh, 0BBh, 000h, 000h, 00Ah
	. . .
1EA2	00 0A 

1EA4	AB 02 B0 00              DB 0ABh, 002h, 0B0h, 000h, 000h, 000h, 0AAh, 0AAh, 0A0h, 000h
	. . .
1EAC	A0 00 

1EAE	70 BB BB 7A              DB 070h, 0BBh, 0BBh, 07Ah, 0AAh, 000h, 00Ah, 07Ah, 0B1h, 00Ah
	. . .
1EB6	B1 0A 

1EB8	AA 70 00 00              DB 0AAh, 070h, 000h, 000h, 0A7h, 0AAh, 0AAh, 0BBh, 0BBh, 07Ah
	. . .
1EC0	BB 7A 

1EC2	1A 66 0A 7A              DB 01Ah, 066h, 00Ah, 07Ah, 006h, 06Ah, 0AAh, 07Ah, 0AAh, 00Ah
	. . .
1ECA	AA 0A 

1ECC	A7 00 00 BB              DB 0A7h, 000h, 000h, 0BBh, 0BBh, 07Ah, 0AAh, 006h, 06Ah, 070h
	. . .
1ED4	6A 70 

1ED6	00 00 00 7A              DB 000h, 000h, 000h, 07Ah, 0A0h, 009h, 007h, 000h, 007h, 0BBh
	. . .
1EDE	07 BB 

1EE0	BB 70 01 00              DB 0BBh, 070h, 001h, 000h, 00Bh, 070h, 066h, 06Bh, 070h, 070h
	. . .
1EE8	70 70 

1EEA	AA 6A AA AA              DB 0AAh, 06Ah, 0AAh, 0AAh, 007h, 0BBh, 0BBh, 070h, 00Ah, 000h
	. . .
1EF2	0A 00 

1EF4	0B 70 00 0B              DB 00Bh, 070h, 000h, 00Bh, 070h, 070h, 000h, 000h, 000h, 000h
	. . .
1EFC	00 00 

1EFE	07 BB BB 70              DB 007h, 0BBh, 0BBh, 070h, 000h, 000h, 00Bh, 070h, 00Bh, 07Bh
	. . .
1F06	0B 7B 

1F08	70 76 66 66              DB 070h, 076h, 066h, 066h, 066h, 066h, 067h, 0BBh, 0BBh, 070h
	. . .
1F10	BB 70 

1F12	7A 60 0A AA              DB 07Ah, 060h, 00Ah, 0AAh, 060h, 07Bh, 070h, 000h, 000h, 000h
	. . .
1F1A	00 00 

1F1C	00 00 07 BB              DB 000h, 000h, 007h, 0BBh, 0BBh, 070h, 070h, 000h, 000h, 000h
	. . .
1F24	00 00 

1F26	00 7B 70 AA              DB 000h, 07Bh, 070h, 0AAh, 0AAh, 07Ah, 0ABh, 04Bh, 067h, 0BBh
	. . .
1F2E	67 BB 

1F30	BB 70 70 0A              DB 0BBh, 070h, 070h, 00Ah, 06Ah, 0AAh, 06Ah, 0ABh, 070h, 001h
	. . .
1F38	70 01 

1F3A	AB 7A 0B BB              DB 0ABh, 07Ah, 00Bh, 0BBh, 007h, 0BBh, 0BBh, 070h, 070h, 000h
	. . .
1F42	70 00 

1F44	00 00 00 00              DB 000h, 000h, 000h, 000h, 070h, 06Ah, 0AAh, 07Ah, 00Ah, 0AAh
	. . .
1F4C	0A AA 

1F4E	07 BB BB 70              DB 007h, 0BBh, 0BBh, 070h, 070h, 0BBh, 06Bh, 0BBh, 06Bh, 0BBh
	. . .
1F56	6B BB 

1F58	B0 0A AA 7A              DB 0B0h, 00Ah, 0AAh, 07Ah, 00Ah, 01Ah, 007h, 0BBh, 0BBh, 070h
	. . .
1F60	BB 70 

1F62	70 00 00 00              DB 070h, 000h, 000h, 000h, 000h, 000h, 000h, 000h, 0ABh, 07Ah
	. . .
1F6A	AB 7A 

1F6C	6A AA 07 BB              DB 06Ah, 0AAh, 007h, 0BBh, 0BBh, 070h, 0A6h, 066h, 0AAh, 0A0h
	. . .
1F74	AA A0 

1F76	AA AA A6 B0              DB 0AAh, 0AAh, 0A6h, 0B0h, 000h, 070h, 00Ah, 0AAh, 007h, 0BBh
	. . .
1F7E	07 BB 

1F80	BB 70 00 00              DB 0BBh, 070h, 000h, 000h, 000h, 000h, 000h, 000h, 000h, 0B0h
	. . .
1F88	00 B0 

1F8A	30 70 A0 AA              DB 030h, 070h, 0A0h, 0AAh, 007h, 0BBh, 0BBh, 07Bh, 0B4h, 044h
	. . .
1F92	B4 44 

1F94	44 44 44 44              DB 044h, 044h, 044h, 044h, 044h, 0B0h, 0B0h, 070h, 0AAh, 001h
	. . .
1F9C	AA 01 

1F9E	07 BB BB 7B              DB 007h, 0BBh, 0BBh, 07Bh, 0BBh, 0BBh, 0BBh, 0BBh, 0BBh, 0BBh
	. . .
1FA6	BB BB 

1FA8	BB B0 B0 70              DB 0BBh, 0B0h, 0B0h, 070h, 0AAh, 0AAh, 007h, 0BBh, 0BBh, 070h
	. . .
1FB0	BB 70 

1FB2	00 00 00 00              DB 000h, 000h, 000h, 000h, 000h, 000h, 000h, 000h, 0A0h, 070h
	. . .
1FBA	A0 70 

1FBC	00 00 07 BB              DB 000h, 000h, 007h, 0BBh, 0BBh, 070h, 0AAh, 0AAh, 0AAh, 0A7h
	. . .
1FC4	AA A7 

1FC6	AA AA AA AA              DB 0AAh, 0AAh, 0AAh, 0AAh, 0AAh, 076h, 066h, 066h, 067h, 0BBh
	. . .
1FCE	67 BB 

1FD0	BB 70 00 00              DB 0BBh, 070h, 000h, 000h, 000h, 0A0h, 000h, 000h, 000h, 000h
	. . .
1FD8	00 00 

1FDA	00 70 00 00              DB 000h, 070h, 000h, 000h, 007h, 0BBh, 0BBh, 0AAh, 0AAh, 0AAh
	. . .
1FE2	AA AA 

1FE4	AA AA AA AA              DB 0AAh, 0AAh, 0AAh, 0AAh, 0AAh, 0AAh, 0AAh, 0AAh, 044h, 044h
	. . .
1FEC	44 44 

1FEE	4A BB 02 00              DB 04Ah, 0BBh, 002h, 000h, 014h, 000h, 002h, 00Bh, 000h, 003h
	. . .
1FF6	00 03 

1FF8	00 04 1A 00              DB 000h, 004h, 01Ah, 000h, 006h, 000h, 004h, 018h, 0BBh, 0AAh
	. . .
2000	BB AA 

2002	AA AA AA AA              DB 0AAh, 0AAh, 0AAh, 0AAh, 0AAh, 0AAh, 0AAh, 0AAh, 0AAh, 0AAh
	. . .
200A	AA AA 

200C	AA AA B7 BB              DB 0AAh, 0AAh, 0B7h, 0BBh, 0BBh, 0AAh, 0AAh, 0AAh, 0AAh, 0AAh
	. . .
2014	AA AA 

2016	7A AA AA AA              DB 07Ah, 0AAh, 0AAh, 0AAh, 07Ah, 0AAh, 0AAh, 0A7h, 0B7h, 0BBh
	. . .
201E	B7 BB 

2020	BB 00 0B 66              DB 0BBh, 000h, 00Bh, 066h, 06Ah, 066h, 07Bh, 066h, 06Ah, 066h
	. . .
2028	6A 66 

202A	7B 66 6A 67              DB 07Bh, 066h, 06Ah, 067h, 0B7h, 0BBh, 0BBh, 000h, 00Bh, 000h
	. . .
2032	0B 00 

2034	0B 00 7B 00              DB 00Bh, 000h, 07Bh, 000h, 00Bh, 010h, 07Bh, 000h, 00Bh, 007h
	. . .
203C	0B 07 

203E	B7 BB BB 00              DB 0B7h, 0BBh, 0BBh, 000h, 00Bh, 011h, 01Ah, 010h, 07Ah, 011h
	. . .
2046	7A 11 

2048	1B A0 7A 11              DB 01Bh, 0A0h, 07Ah, 011h, 01Bh, 017h, 0B7h, 0BBh, 0BBh, 000h
	. . .
2050	BB 00 

2052	BB BB BB 66              DB 0BBh, 0BBh, 0BBh, 066h, 06Bh, 0BBh, 0BBh, 066h, 06Bh, 0BBh
	. . .
205A	6B BB 

205C	BB B7 B7 BB              DB 0BBh, 0B7h, 0B7h, 0BBh, 0BBh, 000h, 080h, 000h, 000h, 000h
	. . .
2064	00 00 

2066	00 00 00 00              DB 000h, 000h, 000h, 000h, 000h, 000h, 000h, 007h, 0B7h, 0BBh
	. . .
206E	B7 BB 

2070	BB 0B BB BB              DB 0BBh, 00Bh, 0BBh, 0BBh, 0BBh, 066h, 06Bh, 0BBh, 0BBh, 060h
	. . .
2078	BB 60 

207A	6B BB BB B7              DB 06Bh, 0BBh, 0BBh, 0B7h, 0B7h, 0BBh, 0BBh, 001h, 018h, 000h
	. . .
2082	18 00 

2084	00 00 08 00              DB 000h, 000h, 008h, 000h, 000h, 000h, 008h, 000h, 000h, 007h
	. . .
208C	00 07 

208E	97 BB B4 4B              DB 097h, 0BBh, 0B4h, 04Bh, 0BBh, 0B7h, 0BBh, 0BBh, 0B7h, 0BBh
	. . .
2096	B7 BB 

2098	BB B6 BB BB              DB 0BBh, 0B6h, 0BBh, 0BBh, 0BBh, 0BBh, 0BBh, 0BBh, 0B5h, 05Bh
	. . .
20A0	B5 5B 

20A2	0B 07 0B 00              DB 00Bh, 007h, 00Bh, 000h, 007h, 000h, 00Bh, 044h, 04Bh, 000h
	. . .
20AA	4B 00 

20AC	1B 00 0B BB              DB 01Bh, 000h, 00Bh, 0BBh, 0BBh, 0BBh, 00Bh, 007h, 00Bh, 000h
	. . .
20B4	0B 00 

20B6	BB 00 0B BB              DB 0BBh, 000h, 00Bh, 0BBh, 0BBh, 000h, 07Bh, 000h, 00Bh, 0BBh
	. . .
20BE	0B BB 

20C0	BB 00 08 07              DB 0BBh, 000h, 008h, 007h, 008h, 000h, 0B0h, 000h, 00Ah, 001h
	. . .
20C8	0A 01 

20CA	00 00 7B 03              DB 000h, 000h, 07Bh, 003h, 00Bh, 0BBh, 0BBh, 0B7h, 0BBh, 0BBh
	. . .
20D2	BB BB 

20D4	BB BB AA AA              DB 0BBh, 0BBh, 0AAh, 0AAh, 0AAh, 0AAh, 0AAh, 0AAh, 07Bh, 0BBh
	. . .
20DC	7B BB 

20DE	7B BB BB 07              DB 07Bh, 0BBh, 0BBh, 007h, 00Ah, 000h, 00Bh, 000h, 00Bh, 066h
	. . .
20E6	0B 66 

20E8	6B 66 6B BB              DB 06Bh, 066h, 06Bh, 0BBh, 0BBh, 000h, 07Bh, 0BBh, 0BBh, 067h
	. . .
20F0	BB 67 

20F2	6A 07 0B 00              DB 06Ah, 007h, 00Bh, 000h, 00Bh, 044h, 04Bh, 044h, 04Bh, 0B1h
	. . .
20FA	4B B1 

20FC	AA 00 7B BB              DB 0AAh, 000h, 07Bh, 0BBh, 0BBh, 007h, 00Ah, 007h, 01Bh, 000h
	. . .
2104	1B 00 

2106	1B 55 5B 55              DB 01Bh, 055h, 05Bh, 055h, 05Bh, 07Ah, 07Ah, 00Bh, 07Bh, 0BBh
	. . .
210E	7B BB 

2110	BB B7 BB B7              DB 0BBh, 0B7h, 0BBh, 0B7h, 0BBh, 07Bh, 0BBh, 0BBh, 0BBh, 0BBh
	. . .
2118	BB BB 

211A	BB 7B 7B BB              DB 0BBh, 07Bh, 07Bh, 0BBh, 07Bh, 0BBh, 0BBh, 007h, 00Ah, 007h
	. . .
2122	0A 07 

2124	0B 70 00 00              DB 00Bh, 070h, 000h, 000h, 02Bh, 000h, 00Bh, 07Bh, 07Bh, 000h
	. . .
212C	7B 00 

212E	7B BB BB 67              DB 07Bh, 0BBh, 0BBh, 067h, 06Ah, 007h, 00Bh, 006h, 066h, 066h
	. . .
2136	66 66 

2138	0B 00 0B 7B              DB 00Bh, 000h, 00Bh, 07Bh, 07Bh, 000h, 07Bh, 0BBh, 0BBh, 007h
	. . .
2140	BB 07 

2142	08 07 08 0A              DB 008h, 007h, 008h, 00Ah, 0AAh, 0AAh, 0AAh, 000h, 00Ah, 07Bh
	. . .
214A	0A 7B 

214C	78 00 7B BB              DB 078h, 000h, 07Bh, 0BBh, 0BBh, 0BBh, 0BBh, 0BBh, 0BBh, 0BBh
	. . .
2154	BB BB 

2156	BB BB BB BB              DB 0BBh, 0BBh, 0BBh, 0BBh, 0BBh, 0BBh, 0BBh, 0BBh, 0BBh, 0BBh
	. . .
215E	BB BB 

2160	03 00 14 00              DB 003h, 000h, 014h, 000h, 002h, 005h, 000h, 000h, 000h, 004h
	. . .
2168	00 04 

216A	1A 00 00 00              DB 01Ah, 000h, 000h, 000h, 004h, 018h, 0BBh, 0BBh, 0B0h, 0BBh
	. . .
2172	B0 BB 

2174	BB BB BB BB              DB 0BBh, 0BBh, 0BBh, 0BBh, 0BBh, 0BBh, 0BBh, 0BBh, 0BBh, 00Bh
	. . .
217C	BB 0B 

217E	B7 BB BB 7B              DB 0B7h, 0BBh, 0BBh, 07Bh, 0B7h, 011h, 07Bh, 0B7h, 0BBh, 070h
	. . .
2186	BB 70 

2188	07 BB 71 17              DB 007h, 0BBh, 071h, 017h, 0BBh, 07Bh, 0B7h, 0BBh, 0BBh, 07Bh
	. . .
2190	BB 7B 

2192	B7 BB 7B B7              DB 0B7h, 0BBh, 07Bh, 0B7h, 0BBh, 07Bh, 0B7h, 0BBh, 07Bh, 0B7h
	. . .
219A	7B B7 

219C	BB 7B B7 BB              DB 0BBh, 07Bh, 0B7h, 0BBh, 0BBh, 07Bh, 0B7h, 0BBh, 07Bh, 0B7h
	. . .
21A4	7B B7 

21A6	BB 7B B7 BB              DB 0BBh, 07Bh, 0B7h, 0BBh, 07Bh, 0B7h, 0BBh, 07Bh, 0B7h, 0BBh
	. . .
21AE	B7 BB 

21B0	BB 70 07 BB              DB 0BBh, 070h, 007h, 0BBh, 070h, 007h, 000h, 07Bh, 0B7h, 000h
	. . .
21B8	B7 00 

21BA	7B B7 11 7B              DB 07Bh, 0B7h, 011h, 07Bh, 0B7h, 0BBh, 0BBh, 0BBh, 0B7h, 0BBh
	. . .
21C2	B7 BB 

21C4	BB BB BB 7B              DB 0BBh, 0BBh, 0BBh, 07Bh, 0BBh, 0BBh, 07Bh, 0BBh, 0BBh, 0BBh
	. . .
21CC	BB BB 

21CE	B7 BB BB 7B              DB 0B7h, 0BBh, 0BBh, 07Bh, 0B7h, 0BBh, 07Bh, 0B7h, 0BBh, 07Bh
	. . .
21D6	BB 7B 

21D8	B7 BB 7B B7              DB 0B7h, 0BBh, 07Bh, 0B7h, 0BBh, 07Bh, 0B7h, 0BBh, 0BBh, 07Bh
	. . .
21E0	BB 7B 

21E2	B7 BB 7B B7              DB 0B7h, 0BBh, 07Bh, 0B7h, 0BBh, 07Bh, 0B7h, 0BBh, 07Bh, 0B7h
	. . .
21EA	7B B7 

21EC	BB 7B B7 BB              DB 0BBh, 07Bh, 0B7h, 0BBh, 0BBh, 07Bh, 0B7h, 000h, 070h, 007h
	. . .
21F4	70 07 

21F6	BB 71 17 BB              DB 0BBh, 071h, 017h, 0BBh, 070h, 007h, 000h, 07Bh, 0B7h, 0BBh
	. . .
21FE	B7 BB 

2200	BB 7B BB BB              DB 0BBh, 07Bh, 0BBh, 0BBh, 07Bh, 0B7h, 0BBh, 0BBh, 0BBh, 0BBh
	. . .
2208	BB BB 

220A	7B BB BB 7B              DB 07Bh, 0BBh, 0BBh, 07Bh, 0B7h, 0BBh, 0BBh, 07Bh, 0B7h, 0BBh
	. . .
2212	B7 BB 

2214	7B B7 BB 7B              DB 07Bh, 0B7h, 0BBh, 07Bh, 0B7h, 0BBh, 07Bh, 0B7h, 0BBh, 07Bh
	. . .
221C	BB 7B 

221E	B7 BB BB 7B              DB 0B7h, 0BBh, 0BBh, 07Bh, 0B7h, 0BBh, 07Bh, 0B7h, 0BBh, 07Bh
	. . .
2226	BB 7B 

2228	B7 BB 7B B7              DB 0B7h, 0BBh, 07Bh, 0B7h, 0BBh, 07Bh, 0B7h, 0BBh, 0BBh, 071h
	. . .
2230	BB 71 

2232	17 BB 7B B7              DB 017h, 0BBh, 07Bh, 0B7h, 000h, 07Bh, 0B7h, 011h, 07Bh, 0B7h
	. . .
223A	7B B7 

223C	00 7B B7 BB              DB 000h, 07Bh, 0B7h, 0BBh, 0BBh, 07Bh, 0BBh, 0BBh, 0BBh, 0B7h
	. . .
2244	BB B7 

2246	BB 7B BB BB              DB 0BBh, 07Bh, 0BBh, 0BBh, 0BBh, 0B7h, 0BBh, 0BBh, 0B7h, 0BBh
	. . .
224E	B7 BB 

2250	BB 7B B7 BB              DB 0BBh, 07Bh, 0B7h, 0BBh, 07Bh, 0B7h, 0BBh, 07Bh, 0B7h, 0BBh
	. . .
2258	B7 BB 

225A	7B B7 BB 7B              DB 07Bh, 0B7h, 0BBh, 07Bh, 0B7h, 0BBh, 0BBh, 07Bh, 0B7h, 0BBh
	. . .
2262	B7 BB 

2264	7B B7 BB 7B              DB 07Bh, 0B7h, 0BBh, 07Bh, 0B7h, 0BBh, 07Bh, 0B7h, 0BBh, 07Bh
	. . .
226C	BB 7B 

226E	B7 BB BB 70              DB 0B7h, 0BBh, 0BBh, 070h, 007h, 0BBh, 070h, 007h, 0B0h, 070h
	. . .
2276	B0 70 

2278	07 00 7B B7              DB 007h, 000h, 07Bh, 0B7h, 000h, 07Bh, 0B7h, 0BBh, 0BBh, 07Bh
	. . .
2280	BB 7B 

2282	BB BB 7B B7              DB 0BBh, 0BBh, 07Bh, 0B7h, 0BBh, 07Bh, 0BBh, 0BBh, 07Bh, 0BBh
	. . .
228A	7B BB 

228C	BB 7B B7 BB              DB 0BBh, 07Bh, 0B7h, 0BBh, 0BBh, 07Bh, 0B7h, 0BBh, 07Bh, 0B7h
	. . .
2294	7B B7 

2296	BB 7B B7 BB              DB 0BBh, 07Bh, 0B7h, 0BBh, 07Bh, 0B7h, 0BBh, 07Bh, 0B7h, 0BBh
	. . .
229E	B7 BB 

22A0	BB 7B B7 BB              DB 0BBh, 07Bh, 0B7h, 0BBh, 07Bh, 0B7h, 0BBh, 07Bh, 0B7h, 0BBh
	. . .
22A8	B7 BB 

22AA	7B B7 BB 7B              DB 07Bh, 0B7h, 0BBh, 07Bh, 0B7h, 0BBh, 0BBh, 070h, 007h, 000h
	. . .
22B2	07 00 

22B4	7B B7 11 70              DB 07Bh, 0B7h, 011h, 070h, 007h, 0BBh, 071h, 017h, 0BBh, 071h
	. . .
22BC	BB 71 

22BE	37 BB BB BB              DB 037h, 0BBh, 0BBh, 0BBh, 0BBh, 0BBh, 0BBh, 0BBh, 0BBh, 0BBh
	. . .
22C6	BB BB 

22C8	BB BB BB BB              DB 0BBh, 0BBh, 0BBh, 0BBh, 0BBh, 0BBh, 0BBh, 0BBh, 003h, 000h
	. . .
22D0	03 00 

22D2	12 00 01 0D              DB 012h, 000h, 001h, 00Dh, 000h, 012h, 000h, 002h, 011h, 000h
	. . .
22DA	11 00 

22DC	12 00 02 18              DB 012h, 000h, 002h, 018h, 0BBh, 000h, 000h, 000h, 000h, 000h
	. . .
22E4	00 00 

22E6	00 00 00 00              DB 000h, 000h, 000h, 000h, 000h, 000h, 000h, 000h, 07Bh, 0BBh
	. . .
22EE	7B BB 

22F0	BB 76 66 66              DB 0BBh, 076h, 066h, 066h, 066h, 066h, 066h, 06Ah, 000h, 000h
	. . .
22F8	00 00 

22FA	00 00 00 00              DB 000h, 000h, 000h, 000h, 07Bh, 0BBh, 0BBh, 070h, 000h, 000h
	. . .
2302	00 00 

2304	00 00 00 0A              DB 000h, 000h, 000h, 00Ah, 000h, 000h, 000h, 000h, 000h, 000h
	. . .
230C	00 00 

230E	7B BB BB 70              DB 07Bh, 0BBh, 0BBh, 070h, 000h
	. . .
2312	00 

2313	00 00 00 0A     lnltr:   DB 000h, 000h, 000h, 00Ah, 0AAh, 0AAh, 000h, 000h, 000h, 000h
	. . .
231B	00 00 

231D	00 7B BB BB              DB 000h, 07Bh, 0BBh, 0BBh, 070h, 000h, 000h, 000h, 000h, 0AAh
	. . .
2325	00 AA 

2327	A0 AA A0 00              DB 0A0h, 0AAh, 0A0h, 000h, 000h, 000h, 000h, 07Bh, 0BBh, 0BBh
	. . .
232F	BB BB 

2331	70 00 00 00              DB 070h, 000h, 000h, 000h, 000h, 000h, 0A1h, 0A0h, 000h, 000h
	. . .
2339	00 00 

233B	00 00 00 7B              DB 000h, 000h, 000h, 07Bh, 0BBh, 0BBh, 070h, 000h, 000h, 000h
	. . .
2343	00 00 

2345	00 AA A7 AA              DB 000h, 0AAh, 0A7h, 0AAh, 0A0h, 000h, 000h, 000h, 000h, 07Bh
	. . .
234D	00 7B 

234F	BB BB 70 00              DB 0BBh, 0BBh, 070h, 000h, 000h, 000h, 00Ah, 0AAh, 007h, 00Ah
	. . .
2357	07 0A 

2359	AA 00 00 00              DB 0AAh, 000h, 000h, 000h, 000h, 07Bh, 0BBh, 0BBh, 070h, 000h
	. . .
2361	70 00 

2363	00 00 00 0A              DB 000h, 000h, 000h, 00Ah, 017h, 01Ah, 000h, 000h, 000h, 000h
	. . .
236B	00 00 

236D	00 7B BB BB              DB 000h, 07Bh, 0BBh, 0BBh, 070h, 000h, 000h, 000h, 000h, 0AAh
	. . .
2375	00 AA 

2377	A7 AA A0 00     lnisl:   DB 0A7h, 0AAh, 0A0h, 000h, 000h, 000h, 000h, 07Bh, 0BBh, 0BBh
	. . .
237F	BB BB 

2381	70 00 00 00              DB 070h, 000h, 000h, 000h, 00Ah, 0AAh, 007h, 00Ah, 0AAh, 000h
	. . .
2389	AA 00 

238B	00 00 00 7B              DB 000h, 000h, 000h, 07Bh, 0BBh, 0BBh, 070h, 000h, 000h, 000h
	. . .
2393	00 00 

2395	00 0A 17 1A              DB 000h, 00Ah, 017h, 01Ah, 000h, 000h, 000h, 000h, 000h, 07Bh
	. . .
239D	00 7B 

239F	BB BB 70 00              DB 0BBh, 0BBh, 070h, 000h, 000h, 000h, 00Ah, 0AAh, 0A7h, 0AAh
	. . .
23A7	A7 AA 

23A9	AA 00 00 00              DB 0AAh, 000h, 000h, 000h, 000h, 07Bh, 0BBh, 0BBh, 070h, 000h
	. . .
23B1	70 00 

23B3	00 00 AA AA              DB 000h, 000h, 0AAh, 0AAh, 007h, 00Ah, 0AAh, 0A0h, 000h, 000h
	. . .
23BB	00 00 

23BD	00 7B BB BB              DB 000h, 07Bh, 0BBh, 0BBh, 070h, 000h, 000h, 000h, 000h, 00Ah
	. . .
23C5	00 0A 

23C7	17 1A 00 00              DB 017h, 01Ah, 000h, 000h, 000h, 000h, 000h, 07Bh, 0BBh, 0BBh
	. . .
23CF	BB BB 

23D1	70 00 00 00              DB 070h, 000h, 000h, 000h, 0AAh, 0AAh, 0A7h, 0AAh, 0AAh, 0A0h
	. . .
23D9	AA A0 

23DB	00 00 00 7B              DB 000h, 000h, 000h, 07Bh, 0BBh, 0BBh, 070h, 000h, 000h, 00Ah
	. . .
23E3	00 0A 

23E5	AA AA 07 0A              DB 0AAh, 0AAh, 007h, 00Ah, 0AAh, 0AAh, 000h, 000h, 000h, 07Bh
	. . .
23ED	00 7B 

23EF	BB BB 70 00              DB 0BBh, 0BBh, 070h, 000h, 000h, 000h, 000h, 0A0h, 007h, 000h
	. . .
23F7	07 00 

23F9	A0 00 00 00              DB 0A0h, 000h, 000h, 000h, 00Bh, 07Bh, 0BBh, 0BBh, 070h, 0B0h
	. . .
2401	70 B0 

2403	00 00 00 A0              DB 000h, 000h, 000h, 0A0h, 037h, 020h, 0A0h, 000h, 000h, 000h
	. . .
240B	00 00 

240D	09 7B BB BB              DB 009h, 07Bh, 0BBh, 0BBh, 0BBh, 0B6h, 066h, 06Ah, 0AAh, 0AAh
	. . .
2415	AA AA 

2417	AA AA AA AA              DB 0AAh, 0AAh, 0AAh, 0AAh, 066h, 066h, 06Bh, 0BBh, 0BBh, 0BBh
	. . .
241F	BB BB 

2421	44 44 44 4A              DB 044h, 044h, 044h, 04Ah, 0AAh, 0AAh, 0AAh, 0AAh, 0AAh, 0AAh
	. . .
2429	AA AA 

242B	44 44 44 4B              DB 044h, 044h, 044h, 04Bh, 0BBh, 0BBh, 055h, 055h, 055h, 05Ah
	. . .
2433	55 5A 

2435	AA AA AA AA              DB 0AAh, 0AAh, 0AAh, 0AAh, 0AAh, 0AAh, 055h, 055h, 055h, 05Bh
	. . .
243D	55 5B 

243F	BB 03 00 14              DB 0BBh, 003h, 000h, 014h, 000h, 001h, 00Dh, 000h, 000h, 000h
	. . .
2447	00 00 

2449	04 14 00 00              DB 004h, 014h, 000h, 000h, 000h, 004h, 018h, 044h, 044h, 044h
	. . .
2451	44 44 

2453	44 44 44 B0              DB 044h, 044h, 044h, 0B0h, 0B4h, 044h, 04Bh, 00Bh, 044h, 044h
	. . .
245B	44 44 

245D	4B 7B 44 55              DB 04Bh, 07Bh, 044h, 055h, 0BBh, 0BBh, 0BBh, 0B5h, 055h, 0B0h
	. . .
2465	55 B0 

2467	B5 55 5B 0B              DB 0B5h, 055h, 05Bh, 00Bh, 0BBh, 0B5h, 05Bh, 07Bh, 055h, 055h
	. . .
246F	55 55 

2471	B1 00 01 B5              DB 0B1h, 000h, 001h, 0B5h, 0BBh, 0B0h, 0BBh, 0B5h, 05Bh, 030h
	. . .
2479	5B 30 

247B	07 B5 5B 7B              DB 007h, 0B5h, 05Bh, 07Bh, 055h, 055h, 0BBh, 07Bh, 0BBh, 0B5h
	. . .
2483	BB B5 

2485	B0 07 00 B5              DB 0B0h, 007h, 000h, 0B5h, 05Bh, 0BBh, 0B7h, 0BBh, 0BBh, 07Bh
	. . .
248D	BB 7B 

248F	B5 55 5B 7B              DB 0B5h, 055h, 05Bh, 07Bh, 055h, 055h, 0B7h, 0BBh, 0B7h, 0B5h
	. . .
2497	B7 B5 

2499	55 55 B7 00              DB 055h, 055h, 0B7h, 000h, 009h, 070h, 0B5h, 055h, 05Bh, 07Bh
	. . .
24A1	5B 7B 

24A3	55 55 B7 B5              DB 055h, 055h, 0B7h, 0B5h, 0B7h, 0B5h, 055h, 055h, 0BBh, 07Bh
	. . .
24AB	BB 7B 

24AD	BB BB B5 55              DB 0BBh, 0BBh, 0B5h, 055h, 05Bh, 07Bh, 055h, 055h, 0B7h, 0B5h
	. . .
24B5	B7 B5 

24B7	B7 B5 55 55              DB 0B7h, 0B5h, 055h, 055h, 05Bh, 07Bh, 055h, 055h, 055h, 055h
	. . .
24BF	55 55 

24C1	5B 7B BB BB              DB 05Bh, 07Bh, 0BBh, 0BBh, 0B7h, 0B5h, 0B7h, 0BBh, 0BBh, 0BBh
	. . .
24C9	BB BB 

24CB	5B 7B BB BB              DB 05Bh, 07Bh, 0BBh, 0BBh, 0B5h, 055h, 05Bh, 070h, 000h, 000h
	. . .
24D3	00 00 

24D5	07 B5 B7 00              DB 007h, 0B5h, 0B7h, 000h, 000h, 01Bh, 05Bh, 070h, 000h, 010h
	. . .
24DD	00 10 

24DF	B5 55 5B 7B              DB 0B5h, 055h, 05Bh, 07Bh, 0BBh, 0BBh, 0B7h, 0B5h, 0B7h, 0BBh
	. . .
24E7	B7 BB 

24E9	BB BB 5B B7              DB 0BBh, 0BBh, 05Bh, 0B7h, 0BBh, 0B4h, 0B5h, 055h, 05Bh, 07Bh
	. . .
24F1	5B 7B 

24F3	55 55 B7 B5              DB 055h, 055h, 0B7h, 0B5h, 0B7h, 0B5h, 055h, 055h, 055h, 0B7h
	. . .
24FB	55 B7 

24FD	B5 BB B5 5B              DB 0B5h, 0BBh, 0B5h, 05Bh, 0BBh, 07Bh, 055h, 055h, 0B7h, 0B5h
	. . .
2505	B7 B5 

2507	B7 BB BB B5              DB 0B7h, 0BBh, 0BBh, 0B5h, 055h, 0B7h, 0B5h, 055h, 055h, 05Bh
	. . .
250F	55 5B 

2511	00 7B 55 55              DB 000h, 07Bh, 055h, 055h, 0B7h, 0B5h, 0B7h, 000h, 001h, 0B5h
	. . .
2519	01 B5 

251B	55 B7 B5 BB              DB 055h, 0B7h, 0B5h, 0BBh, 0BBh, 05Bh, 07Bh, 0BBh, 0BBh, 0BBh
	. . .
2523	BB BB 

2525	B7 BB BB BB              DB 0B7h, 0BBh, 0BBh, 0BBh, 07Bh, 0B5h, 0BBh, 0B7h, 0B5h, 0B0h
	. . .
252D	B5 B0 

252F	2B 5B 70 00              DB 02Bh, 05Bh, 070h, 000h, 000h, 000h, 007h, 000h, 0B5h, 05Bh
	. . .
2537	B5 5B 

2539	7B 55 B0 07              DB 07Bh, 055h, 0B0h, 007h, 0B5h, 0B7h, 0BBh, 05Bh, 07Bh, 0BBh
	. . .
2541	7B BB 

2543	BB BB BB BB              DB 0BBh, 0BBh, 0BBh, 0BBh, 0B5h, 05Bh, 07Bh, 055h, 0B7h, 0BBh
	. . .
254B	B7 BB 

254D	B5 B7 B5 5B              DB 0B5h, 0B7h, 0B5h, 05Bh, 07Bh, 055h, 055h, 055h, 055h, 055h
	. . .
2555	55 55 

2557	55 5B 7B 55              DB 055h, 05Bh, 07Bh, 055h, 0B7h, 0B5h, 055h, 0B7h, 0B5h, 05Bh
	. . .
255F	B5 5B 

2561	7B 55 5B BB              DB 07Bh, 055h, 05Bh, 0BBh, 05Bh, 0BBh, 0BBh, 0BBh, 07Bh, 0BBh
	. . .
2569	7B BB 

256B	B7 BB 55 B7              DB 0B7h, 0BBh, 055h, 0B7h, 0B5h, 05Bh, 07Bh, 055h, 05Bh, 01Bh
	. . .
2573	5B 1B 

2575	5B 01 00 00              DB 05Bh, 001h, 000h, 000h, 070h, 000h, 007h, 00Bh, 0BBh, 0B7h
	. . .
257D	BB B7 

257F	B5 5B 7B BB              DB 0B5h, 05Bh, 07Bh, 0BBh, 0BBh, 07Bh, 05Bh, 04Bh, 0BBh, 0BBh
	. . .
2587	BB BB 

2589	BB BB BB 70              DB 0BBh, 0BBh, 0BBh, 070h, 000h, 007h, 0B5h, 05Bh, 070h, 000h
	. . .
2591	70 00 

2593	00 7B 5B BB              DB 000h, 07Bh, 05Bh, 0BBh, 055h, 055h, 055h, 055h, 05Bh, 0BBh
	. . .
259B	5B BB 

259D	BB BB B5 5B              DB 0BBh, 0BBh, 0B5h, 05Bh, 0BBh, 0BBh, 0BBh, 0BBh, 055h, 055h
	. . .
25A5	55 55 

25A7	55 55 55 55              DB 055h, 055h, 055h, 055h, 055h, 055h, 055h, 055h, 055h, 00Dh
	. . .
25AF	55 0D 

25B1	00 14 00 02              DB 000h, 014h, 000h, 002h, 013h, 000h, 002h, 000h, 004h, 016h
	. . .
25B9	04 16 

25BB	00 02 00 04              DB 000h, 002h, 000h, 004h, 018h, 0BBh, 0B0h, 000h, 000h, 000h
	. . .
25C3	00 00 

25C5	00 00 00 00              DB 000h, 000h, 000h, 000h, 000h, 000h, 000h, 000h, 000h, 000h
	. . .
25CD	00 00 

25CF	7B BB B0 00              DB 07Bh, 0BBh, 0B0h, 000h, 000h, 000h, 000h, 000h, 00Ah, 0AAh
	. . .
25D7	0A AA 

25D9	66 66 66 66              DB 066h, 066h, 066h, 066h, 066h, 070h, 07Bh, 0BBh, 0B0h, 000h
	. . .
25E1	B0 00 

25E3	00 00 00 00              DB 000h, 000h, 000h, 000h, 00Ah, 01Ah, 000h, 000h, 000h, 000h
	. . .
25EB	00 00 

25ED	00 70 7B BB              DB 000h, 070h, 07Bh, 0BBh, 0B0h, 000h, 000h, 000h, 000h, 000h
	. . .
25F5	00 00 

25F7	0A 1A 00 00              DB 00Ah, 01Ah, 000h, 000h, 000h, 000h, 000h, 070h, 07Bh, 0BBh
	. . .
25FF	7B BB 

2601	B0 00 00 00              DB 0B0h, 000h, 000h, 000h, 000h, 000h, 00Ah, 01Ah, 000h, 000h
	. . .
2609	00 00 

260B	00 00 00 70              DB 000h, 000h, 000h, 070h, 07Bh, 0BBh, 0B0h, 000h, 000h, 000h
	. . .
2613	00 00 

2615	00 00 0A 1A              DB 000h, 000h, 00Ah, 01Ah, 000h, 000h, 000h, 000h, 000h, 070h
	. . .
261D	00 70 

261F	7B BB B0 00              DB 07Bh, 0BBh, 0B0h, 000h, 000h, 000h, 000h, 000h, 00Ah, 01Ah
	. . .
2627	0A 1A 

2629	00 00 00 00              DB 000h, 000h, 000h, 000h, 000h, 070h, 07Bh, 0BBh, 0B0h, 000h
	. . .
2631	B0 00 

2633	00 00 AA AA              DB 000h, 000h, 0AAh, 0AAh, 0AAh, 06Ah, 0AAh, 0AAh, 0A0h, 000h
	. . .
263B	A0 00 

263D	00 70 7B BB              DB 000h, 070h, 07Bh, 0BBh, 0B0h, 000h, 000h, 000h, 0A1h, 011h
	. . .
2645	A1 11 

2647	31 11 11 11              DB 031h, 011h, 011h, 011h, 0A0h, 000h, 000h, 070h, 07Bh, 0BBh
	. . .
264F	7B BB 

2651	B0 00 00 00              DB 0B0h, 000h, 000h, 000h, 0AAh, 0AAh, 0AAh, 06Ah, 0AAh, 0AAh
	. . .
2659	AA AA 

265B	A6 66 00 70              DB 0A6h, 066h, 000h, 070h, 07Bh, 0BBh, 0B0h, 000h, 000h, 000h
	. . .
2663	00 00 

2665	00 00 0A 2A              DB 000h, 000h, 00Ah, 02Ah, 000h, 000h, 000h, 000h, 000h, 070h
	. . .
266D	00 70 

266F	7B BB B0 00              DB 07Bh, 0BBh, 0B0h, 000h, 000h, 000h, 000h, 000h, 00Ah, 01Ah
	. . .
2677	0A 1A 

2679	00 00 00 76              DB 000h, 000h, 000h, 076h, 066h, 060h, 07Bh, 0BBh, 0B0h, 000h
	. . .
2681	B0 00 

2683	00 00 00 00              DB 000h, 000h, 000h, 000h, 00Ah, 01Ah, 000h, 000h, 000h, 070h
	. . .
268B	00 70 

268D	00 00 7B BB              DB 000h, 000h, 07Bh, 0BBh, 0B0h, 000h, 000h, 000h, 000h, 000h
	. . .
2695	00 00 

2697	0A 1A 00 00              DB 00Ah, 01Ah, 000h, 000h, 000h, 070h, 06Bh, 0B0h, 07Bh, 0BBh
	. . .
269F	7B BB 

26A1	B0 00 00 00              DB 0B0h, 000h, 000h, 000h, 000h, 000h, 00Ah, 01Ah, 000h, 000h
	. . .
26A9	00 00 

26AB	00 70 0A 90              DB 000h, 070h, 00Ah, 090h, 07Bh, 0BBh, 0B0h, 000h, 000h, 000h
	. . .
26B3	00 00 

26B5	00 00 0A 1A              DB 000h, 000h, 00Ah, 01Ah, 000h, 000h, 000h, 070h, 0BBh, 0B6h
	. . .
26BD	BB B6 

26BF	7B BB B0 00              DB 07Bh, 0BBh, 0B0h, 000h, 000h, 000h, 000h, 000h, 00Ah, 01Ah
	. . .
26C7	0A 1A 

26C9	00 00 00 70              DB 000h, 000h, 000h, 070h, 000h, 000h, 0BBh, 0BBh, 0B0h, 000h
	. . .
26D1	B0 00 

26D3	00 00 00 00              DB 000h, 000h, 000h, 000h, 00Ah, 01Ah, 000h, 000h, 000h, 070h
	. . .
26DB	00 70 

26DD	00 00 BB BB              DB 000h, 000h, 0BBh, 0BBh, 0B0h, 000h, 000h, 000h, 000h, 000h
	. . .
26E5	00 00 

26E7	0A 1A 00 00              DB 00Ah, 01Ah, 000h, 000h, 000h, 070h, 000h, 000h, 0BBh, 0BBh
	. . .
26EF	BB BB 

26F1	10 00 00 00              DB 010h, 000h, 000h, 000h, 000h, 000h, 00Ah, 01Ah, 000h, 000h
	. . .
26F9	00 00 

26FB	00 70 00 00              DB 000h, 070h, 000h, 000h, 0BBh, 0BBh, 0B6h, 066h, 066h, 066h
	. . .
2703	66 66 

2705	70 00 0A 1A              DB 070h, 000h, 00Ah, 01Ah, 000h, 000h, 076h, 060h, 000h, 000h
	. . .
270D	00 00 

270F	BB BB B4 44              DB 0BBh, 0BBh, 0B4h, 044h, 044h, 044h, 0BBh, 0BBh, 0BBh, 0BBh
	. . .
2717	BB BB 

2719	BB BB B4 44              DB 0BBh, 0BBh, 0B4h, 044h, 044h, 044h, 0BBh, 002h, 000h, 013h
	. . .
2721	00 13 

2723	00 04 0A 00              DB 000h, 004h, 00Ah, 000h, 000h, 000h, 004h, 016h, 000h, 000h
	. . .
272B	00 00 

272D	00 04 18 BB              DB 000h, 004h, 018h, 0BBh, 0BBh, 0BBh, 0BBh, 0BBh, 00Bh, 0BBh
	. . .
2735	0B BB 

2737	BB BB BB BB              DB 0BBh, 0BBh, 0BBh, 0BBh, 00Bh, 0BBh, 0BBh, 0B7h, 0BBh, 0BBh
	. . .
273F	BB BB 

2741	00 00 00 00              DB 000h, 000h, 000h, 000h, 000h, 000h, 000h, 000h, 000h, 000h
	. . .
2749	00 00 

274B	00 00 00 B7              DB 000h, 000h, 000h, 0B7h, 0BBh, 0BBh, 000h, 000h, 000h, 000h
	. . .
2753	00 00 

2755	00 00 00 00              DB 000h, 000h, 000h, 000h, 000h, 000h, 000h, 000h, 000h, 0B7h
	. . .
275D	00 B7 

275F	BB BB 00 07              DB 0BBh, 0BBh, 000h, 007h, 066h, 076h, 067h, 066h, 076h, 0A6h
	. . .
2767	76 A6 

2769	76 67 66 76              DB 076h, 067h, 066h, 076h, 067h, 0B7h, 0BBh, 0BBh, 000h, 007h
	. . .
2771	00 07 

2773	00 70 07 00              DB 000h, 070h, 007h, 000h, 070h, 0A0h, 070h, 007h, 000h, 070h
	. . .
277B	00 70 

277D	07 B7 BB BB              DB 007h, 0B7h, 0BBh, 0BBh, 000h, 007h, 066h, 076h, 067h, 066h
	. . .
2785	67 66 

2787	7A 0A 76 67              DB 07Ah, 00Ah, 076h, 067h, 066h, 076h, 067h, 0B7h, 0BBh, 0BBh
	. . .
278F	BB BB 

2791	00 07 00 70              DB 000h, 007h, 000h, 070h, 007h, 000h, 07Ah, 01Ah, 070h, 007h
	. . .
2799	70 07 

279B	00 70 07 B7              DB 000h, 070h, 007h, 0B7h, 0BBh, 0BBh, 000h, 007h, 066h, 076h
	. . .
27A3	66 76 

27A5	67 66 A6 66              DB 067h, 066h, 0A6h, 066h, 0A6h, 067h, 066h, 076h, 067h, 0B7h
	. . .
27AD	67 B7 

27AF	BB BB 00 07              DB 0BBh, 0BBh, 000h, 007h, 000h, 070h, 007h, 000h, 0A0h, 010h
	. . .
27B7	A0 10 

27B9	A0 07 00 70              DB 0A0h, 007h, 000h, 070h, 007h, 0B7h, 0BBh, 0BBh, 000h, 007h
	. . .
27C1	00 07 

27C3	66 76 07 0A              DB 066h, 076h, 007h, 00Ah, 066h, 066h, 06Ah, 007h, 006h, 076h
	. . .
27CB	06 76 

27CD	67 B7 BB BB              DB 067h, 0B7h, 0BBh, 0BBh, 000h, 007h, 000h, 070h, 007h, 000h
	. . .
27D5	07 00 

27D7	00 10 00 07              DB 000h, 010h, 000h, 007h, 000h, 070h, 007h, 0B7h, 0BBh, 0BBh
	. . .
27DF	BB BB 

27E1	00 07 66 76              DB 000h, 007h, 066h, 076h, 007h, 0A0h, 070h, 066h, 070h, 0A7h
	. . .
27E9	70 A7 

27EB	06 76 67 B7              DB 006h, 076h, 067h, 0B7h, 0BBh, 0BBh, 000h, 007h, 000h, 070h
	. . .
27F3	00 70 

27F5	07 A0 70 30              DB 007h, 0A0h, 070h, 030h, 070h, 0A7h, 000h, 070h, 007h, 0B7h
	. . .
27FD	07 B7 

27FF	BB BB 00 07              DB 0BBh, 0BBh, 000h, 007h, 066h, 076h, 00Ah, 000h, 076h, 060h
	. . .
2807	76 60 

2809	70 0A 06 76              DB 070h, 00Ah, 006h, 076h, 067h, 0B7h, 0BBh, 0BBh, 000h, 007h
	. . .
2811	00 07 

2813	00 70 08 06              DB 000h, 070h, 008h, 006h, 070h, 020h, 076h, 008h, 000h, 070h
	. . .
281B	00 70 

281D	07 B7 BB BB              DB 007h, 0B7h, 0BBh, 0BBh, 000h, 007h, 066h, 076h, 0AAh, 0A0h
	. . .
2825	AA A0 

2827	70 66 70 AA              DB 070h, 066h, 070h, 0AAh, 0A6h, 076h, 067h, 0B7h, 0BBh, 0BBh
	. . .
282F	BB BB 

2831	00 07 00 70              DB 000h, 007h, 000h, 070h, 000h, 000h, 070h, 010h, 070h, 000h
	. . .
2839	70 00 

283B	00 70 07 97              DB 000h, 070h, 007h, 097h, 0BBh, 0BBh, 0B7h, 0B7h, 066h, 070h
	. . .
2843	66 70 

2845	A0 06 76 60              DB 0A0h, 006h, 076h, 060h, 076h, 000h, 0A0h, 076h, 067h, 0BBh
	. . .
284D	67 BB 

284F	BB BB B7 B4              DB 0BBh, 0BBh, 0B7h, 0B4h, 044h, 044h, 0AAh, 0A4h, 044h, 044h
	. . .
2857	44 44 

2859	44 AA A4 44              DB 044h, 0AAh, 0A4h, 044h, 044h, 0BBh, 0BBh, 0BBh, 007h, 0B5h
	. . .
2861	07 B5 

2863	55 55 55 55              DB 055h, 055h, 055h, 055h, 055h, 055h, 055h, 055h, 055h, 055h
	. . .
286B	55 55 

286D	55 55 BB BB              DB 055h, 055h, 0BBh, 0BBh, 007h, 0B5h, 055h, 055h, 055h, 055h
	. . .
2875	55 55 

2877	55 55 55 55              DB 055h, 055h, 055h, 055h, 055h, 055h, 055h, 055h, 0BBh, 0BBh
	. . .
287F	BB BB 

2881	BB B5 55 55              DB 0BBh, 0B5h, 055h, 055h, 055h, 055h, 055h, 055h, 055h, 055h
	. . .
2889	55 55 

288B	55 55 55 55              DB 055h, 055h, 055h, 055h, 0BBh, 002h, 000h, 014h, 000h, 002h
	. . .
2893	00 02 

2895	0E 00 00 00              DB 00Eh, 000h, 000h, 000h, 004h, 012h, 000h, 000h, 000h, 004h
	. . .
289D	00 04 

289F	18 BB 00 00              DB 018h, 0BBh, 000h, 000h, 000h, 000h, 000h, 000h, 000h, 000h
	. . .
28A7	00 00 

28A9	00 00 00 00              DB 000h, 000h, 000h, 000h, 000h, 007h, 0BBh, 0BBh, 000h, 000h
	. . .
28B1	00 00 

28B3	00 00 00 00              DB 000h, 000h, 000h, 000h, 000h, 0A0h, 000h, 000h, 000h, 000h
	. . .
28BB	00 00 

28BD	00 07 BB BB              DB 000h, 007h, 0BBh, 0BBh, 000h, 000h, 000h, 000h, 000h, 000h
	. . .
28C5	00 00 

28C7	00 00 00 00              DB 000h, 000h, 000h, 000h, 000h, 000h, 000h, 007h, 0BBh, 0BBh
	. . .
28CF	BB BB 

28D1	07 66 66 66              DB 007h, 066h, 066h, 066h, 066h, 066h, 06Ah, 06Ah, 000h, 000h
	. . .
28D9	00 00 

28DB	00 00 00 07              DB 000h, 000h, 000h, 007h, 0BBh, 0BBh, 007h, 000h, 000h, 000h
	. . .
28E3	00 00 

28E5	00 00 01 01              DB 000h, 000h, 001h, 001h, 000h, 000h, 000h, 000h, 000h, 007h
	. . .
28ED	00 07 

28EF	BB BB 07 00              DB 0BBh, 0BBh, 007h, 000h, 000h, 000h, 000h, 000h, 0AAh, 06Ah
	. . .
28F7	AA 6A 

28F9	A0 00 00 00              DB 0A0h, 000h, 000h, 000h, 000h, 007h, 0BBh, 0BBh, 007h, 000h
	. . .
2901	07 00 

2903	00 00 00 00              DB 000h, 000h, 000h, 000h, 001h, 001h, 000h, 000h, 000h, 000h
	. . .
290B	00 00 

290D	00 07 BB BB              DB 000h, 007h, 0BBh, 0BBh, 007h, 000h, 000h, 000h, 000h, 00Ah
	. . .
2915	00 0A 

2917	0A 0A 0A 00              DB 00Ah, 00Ah, 00Ah, 000h, 000h, 000h, 000h, 007h, 0BBh, 0BBh
	. . .
291F	BB BB 

2921	07 00 00 00              DB 007h, 000h, 000h, 000h, 000h, 000h, 001h, 002h, 000h, 000h
	. . .
2929	00 00 

292B	00 00 00 07              DB 000h, 000h, 000h, 007h, 0BBh, 0BBh, 007h, 000h, 000h, 000h
	. . .
2933	00 00 

2935	00 AA 0A 0A              DB 000h, 0AAh, 00Ah, 00Ah, 00Ah, 0A0h, 000h, 000h, 000h, 007h
	. . .
293D	00 07 

293F	BB BB 07 00              DB 0BBh, 0BBh, 007h, 000h, 000h, 000h, 000h, 000h, 001h, 001h
	. . .
2947	01 01 

2949	00 00 00 00              DB 000h, 000h, 000h, 000h, 000h, 007h, 0BBh, 0BBh, 007h, 000h
	. . .
2951	07 00 

2953	00 00 0A A0              DB 000h, 000h, 00Ah, 0A0h, 0AAh, 00Ah, 0A0h, 0AAh, 000h, 000h
	. . .
295B	00 00 

295D	00 07 BB BB              DB 000h, 007h, 0BBh, 0BBh, 007h, 000h, 000h, 000h, 000h, 000h
	. . .
2965	00 00 

2967	01 03 00 00              DB 001h, 003h, 000h, 000h, 000h, 000h, 000h, 007h, 0BBh, 0BBh
	. . .
296F	BB BB 

2971	07 00 00 00              DB 007h, 000h, 000h, 000h, 0AAh, 00Ah, 0AAh, 00Ah, 0AAh, 00Ah
	. . .
2979	AA 0A 

297B	A0 00 00 07              DB 0A0h, 000h, 000h, 007h, 0BBh, 0BBh, 007h, 000h, 000h, 000h
	. . .
2983	00 00 

2985	00 00 01 01              DB 000h, 000h, 001h, 001h, 000h, 000h, 000h, 000h, 000h, 007h
	. . .
298D	00 07 

298F	BB BB 07 00              DB 0BBh, 0BBh, 007h, 000h, 000h, 00Ah, 0A0h, 0AAh, 0AAh, 00Ah
	. . .
2997	AA 0A 

2999	AA A0 AA 00              DB 0AAh, 0A0h, 0AAh, 000h, 000h, 007h, 0BBh, 0BBh, 007h, 000h
	. . .
29A1	07 00 

29A3	00 00 00 00              DB 000h, 000h, 000h, 000h, 001h, 001h, 000h, 000h, 000h, 000h
	. . .
29AB	00 00 

29AD	00 07 BB BB              DB 000h, 007h, 0BBh, 0BBh, 007h, 000h, 000h, 0AAh, 00Ah, 0AAh
	. . .
29B5	0A AA 

29B7	AA 0A AA AA              DB 0AAh, 00Ah, 0AAh, 0AAh, 00Ah, 0A0h, 000h, 007h, 0BBh, 0BBh
	. . .
29BF	BB BB 

29C1	07 00 00 00              DB 007h, 000h, 000h, 000h, 000h, 000h, 001h, 001h, 000h, 000h
	. . .
29C9	00 00 

29CB	00 00 00 07              DB 000h, 000h, 000h, 007h, 0BBh, 0BBh, 007h, 000h, 00Ah, 0AAh
	. . .
29D3	0A AA 

29D5	AA AA AA 0A              DB 0AAh, 0AAh, 0AAh, 00Ah, 0AAh, 0AAh, 0AAh, 0AAh, 000h, 0B7h
	. . .
29DD	00 B7 

29DF	BB BB 07 00              DB 0BBh, 0BBh, 007h, 000h, 000h, 000h, 000h, 000h, 000h, 000h
	. . .
29E7	00 00 

29E9	00 00 00 00              DB 000h, 000h, 000h, 000h, 000h, 097h, 0BBh, 0BBh, 0BBh, 0BBh
	. . .
29F1	BB BB 

29F3	B4 44 44 44              DB 0B4h, 044h, 044h, 044h, 044h, 044h, 044h, 044h, 044h, 044h
	. . .
29FB	44 44 

29FD	BB BB BB 02              DB 0BBh, 0BBh, 0BBh, 002h, 000h, 014h, 000h, 002h, 00Fh, 000h
	. . .
2A05	0F 00 

2A07	12 00 02 13              DB 012h, 000h, 002h, 013h, 000h, 005h, 000h, 002h, 018h, 0BBh
	. . .
2A0F	18 BB 

2A11	00 00 00 00              DB 000h, 000h, 000h, 000h, 000h, 000h, 000h, 000h, 000h, 000h
	. . .
2A19	00 00 

2A1B	00 00 00 B7              DB 000h, 000h, 000h, 0B7h, 0BBh, 0BBh, 000h, 000h, 000h, 000h
	. . .
2A23	00 00 

2A25	00 00 00 00              DB 000h, 000h, 000h, 000h, 000h, 070h, 001h, 071h, 000h, 0B7h
	. . .
2A2D	00 B7 

2A2F	BB BB 00 07              DB 0BBh, 0BBh, 000h, 007h, 0AAh, 0AAh, 0AAh, 0ABh, 0BBh, 0BBh
	. . .
2A37	BB BB 

2A39	AA 70 07 77              DB 0AAh, 070h, 007h, 077h, 000h, 0B7h, 0BBh, 0BBh, 001h, 000h
	. . .
2A41	01 00 

2A43	00 20 10 1B              DB 000h, 020h, 010h, 01Bh, 000h, 00Bh, 000h, 070h, 077h, 007h
	. . .
2A4B	77 07 

2A4D	70 B7 BB BB              DB 070h, 0B7h, 0BBh, 0BBh, 007h, 000h, 000h, 0A6h, 0AAh, 0ABh
	. . .
2A55	AA AB 

2A57	7A 7B B0 70              DB 07Ah, 07Bh, 0B0h, 070h, 070h, 000h, 070h, 0B7h, 0BBh, 0BBh
	. . .
2A5F	BB BB 

2A61	07 00 00 00              DB 007h, 000h, 000h, 000h, 000h, 000h, 07Ah, 071h, 000h, 07Ah
	. . .
2A69	00 7A 

2A6B	A0 00 BB B7              DB 0A0h, 000h, 0BBh, 0B7h, 0BBh, 0BBh, 007h, 066h, 066h, 066h
	. . .
2A73	66 66 

2A75	66 60 7A AA              DB 066h, 060h, 07Ah, 0AAh, 0A6h, 000h, 000h, 000h, 007h, 0B7h
	. . .
2A7D	07 B7 

2A7F	BB BB 07 00              DB 0BBh, 0BBh, 007h, 000h, 000h, 000h, 000h, 000h, 070h, 000h
	. . .
2A87	70 00 

2A89	00 00 66 66              DB 000h, 000h, 066h, 066h, 067h, 0B7h, 0BBh, 0BBh, 077h, 00Ah
	. . .
2A91	77 0A 

2A93	AA AA AA AA              DB 0AAh, 0AAh, 0AAh, 0AAh, 0A0h, 001h, 01Bh, 06Bh, 00Bh, 00Bh
	. . .
2A9B	0B 0B 

2A9D	07 B7 BB BB              DB 007h, 0B7h, 0BBh, 0BBh, 070h, 000h, 0BBh, 0BBh, 0BBh, 0BBh
	. . .
2AA5	BB BB 

2AA7	B6 6B BB 0B              DB 0B6h, 06Bh, 0BBh, 00Bh, 00Bh, 04Bh, 007h, 0B7h, 0BBh, 0BBh
	. . .
2AAF	BB BB 

2AB1	70 00 BB BB              DB 070h, 000h, 0BBh, 0BBh, 0BBh, 0BBh, 0B4h, 04Bh, 055h, 04Bh
	. . .
2AB9	55 4B 

2ABB	0B BB 07 B7              DB 00Bh, 0BBh, 007h, 0B7h, 0BBh, 0BBh, 070h, 000h, 000h, 000h
	. . .
2AC3	00 00 

2AC5	00 0B BB 55              DB 000h, 00Bh, 0BBh, 055h, 055h, 0BBh, 000h, 000h, 007h, 0B7h
	. . .
2ACD	07 B7 

2ACF	BB BB 70 0B              DB 0BBh, 0BBh, 070h, 00Bh, 0B6h, 000h, 000h, 000h, 0BBh, 0BBh
	. . .
2AD7	BB BB 

2AD9	BB A0 A0 01              DB 0BBh, 0A0h, 0A0h, 001h, 007h, 0B7h, 0BBh, 0BBh, 07Bh, 044h
	. . .
2AE1	7B 44 

2AE3	44 B6 00 00              DB 044h, 0B6h, 000h, 000h, 000h, 0AAh, 0A0h, 00Bh, 077h, 0A6h
	. . .
2AEB	77 A6 

2AED	07 B7 BB BB              DB 007h, 0B7h, 0BBh, 0BBh, 07Bh, 055h, 055h, 0B0h, 011h, 011h
	. . .
2AF5	11 11 

2AF7	7B 7B 7A 0B              DB 07Bh, 07Bh, 07Ah, 00Bh, 07Ah, 0B1h, 007h, 0B7h, 0BBh, 0BBh
	. . .
2AFF	BB BB 

2B01	7B BB B5 B0              DB 07Bh, 0BBh, 0B5h, 0B0h, 066h, 066h, 066h, 070h, 070h, 000h
	. . .
2B09	70 00 

2B0B	00 06 07 B7              DB 000h, 006h, 007h, 0B7h, 0BBh, 0BBh, 070h, 000h, 0B5h, 0B0h
	. . .
2B13	B5 B0 

2B15	0B 00 00 A6              DB 00Bh, 000h, 000h, 0A6h, 0A6h, 0A6h, 0A6h, 0A0h, 007h, 0B7h
	. . .
2B1D	07 B7 

2B1F	BB BB 70 00              DB 0BBh, 0BBh, 070h, 000h, 0B5h, 0B0h, 00Bh, 0BBh, 0BBh, 07Ah
	. . .
2B27	BB 7A 

2B29	7A 7A 7A 7A              DB 07Ah, 07Ah, 07Ah, 07Ah, 007h, 0B7h, 0BBh, 0BBh, 077h, 000h
	. . .
2B31	77 00 

2B33	B5 B0 09 0B              DB 0B5h, 0B0h, 009h, 00Bh, 030h, 0A7h, 0A7h, 0A7h, 0A7h, 0A7h
	. . .
2B3B	A7 A7 

2B3D	07 B7 BB BB              DB 007h, 0B7h, 0BBh, 0BBh, 007h, 000h, 0B5h, 0B4h, 0BBh, 00Bh
	. . .
2B45	BB 0B 

2B47	BB BB BB BB              DB 0BBh, 0BBh, 0BBh, 0BBh, 0BBh, 0BBh, 0BBh, 0B7h, 0BBh, 0BBh
	. . .
2B4F	BB BB 

2B51	07 00 B5 55              DB 007h, 000h, 0B5h, 055h, 0B0h, 000h, 000h, 000h, 000h, 000h
	. . .
2B59	00 00 

2B5B	00 00 00 07              DB 000h, 000h, 000h, 007h, 0BBh, 0BBh, 0BBh, 0BBh, 0BBh, 0BBh
	. . .
2B63	BB BB 

2B65	BB BB BB BB              DB 0BBh, 0BBh, 0BBh, 0BBh, 0BBh, 0BBh, 0BBh, 0BBh, 0BBh, 0BBh
	. . .
2B6D	BB BB 

2B6F	BB 02 00 10              DB 0BBh, 002h, 000h, 010h, 000h, 002h, 00Fh, 000h, 000h, 000h
	. . .
2B77	00 00 

2B79	04 11 00 00              DB 004h, 011h, 000h, 000h, 000h, 004h, 018h, 0BBh, 0BBh, 0BBh
	. . .
2B81	BB BB 

2B83	BB BB BB BB              DB 0BBh, 0BBh, 0BBh, 0BBh, 0B0h, 0B0h, 0BBh, 0BBh, 0BBh, 0BBh
	. . .
2B8B	BB BB 

2B8D	BB BB 7B B0              DB 0BBh, 0BBh, 07Bh, 0B0h, 000h, 000h, 000h, 000h, 000h, 000h
	. . .
2B95	00 00 

2B97	00 00 00 00              DB 000h, 000h, 000h, 000h, 000h, 000h, 000h, 00Bh, 07Bh, 0B7h
	. . .
2B9F	7B B7 

2BA1	66 66 66 66              DB 066h, 066h, 066h, 066h, 066h, 066h, 066h, 066h, 066h, 066h
	. . .
2BA9	66 66 

2BAB	66 66 66 7B              DB 066h, 066h, 066h, 07Bh, 07Bh, 0B7h, 000h, 000h, 000h, 000h
	. . .
2BB3	00 00 

2BB5	00 00 00 A0              DB 000h, 000h, 000h, 0A0h, 000h, 000h, 000h, 000h, 000h, 07Bh
	. . .
2BBD	00 7B 

2BBF	7B B7 00 00              DB 07Bh, 0B7h, 000h, 000h, 000h, 000h, 000h, 000h, 000h, 0A0h
	. . .
2BC7	00 A0 

2BC9	00 00 00 00              DB 000h, 000h, 000h, 000h, 000h, 07Bh, 07Bh, 0B7h, 000h, 000h
	. . .
2BD1	00 00 

2BD3	00 00 00 00              DB 000h, 000h, 000h, 000h, 00Ah, 0AAh, 000h, 000h, 000h, 000h
	. . .
2BDB	00 00 

2BDD	00 7B 7B B7              DB 000h, 07Bh, 07Bh, 0B7h, 007h, 066h, 066h, 066h, 066h, 066h
	. . .
2BE5	66 66 

2BE7	6A AA 66 66              DB 06Ah, 0AAh, 066h, 066h, 066h, 066h, 066h, 07Bh, 07Bh, 0B7h
	. . .
2BEF	7B B7 

2BF1	07 00 00 00              DB 007h, 000h, 000h, 000h, 000h, 000h, 0AAh, 00Ah, 0A0h, 000h
	. . .
2BF9	A0 00 

2BFB	00 00 00 7B              DB 000h, 000h, 000h, 07Bh, 07Bh, 0B7h, 000h, 066h, 066h, 070h
	. . .
2C03	66 70 

2C05	00 00 AA 1A              DB 000h, 000h, 0AAh, 01Ah, 0A0h, 000h, 000h, 076h, 066h, 00Bh
	. . .
2C0D	66 0B 

2C0F	7B B7 07 66              DB 07Bh, 0B7h, 007h, 066h, 066h, 060h, 000h, 00Ah, 0A6h, 066h
	. . .
2C17	A6 66 

2C19	AA 00 00 66              DB 0AAh, 000h, 000h, 066h, 066h, 07Bh, 07Bh, 0B7h, 007h, 000h
	. . .
2C21	07 00 

2C23	00 00 00 0A              DB 000h, 000h, 000h, 00Ah, 0A0h, 010h, 0AAh, 000h, 000h, 000h
	. . .
2C2B	00 00 

2C2D	00 7B 7B B7              DB 000h, 07Bh, 07Bh, 0B7h, 006h, 066h, 066h, 066h, 066h, 0AAh
	. . .
2C35	66 AA 

2C37	66 66 6A A6              DB 066h, 066h, 06Ah, 0A6h, 066h, 066h, 066h, 06Bh, 07Bh, 0B7h
	. . .
2C3F	7B B7 

2C41	00 00 00 00              DB 000h, 000h, 000h, 000h, 000h, 0AAh, 000h, 020h, 00Ah, 0A0h
	. . .
2C49	0A A0 

2C4B	00 00 00 0B              DB 000h, 000h, 000h, 00Bh, 07Bh, 0B7h, 000h, 000h, 000h, 000h
	. . .
2C53	00 00 

2C55	0A A6 76 60              DB 00Ah, 0A6h, 076h, 060h, 076h, 0AAh, 000h, 000h, 000h, 00Bh
	. . .
2C5D	00 0B 

2C5F	7B B7 00 00              DB 07Bh, 0B7h, 000h, 000h, 000h, 000h, 00Ah, 0A0h, 070h, 030h
	. . .
2C67	70 30 

2C69	70 AA 00 00              DB 070h, 0AAh, 000h, 000h, 000h, 00Bh, 07Bh, 0B7h, 000h, 000h
	. . .
2C71	00 00 

2C73	00 00 AA 06              DB 000h, 000h, 0AAh, 006h, 070h, 066h, 076h, 00Ah, 0A0h, 000h
	. . .
2C7B	A0 00 

2C7D	00 0B 7B B7              DB 000h, 00Bh, 07Bh, 0B7h, 000h, 000h, 000h, 000h, 0A0h, 000h
	. . .
2C85	A0 00 

2C87	70 10 70 00              DB 070h, 010h, 070h, 000h, 0A0h, 000h, 000h, 009h, 07Bh, 0BBh
	. . .
2C8F	7B BB 

2C91	66 66 66 66              DB 066h, 066h, 066h, 066h, 0A0h, 0A6h, 076h, 060h, 076h, 0A0h
	. . .
2C99	76 A0 

2C9B	A6 66 66 6B              DB 0A6h, 066h, 066h, 06Bh, 0BBh, 0BBh, 044h, 044h, 044h, 044h
	. . .
2CA3	44 44 

2CA5	AA A4 44 44              DB 0AAh, 0A4h, 044h, 044h, 044h, 0AAh, 0A4h, 044h, 044h, 04Bh
	. . .
2CAD	44 4B 

2CAF	BB BB 55 55              DB 0BBh, 0BBh, 055h, 055h, 055h, 055h, 055h, 055h, 055h, 055h
	. . .
2CB7	55 55 

2CB9	55 55 55 55              DB 055h, 055h, 055h, 055h, 055h, 05Bh, 0BBh, 0BBh, 055h, 055h
	. . .
2CC1	55 55 

2CC3	55 55 55 55              DB 055h, 055h, 055h, 055h, 055h, 055h, 055h, 055h, 055h, 055h
	. . .
2CCB	55 55 

2CCD	55 5B BB BB              DB 055h, 05Bh, 0BBh, 0BBh, 055h, 055h, 055h, 055h, 055h, 055h
	. . .
2CD5	55 55 

2CD7	55 55 55 55              DB 055h, 055h, 055h, 055h, 055h, 055h, 055h, 05Bh, 0BBh, 003h
	. . .
2CDF	BB 03 

2CE1	00 14 00 02              DB 000h, 014h, 000h, 002h, 00Eh, 000h, 000h, 000h, 004h, 012h
	. . .
2CE9	04 12 

2CEB	00 00 00 04              DB 000h, 000h, 000h, 004h, 018h, 0BBh, 000h, 000h, 000h, 000h
	. . .
2CF3	00 00 

2CF5	00 00 00 00              DB 000h, 000h, 000h, 000h, 000h, 000h, 000h, 000h, 000h, 007h
	. . .
2CFD	00 07 

2CFF	BB BB 00 00              DB 0BBh, 0BBh, 000h, 000h, 000h, 000h, 000h, 000h, 000h, 0A0h
	. . .
2D07	00 A0 

2D09	00 00 00 00              DB 000h, 000h, 000h, 000h, 000h, 007h, 0BBh, 0BBh, 000h, 000h
	. . .
2D11	00 00 

2D13	00 00 00 00              DB 000h, 000h, 000h, 000h, 000h, 000h, 000h, 000h, 000h, 000h
	. . .
2D1B	00 00 

2D1D	00 07 BB BB              DB 000h, 007h, 0BBh, 0BBh, 000h, 007h, 066h, 066h, 066h, 066h
	. . .
2D25	66 66 

2D27	6A AA 00 00              DB 06Ah, 0AAh, 000h, 000h, 000h, 000h, 000h, 007h, 0BBh, 0BBh
	. . .
2D2F	BB BB 

2D31	00 07 00 00              DB 000h, 007h, 000h, 000h, 000h, 000h, 000h, 010h, 000h, 000h
	. . .
2D39	00 00 

2D3B	00 00 00 07              DB 000h, 000h, 000h, 007h, 0BBh, 0BBh, 000h, 007h, 000h, 000h
	. . .
2D43	00 00 

2D45	00 00 A6 A6              DB 000h, 000h, 0A6h, 0A6h, 0A0h, 000h, 000h, 000h, 000h, 007h
	. . .
2D4D	00 07 

2D4F	BB BB 00 07              DB 0BBh, 0BBh, 000h, 007h, 000h, 000h, 000h, 000h, 000h, 000h
	. . .
2D57	00 00 

2D59	00 00 00 00              DB 000h, 000h, 000h, 000h, 000h, 007h, 0BBh, 0BBh, 000h, 007h
	. . .
2D61	00 07 

2D63	00 00 00 0A              DB 000h, 000h, 000h, 00Ah, 00Ah, 0AAh, 00Ah, 000h, 000h, 000h
	. . .
2D6B	00 00 

2D6D	00 07 BB BB              DB 000h, 007h, 0BBh, 0BBh, 000h, 007h, 000h, 000h, 000h, 000h
	. . .
2D75	00 00 

2D77	10 00 10 00              DB 010h, 000h, 010h, 000h, 000h, 000h, 000h, 007h, 0BBh, 0BBh
	. . .
2D7F	BB BB 

2D81	00 07 00 00              DB 000h, 007h, 000h, 000h, 000h, 0A0h, 0AAh, 00Ah, 0A0h, 0A0h
	. . .
2D89	A0 A0 

2D8B	00 00 00 07              DB 000h, 000h, 000h, 007h, 0BBh, 0BBh, 000h, 007h, 000h, 000h
	. . .
2D93	00 00 

2D95	00 01 00 00              DB 000h, 001h, 000h, 000h, 001h, 000h, 000h, 000h, 000h, 007h
	. . .
2D9D	00 07 

2D9F	BB BB 00 07              DB 0BBh, 0BBh, 000h, 007h, 000h, 000h, 00Ah, 006h, 0B0h, 000h
	. . .
2DA7	B0 00 

2DA9	BA 6A 00 00              DB 0BAh, 06Ah, 000h, 000h, 000h, 007h, 0BBh, 0BBh, 000h, 007h
	. . .
2DB1	00 07 

2DB3	00 00 00 00              DB 000h, 000h, 000h, 000h, 0B4h, 044h, 0B0h, 000h, 000h, 000h
	. . .
2DBB	00 00 

2DBD	00 07 BB BB              DB 000h, 007h, 0BBh, 0BBh, 000h, 007h, 000h, 000h, 0A0h, 070h
	. . .
2DC5	A0 70 

2DC7	BB BB B0 70              DB 0BBh, 0BBh, 0B0h, 070h, 0A0h, 000h, 000h, 007h, 0BBh, 0BBh
	. . .
2DCF	BB BB 

2DD1	00 07 00 00              DB 000h, 007h, 000h, 000h, 001h, 008h, 000h, 000h, 000h, 001h
	. . .
2DD9	00 01 

2DDB	00 00 00 07              DB 000h, 000h, 000h, 007h, 0BBh, 0BBh, 000h, 007h, 000h, 00Ah
	. . .
2DE3	00 0A 

2DE5	0A 66 AA 0A              DB 00Ah, 066h, 0AAh, 00Ah, 0AAh, 0AAh, 00Ah, 000h, 000h, 007h
	. . .
2DED	00 07 

2DEF	BB BB 00 07              DB 0BBh, 0BBh, 000h, 007h, 000h, 000h, 010h, 000h, 002h, 000h
	. . .
2DF7	02 00 

2DF9	00 00 10 00              DB 000h, 000h, 010h, 000h, 000h, 007h, 0BBh, 0BBh, 000h, 007h
	. . .
2E01	00 07 

2E03	00 A6 AA 0A              DB 000h, 0A6h, 0AAh, 00Ah, 0AAh, 060h, 0AAh, 00Ah, 0A6h, 0A0h
	. . .
2E0B	A6 A0 

2E0D	00 07 BB BB              DB 000h, 007h, 0BBh, 0BBh, 000h, 070h, 000h, 080h, 000h, 000h
	. . .
2E15	00 00 

2E17	00 03 00 00              DB 000h, 003h, 000h, 000h, 000h, 000h, 000h, 007h, 0BBh, 0BBh
	. . .
2E1F	BB BB 

2E21	00 70 0A AA              DB 000h, 070h, 00Ah, 0AAh, 00Ah, 0A0h, 0AAh, 00Ah, 0AAh, 0A0h
	. . .
2E29	AA A0 

2E2B	AA 0A 00 B7              DB 0AAh, 00Ah, 000h, 0B7h, 0BBh, 0BBh, 000h, 070h, 000h, 000h
	. . .
2E33	00 00 

2E35	00 00 00 00              DB 000h, 000h, 000h, 000h, 000h, 000h, 000h, 000h, 000h, 097h
	. . .
2E3D	00 97 

2E3F	BB BB BB BB              DB 0BBh, 0BBh, 0BBh, 0BBh, 0BBh, 0BBh, 0BBh, 0BBh, 0BBh, 0BBh
	. . .
2E47	BB BB 

2E49	BB BB BB BB              DB 0BBh, 0BBh, 0BBh, 0BBh, 0BBh, 0BBh, 0BBh, 006h, 000h, 013h
	. . .
2E51	00 13 

2E53	00 01 08 00              DB 000h, 001h, 008h, 000h, 000h, 000h, 004h, 01Ah, 000h, 000h
	. . .
2E5B	00 00 

2E5D	00 04 18 BB              DB 000h, 004h, 018h, 0BBh, 000h, 000h, 007h, 003h, 000h, 000h
	. . .
2E65	00 00 

2E67	00 00 00 00              DB 000h, 000h, 000h, 000h, 000h, 00Bh, 00Bh, 0BBh, 0BBh, 0BBh
	. . .
2E6F	BB BB 

2E71	00 01 07 36              DB 000h, 001h, 007h, 036h, 066h, 066h, 066h, 066h, 066h, 076h
	. . .
2E79	66 76 

2E7B	B7 08 10 00              DB 0B7h, 008h, 010h, 000h, 0BBh, 0BBh, 076h, 066h, 006h, 066h
	. . .
2E83	06 66 

2E85	66 66 66 66              DB 066h, 066h, 066h, 066h, 066h, 060h, 007h, 0AAh, 07Ah, 070h
	. . .
2E8D	7A 70 

2E8F	BB BB 7B 00              DB 0BBh, 0BBh, 07Bh, 000h, 000h, 000h, 066h, 066h, 066h, 066h
	. . .
2E97	66 66 

2E99	66 67 00 00              DB 066h, 067h, 000h, 000h, 010h, 070h, 0BBh, 0BBh, 07Bh, 076h
	. . .
2EA1	7B 76 

2EA3	66 66 66 66              DB 066h, 066h, 066h, 066h, 066h, 066h, 060h, 007h, 000h, 07Ah
	. . .
2EAB	00 7A 

2EAD	7A 00 BB BB              DB 07Ah, 000h, 0BBh, 0BBh, 07Bh, 070h, 01Bh, 000h, 000h, 010h
	. . .
2EB5	00 10 

2EB7	01 00 01 07              DB 001h, 000h, 001h, 007h, 000h, 070h, 010h, 000h, 0BBh, 0BBh
	. . .
2EBF	BB BB 

2EC1	7B 06 6B 76              DB 07Bh, 006h, 06Bh, 076h, 066h, 060h, 007h, 066h, 067h, 007h
	. . .
2EC9	67 07 

2ECB	00 0A 7A 70              DB 000h, 00Ah, 07Ah, 070h, 0BBh, 0BBh, 07Bh, 070h, 01Bh, 070h
	. . .
2ED3	1B 70 

2ED5	00 00 10 10              DB 000h, 000h, 010h, 010h, 000h, 007h, 000h, 000h, 010h, 070h
	. . .
2EDD	10 70 

2EDF	BB BB 7B 76              DB 0BBh, 0BBh, 07Bh, 076h, 06Bh, 070h, 00Bh, 076h, 067h, 060h
	. . .
2EE7	67 60 

2EE9	00 07 00 7A              DB 000h, 007h, 000h, 07Ah, 07Ah, 000h, 0BBh, 0BBh, 07Bh, 000h
	. . .
2EF1	7B 00 

2EF3	00 66 7B 70              DB 000h, 066h, 07Bh, 070h, 010h, 007h, 066h, 066h, 000h, 070h
	. . .
2EFB	00 70 

2EFD	10 00 BB BB              DB 010h, 000h, 0BBh, 0BBh, 07Bh, 000h, 001h, 000h, 07Bh, 070h
	. . .
2F05	7B 70 

2F07	A0 07 00 00              DB 0A0h, 007h, 000h, 000h, 000h, 00Ah, 07Ah, 070h, 0BBh, 0BBh
	. . .
2F0F	BB BB 

2F11	7B 01 BB 00              DB 07Bh, 001h, 0BBh, 000h, 07Bh, 070h, 010h, 007h, 007h, 061h
	. . .
2F19	07 61 

2F1B	00 00 10 70              DB 000h, 000h, 010h, 070h, 0BBh, 0BBh, 07Bh, 007h, 000h, 000h
	. . .
2F23	00 00 

2F25	7B 70 A0 07              DB 07Bh, 070h, 0A0h, 007h, 007h, 00Ah, 000h, 07Ah, 07Ah, 000h
	. . .
2F2D	7A 00 

2F2F	BB BB 7B 4B              DB 0BBh, 0BBh, 07Bh, 04Bh, 07Bh, 066h, 066h, 070h, 000h, 007h
	. . .
2F37	00 07 

2F39	07 01 00 70              DB 007h, 001h, 000h, 070h, 010h, 000h, 0BBh, 0BBh, 07Bh, 0BBh
	. . .
2F41	7B BB 

2F43	7B B6 BB B0              DB 07Bh, 0B6h, 0BBh, 0B0h, 076h, 0AAh, 00Bh, 06Ah, 066h, 0AAh
	. . .
2F4B	66 AA 

2F4D	7A 00 BB BB              DB 07Ah, 000h, 0BBh, 0BBh, 07Bh, 000h, 07Bh, 000h, 000h, 007h
	. . .
2F55	00 07 

2F57	B6 66 00 01              DB 0B6h, 066h, 000h, 001h, 000h, 000h, 000h, 000h, 0BBh, 0BBh
	. . .
2F5F	BB BB 

2F61	7B 7B BB 08              DB 07Bh, 07Bh, 0BBh, 008h, 000h, 007h, 0BBh, 0BBh, 06Bh, 06Ah
	. . .
2F69	6B 6A 

2F6B	66 7A 0A 70              DB 066h, 07Ah, 00Ah, 070h, 0BBh, 0BBh, 07Bh, 07Bh, 000h, 006h
	. . .
2F73	00 06 

2F75	66 69 29 10              DB 066h, 069h, 029h, 010h, 000h, 001h, 000h, 008h, 000h, 070h
	. . .
2F7D	00 70 

2F7F	BB BB 7B 7B              DB 0BBh, 0BBh, 07Bh, 07Bh, 006h, 06Bh, 066h, 06Bh, 07Bh, 0BBh
	. . .
2F87	7B BB 

2F89	6B 6A 00 07              DB 06Bh, 06Ah, 000h, 007h, 06Ah, 0A0h, 0BBh, 0BBh, 07Bh, 070h
	. . .
2F91	7B 70 

2F93	0B 10 00 00              DB 00Bh, 010h, 000h, 000h, 070h, 000h, 000h, 000h, 000h, 007h
	. . .
2F9B	00 07 

2F9D	00 00 BB BB              DB 000h, 000h, 0BBh, 0BBh, 070h, 066h, 06Bh, 066h, 066h, 066h
	. . .
2FA5	66 66 

2FA7	66 66 66 66              DB 066h, 066h, 066h, 066h, 066h, 066h, 066h, 066h, 0BBh, 0BBh
	. . .
2FAF	BB BB 

2FB1	BB BB BB 44              DB 0BBh, 0BBh, 0BBh, 044h, 044h, 044h, 044h, 044h, 044h, 044h
	. . .
2FB9	44 44 

2FBB	44 44 44 44              DB 044h, 044h, 044h, 044h, 0BBh, 010h, 000h, 014h, 000h, 002h
	. . .
2FC3	00 02 

2FC5	0B 00 01 00              DB 00Bh, 000h, 001h, 000h, 004h, 015h, 000h, 001h, 000h, 004h
	. . .
2FCD	00 04 

2FCF	18 BB BB BB              DB 018h, 0BBh, 0BBh, 0BBh, 0BBh, 0BBh, 0BBh, 0BBh, 0BBh, 07Bh
	. . .
2FD7	BB 7B 

2FD9	BB BB BB BB              DB 0BBh, 0BBh, 0BBh, 0BBh, 0BBh, 0BBh, 0BBh, 0BBh, 0B0h, 000h
	. . .
2FE1	B0 00 

2FE3	00 00 00 00              DB 000h, 000h, 000h, 000h, 000h, 070h, 000h, 000h, 000h, 000h
	. . .
2FEB	00 00 

2FED	00 00 BB BB              DB 000h, 000h, 0BBh, 0BBh, 0B0h, 000h, 000h, 000h, 000h, 000h
	. . .
2FF5	00 00 

2FF7	00 70 00 00              DB 000h, 070h, 000h, 000h, 000h, 000h, 000h, 000h, 0BBh, 0BBh
	. . .
2FFF	BB BB 

3001	B7 AA AA 70              DB 0B7h, 0AAh, 0AAh, 070h, 000h, 000h, 000h, 070h, 000h, 000h
	. . .
3009	00 00 

300B	00 7A AA A7              DB 000h, 07Ah, 0AAh, 0A7h, 0BBh, 0BBh, 0B7h, 0B1h, 011h, 0B0h
	. . .
3013	11 B0 

3015	00 00 00 70              DB 000h, 000h, 000h, 070h, 000h, 000h, 000h, 0B1h, 011h, 0B7h
	. . .
301D	11 B7 

301F	BB BB B7 B1              DB 0BBh, 0BBh, 0B7h, 0B1h, 011h, 0B0h, 000h, 000h, 000h, 070h
	. . .
3027	00 70 

3029	00 00 00 B1              DB 000h, 000h, 000h, 0B1h, 011h, 0B7h, 0BBh, 0BBh, 0B7h, 0B1h
	. . .
3031	B7 B1 

3033	11 A0 00 00              DB 011h, 0A0h, 000h, 000h, 000h, 070h, 000h, 000h, 000h, 0A1h
	. . .
303B	00 A1 

303D	11 B7 BB BB              DB 011h, 0B7h, 0BBh, 0BBh, 0B7h, 0AAh, 0AAh, 0A6h, 066h, 066h
	. . .
3045	66 66 

3047	00 70 06 66              DB 000h, 070h, 006h, 066h, 066h, 0AAh, 0AAh, 0A7h, 0BBh, 0BBh
	. . .
304F	BB BB 

3051	B7 B6 66 B0              DB 0B7h, 0B6h, 066h, 0B0h, 0A0h, 000h, 000h, 070h, 000h, 000h
	. . .
3059	00 00 

305B	A0 B6 66 B7              DB 0A0h, 0B6h, 066h, 0B7h, 0BBh, 0BBh, 0B7h, 0B1h, 011h, 0B0h
	. . .
3063	11 B0 

3065	B7 00 00 70              DB 0B7h, 000h, 000h, 070h, 000h, 007h, 0B0h, 0B1h, 011h, 0B7h
	. . .
306D	11 B7 

306F	BB BB B7 B1              DB 0BBh, 0BBh, 0B7h, 0B1h, 011h, 0B0h, 0B7h, 000h, 000h, 070h
	. . .
3077	00 70 

3079	00 07 B0 B1              DB 000h, 007h, 0B0h, 0B1h, 011h, 0B7h, 0BBh, 0BBh, 0B7h, 0B1h
	. . .
3081	B7 B1 

3083	11 B0 B7 00              DB 011h, 0B0h, 0B7h, 000h, 000h, 070h, 000h, 007h, 0B0h, 0B1h
	. . .
308B	B0 B1 

308D	11 B7 BB BB              DB 011h, 0B7h, 0BBh, 0BBh, 0B7h, 000h, 000h, 000h, 0B7h, 0BBh
	. . .
3095	B7 BB 

3097	00 70 0B B7              DB 000h, 070h, 00Bh, 0B7h, 0B0h, 000h, 000h, 007h, 0BBh, 0BBh
	. . .
309F	BB BB 

30A1	B7 07 BB BB              DB 0B7h, 007h, 0BBh, 0BBh, 0BBh, 0BBh, 0B6h, 076h, 0BBh, 0BBh
	. . .
30A9	BB BB 

30AB	BB BB B7 07              DB 0BBh, 0BBh, 0B7h, 007h, 0BBh, 0BBh, 0B6h, 067h, 0B5h, 055h
	. . .
30B3	B5 55 

30B5	55 55 54 B4              DB 055h, 055h, 054h, 0B4h, 055h, 055h, 055h, 055h, 0B7h, 066h
	. . .
30BD	B7 66 

30BF	BB BB B0 07              DB 0BBh, 0BBh, 0B0h, 007h, 0B5h, 055h, 055h, 055h, 055h, 055h
	. . .
30C7	55 55 

30C9	55 55 55 55              DB 055h, 055h, 055h, 055h, 0B7h, 000h, 0BBh, 0BBh, 0B0h, 007h
	. . .
30D1	B0 07 

30D3	B5 55 55 55              DB 0B5h, 055h, 055h, 055h, 055h, 055h, 055h, 055h, 055h, 055h
	. . .
30DB	55 55 

30DD	B7 00 BB BB              DB 0B7h, 000h, 0BBh, 0BBh, 0B0h, 007h, 0B5h, 055h, 055h, 055h
	. . .
30E5	55 55 

30E7	55 55 55 55              DB 055h, 055h, 055h, 055h, 055h, 055h, 0B7h, 000h, 0BBh, 0BBh
	. . .
30EF	BB BB 

30F1	B0 07 B5 55              DB 0B0h, 007h, 0B5h, 055h, 055h, 055h, 055h, 055h, 055h, 055h
	. . .
30F9	55 55 

30FB	55 55 B7 00              DB 055h, 055h, 0B7h, 000h, 0BBh, 0BBh, 0B0h, 007h, 0BBh, 0BBh
	. . .
3103	BB BB 

3105	BB BB BB BB              DB 0BBh, 0BBh, 0BBh, 0BBh, 0BBh, 0BBh, 0BBh, 0BBh, 0B7h, 000h
	. . .
310D	B7 00 

310F	BB BB B0 07              DB 0BBh, 0BBh, 0B0h, 007h, 000h, 000h, 000h, 000h, 000h, 000h
	. . .
3117	00 00 

3119	00 00 00 00              DB 000h, 000h, 000h, 000h, 007h, 000h, 0BBh, 0BBh, 0B4h, 04Bh
	. . .
3121	B4 4B 

3123	BB BB BB BB              DB 0BBh, 0BBh, 0BBh, 0BBh, 0BBh, 0BBh, 0BBh, 0BBh, 0BBh, 0BBh
	. . .
312B	BB BB 

312D	BB 44 BB 02              DB 0BBh, 044h, 0BBh, 002h, 000h, 014h, 000h, 002h, 005h, 000h
	. . .
3135	05 00 

3137	00 00 04 1B              DB 000h, 000h, 004h, 01Bh, 000h, 000h, 000h, 004h, 018h, 0BBh
	. . .
313F	18 BB 

3141	BB B0 BB BB              DB 0BBh, 0B0h, 0BBh, 0BBh, 0BBh, 0BBh, 0BBh, 0BBh, 0BBh, 0BBh
	. . .
3149	BB BB 

314B	BB BB B0 B7              DB 0BBh, 0BBh, 0B0h, 0B7h, 0BBh, 0BBh, 070h, 000h, 000h, 000h
	. . .
3153	00 00 

3155	0A 00 00 0A              DB 00Ah, 000h, 000h, 00Ah, 000h, 000h, 000h, 000h, 000h, 0B7h
	. . .
315D	00 B7 

315F	BB BB 70 00              DB 0BBh, 0BBh, 070h, 000h, 000h, 011h, 00Ah, 001h, 010h, 00Ah
	. . .
3167	10 0A 

3169	00 76 00 00              DB 000h, 076h, 000h, 000h, 000h, 0B7h, 0BBh, 0BBh, 070h, 000h
	. . .
3171	70 00 

3173	07 66 7A 06              DB 007h, 066h, 07Ah, 006h, 067h, 00Bh, 000h, 070h, 000h, 010h
	. . .
317B	00 10 

317D	00 B7 BB BB              DB 000h, 0B7h, 0BBh, 0BBh, 076h, 0B6h, 007h, 000h, 07Ah, 000h
	. . .
3185	7A 00 

3187	07 0B 00 70              DB 007h, 00Bh, 000h, 070h, 000h, 0A7h, 000h, 0B7h, 0BBh, 0BBh
	. . .
318F	BB BB 

3191	70 B6 76 66              DB 070h, 0B6h, 076h, 066h, 006h, 066h, 060h, 06Bh, 000h, 070h
	. . .
3199	00 70 

319B	00 70 03 B7              DB 000h, 070h, 003h, 0B7h, 0BBh, 0BBh, 070h, 066h, 066h, 000h
	. . .
31A3	66 00 

31A5	0A 00 00 00              DB 00Ah, 000h, 000h, 000h, 000h, 070h, 000h, 070h, 0AAh, 0A7h
	. . .
31AD	AA A7 

31AF	BB BB 76 66              DB 0BBh, 0BBh, 076h, 066h, 001h, 011h, 010h, 000h, 000h, 000h
	. . .
31B7	00 00 

31B9	00 70 00 70              DB 000h, 070h, 000h, 070h, 0B0h, 097h, 0BBh, 0BBh, 070h, 000h
	. . .
31C1	70 00 

31C3	A6 66 6A 66              DB 0A6h, 066h, 06Ah, 066h, 066h, 000h, 000h, 070h, 010h, 070h
	. . .
31CB	10 70 

31CD	AA AA BB BB              DB 0AAh, 0AAh, 0BBh, 0BBh, 07Bh, 000h, 000h, 000h, 000h, 000h
	. . .
31D5	00 00 

31D7	00 00 00 70              DB 000h, 000h, 000h, 070h, 0BBh, 0B0h, 0BBh, 0BBh, 0BBh, 0BBh
	. . .
31DF	BB BB 

31E1	7A 00 00 66              DB 07Ah, 000h, 000h, 066h, 067h, 000h, 000h, 010h, 000h, 070h
	. . .
31E9	00 70 

31EB	00 00 00 90              DB 000h, 000h, 000h, 090h, 0BBh, 0BBh, 07Ah, 0AAh, 07Bh, 001h
	. . .
31F3	7B 01 

31F5	07 01 0A B0              DB 007h, 001h, 00Ah, 0B0h, 000h, 0A6h, 0AAh, 0AAh, 0A6h, 067h
	. . .
31FD	A6 67 

31FF	BB BB 00 0B              DB 0BBh, 0BBh, 000h, 00Bh, 07Bh, 006h, 067h, 066h, 000h, 0B4h
	. . .
3207	00 B4 

3209	44 44 44 44              DB 044h, 044h, 044h, 044h, 044h, 0B7h, 0BBh, 0BBh, 010h, 00Bh
	. . .
3211	10 0B 

3213	7B 00 07 00              DB 07Bh, 000h, 007h, 000h, 000h, 0B5h, 055h, 055h, 055h, 055h
	. . .
321B	55 55 

321D	55 B7 BB BB              DB 055h, 0B7h, 0BBh, 0BBh, 070h, 00Bh, 07Bh, 000h, 007h, 000h
	. . .
3225	07 00 

3227	00 BB BB BB              DB 000h, 0BBh, 0BBh, 0BBh, 0BBh, 0BBh, 0BBh, 0B7h, 0BBh, 0BBh
	. . .
322F	BB BB 

3231	70 0B 7B 01              DB 070h, 00Bh, 07Bh, 001h, 007h, 001h, 000h, 000h, 000h, 000h
	. . .
3239	00 00 

323B	00 00 00 07              DB 000h, 000h, 000h, 007h, 0BBh, 0BBh, 071h, 00Bh, 07Bh, 006h
	. . .
3243	7B 06 

3245	67 66 07 66              DB 067h, 066h, 007h, 066h, 011h, 011h, 020h, 000h, 000h, 007h
	. . .
324D	00 07 

324F	BB BB 77 00              DB 0BBh, 0BBh, 077h, 000h, 07Bh, 000h, 007h, 000h, 007h, 000h
	. . .
3257	07 00 

3259	AA AA AA 00              DB 0AAh, 0AAh, 0AAh, 000h, 000h, 007h, 0BBh, 0BBh, 007h, 066h
	. . .
3261	07 66 

3263	00 00 07 00              DB 000h, 000h, 007h, 000h, 007h, 000h, 076h, 066h, 067h, 000h
	. . .
326B	67 00 

326D	00 07 BB BB              DB 000h, 007h, 0BBh, 0BBh, 007h, 0AAh, 0AAh, 001h, 007h, 001h
	. . .
3275	07 01 

3277	00 66 60 00              DB 000h, 066h, 060h, 000h, 000h, 066h, 066h, 067h, 0BBh, 0BBh
	. . .
327F	BB BB 

3281	07 B0 00 06              DB 007h, 0B0h, 000h, 006h, 060h, 06Ah, 000h, 000h, 000h, 000h
	. . .
3289	00 00 

328B	00 00 00 07              DB 000h, 000h, 000h, 007h, 0BBh, 0BBh, 0BBh, 044h, 044h, 044h
	. . .
3293	44 44 

3295	44 44 44 44              DB 044h, 044h, 044h, 044h, 044h, 044h, 044h, 044h, 044h, 04Bh
	. . .
329D	44 4B 

329F	BB 02 00 14              DB 0BBh, 002h, 000h, 014h, 000h, 002h, 004h, 000h, 000h, 000h
	. . .
32A7	00 00 

32A9	04 19 00 00              DB 004h, 019h, 000h, 000h, 000h, 004h, 018h, 0BBh, 000h, 000h
	. . .
32B1	00 00 

32B3	00 00 00 00              DB 000h, 000h, 000h, 000h, 000h, 000h, 000h, 000h, 000h, 000h
	. . .
32BB	00 00 

32BD	00 B7 BB BB              DB 000h, 0B7h, 0BBh, 0BBh, 000h, 000h, 000h, 000h, 000h, 000h
	. . .
32C5	00 00 

32C7	00 00 00 00              DB 000h, 000h, 000h, 000h, 000h, 000h, 000h, 0B7h, 0BBh, 0BBh
	. . .
32CF	BB BB 

32D1	07 17 01 10              DB 007h, 017h, 001h, 010h, 071h, 070h, 011h, 007h, 017h, 001h
	. . .
32D9	17 01 

32DB	10 71 70 B7              DB 010h, 071h, 070h, 0B7h, 0BBh, 0BBh, 000h, 070h, 066h, 066h
	. . .
32E3	66 66 

32E5	07 06 66 60              DB 007h, 006h, 066h, 060h, 070h, 066h, 066h, 007h, 000h, 0B7h
	. . .
32ED	00 B7 

32EF	BB BB 00 70              DB 0BBh, 0BBh, 000h, 070h, 000h, 000h, 007h, 000h, 000h, 000h
	. . .
32F7	00 00 

32F9	70 00 00 07              DB 070h, 000h, 000h, 007h, 000h, 0B7h, 0BBh, 0BBh, 000h, 070h
	. . .
3301	00 70 

3303	71 17 07 07              DB 071h, 017h, 007h, 007h, 013h, 070h, 070h, 071h, 017h, 007h
	. . .
330B	17 07 

330D	00 B7 BB BB              DB 000h, 0B7h, 0BBh, 0BBh, 000h, 070h, 006h, 060h, 007h, 000h
	. . .
3315	07 00 

3317	66 00 70 06              DB 066h, 000h, 070h, 006h, 060h, 007h, 000h, 0B7h, 0BBh, 0BBh
	. . .
331F	BB BB 

3321	07 17 01 10              DB 007h, 017h, 001h, 010h, 071h, 070h, 011h, 007h, 017h, 001h
	. . .
3329	17 01 

332B	10 71 70 B7              DB 010h, 071h, 070h, 0B7h, 0BBh, 0BBh, 000h, 070h, 066h, 066h
	. . .
3333	66 66 

3335	07 06 66 60              DB 007h, 006h, 066h, 060h, 070h, 066h, 066h, 007h, 000h, 0B7h
	. . .
333D	00 B7 

333F	BB BB 00 70              DB 0BBh, 0BBh, 000h, 070h, 000h, 000h, 007h, 000h, 000h, 000h
	. . .
3347	00 00 

3349	70 00 00 07              DB 070h, 000h, 000h, 007h, 000h, 0B7h, 0BBh, 0BBh, 000h, 070h
	. . .
3351	00 70 

3353	71 17 07 07              DB 071h, 017h, 007h, 007h, 011h, 070h, 070h, 071h, 017h, 007h
	. . .
335B	17 07 

335D	00 B7 BB BB              DB 000h, 0B7h, 0BBh, 0BBh, 000h, 070h, 006h, 060h, 007h, 000h
	. . .
3365	07 00 

3367	66 00 70 06              DB 066h, 000h, 070h, 006h, 060h, 007h, 000h, 0B7h, 0BBh, 0BBh
	. . .
336F	BB BB 

3371	07 17 01 10              DB 007h, 017h, 001h, 010h, 071h, 070h, 011h, 007h, 017h, 001h
	. . .
3379	17 01 

337B	10 71 70 B7              DB 010h, 071h, 070h, 0B7h, 0BBh, 0BBh, 000h, 070h, 066h, 066h
	. . .
3383	66 66 

3385	07 06 66 60              DB 007h, 006h, 066h, 060h, 070h, 066h, 066h, 007h, 00Ah, 0B7h
	. . .
338D	0A B7 

338F	BB BB 00 70              DB 0BBh, 0BBh, 000h, 070h, 000h, 000h, 007h, 000h, 000h, 000h
	. . .
3397	00 00 

3399	70 00 00 07              DB 070h, 000h, 000h, 007h, 00Ah, 0B7h, 0BBh, 0BBh, 000h, 070h
	. . .
33A1	00 70 

33A3	71 17 07 07              DB 071h, 017h, 007h, 007h, 012h, 070h, 070h, 071h, 017h, 007h
	. . .
33AB	17 07 

33AD	0A 97 BB BB              DB 00Ah, 097h, 0BBh, 0BBh, 000h, 070h, 006h, 060h, 007h, 000h
	. . .
33B5	07 00 

33B7	66 00 70 06              DB 066h, 000h, 070h, 006h, 060h, 007h, 00Ah, 0A7h, 0BBh, 0BBh
	. . .
33BF	BB BB 

33C1	07 17 01 10              DB 007h, 017h, 001h, 010h, 071h, 070h, 011h, 007h, 017h, 001h
	. . .
33C9	17 01 

33CB	10 71 70 07              DB 010h, 071h, 070h, 007h, 0BBh, 0BBh, 000h, 070h, 066h, 066h
	. . .
33D3	66 66 

33D5	07 06 66 60              DB 007h, 006h, 066h, 060h, 070h, 066h, 066h, 007h, 000h, 007h
	. . .
33DD	00 07 

33DF	BB BB 00 70              DB 0BBh, 0BBh, 000h, 070h, 000h, 000h, 007h, 000h, 000h, 000h
	. . .
33E7	00 00 

33E9	70 00 00 07              DB 070h, 000h, 000h, 007h, 000h, 007h, 0BBh, 0BBh, 000h, 070h
	. . .
33F1	00 70 

33F3	00 00 07 00              DB 000h, 000h, 007h, 000h, 000h, 000h, 070h, 000h, 000h, 007h
	. . .
33FB	00 07 

33FD	00 07 BB BB              DB 000h, 007h, 0BBh, 0BBh, 0BBh, 0B4h, 044h, 044h, 044h, 044h
	. . .
3405	44 44 

3407	44 44 44 44              DB 044h, 044h, 044h, 044h, 044h, 044h, 044h, 04Bh, 0BBh, 004h
	. . .
340F	BB 04 

3411	00 12 00 02              DB 000h, 012h, 000h, 002h, 00Ah, 000h, 000h, 000h, 004h, 016h
	. . .
3419	04 16 

341B	00 00 00 04              DB 000h, 000h, 000h, 004h, 018h, 0BAh, 0AAh, 0AAh, 0AAh, 0AAh
	. . .
3423	AA AA 

3425	0A AA AA AA              DB 00Ah, 0AAh, 0AAh, 0AAh, 0AAh, 0AAh, 00Ah, 0AAh, 0AAh, 0A7h
	. . .
342D	AA A7 

342F	AB B0 72 00              DB 0ABh, 0B0h, 072h, 000h, 010h, 000h, 000h, 000h, 000h, 000h
	. . .
3437	00 00 

3439	00 00 00 01              DB 000h, 000h, 000h, 001h, 000h, 017h, 00Bh, 0B0h, 07Ah, 066h
	. . .
3441	7A 66 

3443	60 00 00 00              DB 060h, 000h, 000h, 000h, 000h, 000h, 000h, 000h, 000h, 006h
	. . .
344B	00 06 

344D	66 A7 0B B0              DB 066h, 0A7h, 00Bh, 0B0h, 070h, 000h, 000h, 001h, 001h, 030h
	. . .
3455	01 30 

3457	6B 7B 60 11              DB 06Bh, 07Bh, 060h, 011h, 001h, 000h, 000h, 007h, 00Bh, 0B0h
	. . .
345F	0B B0 

3461	71 00 00 0A              DB 071h, 000h, 000h, 00Ah, 06Ah, 0ABh, 0AAh, 07Ah, 0ABh, 0AAh
	. . .
3469	AB AA 

346B	6A 00 00 17              DB 06Ah, 000h, 000h, 017h, 00Bh, 0B0h, 07Ah, 000h, 000h, 000h
	. . .
3473	00 00 

3475	00 00 00 70              DB 000h, 000h, 000h, 070h, 000h, 000h, 000h, 000h, 000h, 0A7h
	. . .
347D	00 A7 

347F	0B B0 70 00              DB 00Bh, 0B0h, 070h, 000h, 000h, 000h, 000h, 000h, 000h, 070h
	. . .
3487	00 70 

3489	00 00 00 00              DB 000h, 000h, 000h, 000h, 000h, 007h, 00Bh, 0B0h, 071h, 000h
	. . .
3491	71 00 

3493	00 11 11 11              DB 000h, 011h, 011h, 011h, 010h, 070h, 011h, 011h, 011h, 010h
	. . .
349B	11 10 

349D	00 17 0B B0              DB 000h, 017h, 00Bh, 0B0h, 07Ah, 000h, 066h, 066h, 066h, 066h
	. . .
34A5	66 66 

34A7	66 76 66 66              DB 066h, 076h, 066h, 066h, 066h, 066h, 000h, 0A7h, 00Bh, 0B0h
	. . .
34AF	0B B0 

34B1	70 00 00 00              DB 070h, 000h, 000h, 000h, 000h, 000h, 000h, 070h, 000h, 000h
	. . .
34B9	00 00 

34BB	00 00 00 07              DB 000h, 000h, 000h, 007h, 00Bh, 0B0h, 071h, 000h, 000h, 000h
	. . .
34C3	00 00 

34C5	01 11 10 70              DB 001h, 011h, 010h, 070h, 011h, 011h, 000h, 000h, 000h, 017h
	. . .
34CD	00 17 

34CF	0B B0 7A 00              DB 00Bh, 0B0h, 07Ah, 000h, 000h, 000h, 066h, 066h, 066h, 076h
	. . .
34D7	66 76 

34D9	66 66 60 00              DB 066h, 066h, 060h, 000h, 000h, 0A7h, 00Bh, 0B0h, 078h, 000h
	. . .
34E1	78 00 

34E3	00 00 00 00              DB 000h, 000h, 000h, 000h, 000h, 070h, 000h, 000h, 000h, 000h
	. . .
34EB	00 00 

34ED	00 97 0B 44              DB 000h, 097h, 00Bh, 044h, 0BAh, 070h, 000h, 000h, 000h, 000h
	. . .
34F5	00 00 

34F7	00 70 00 00              DB 000h, 070h, 000h, 000h, 000h, 000h, 007h, 0ABh, 044h, 055h
	. . .
34FF	44 55 

3501	BA 70 00 00              DB 0BAh, 070h, 000h, 000h, 06Bh, 0AAh, 0AAh, 07Ah, 0AAh, 0ABh
	. . .
3509	AA AB 

350B	60 00 07 AB              DB 060h, 000h, 007h, 0ABh, 055h, 055h, 0B7h, 000h, 000h, 000h
	. . .
3513	00 00 

3515	0A 01 0A 7A              DB 00Ah, 001h, 00Ah, 07Ah, 001h, 00Ah, 000h, 000h, 000h, 07Bh
	. . .
351D	00 7B 

351F	55 55 B7 00              DB 055h, 055h, 0B7h, 000h, 000h, 000h, 00Ah, 0AAh, 0AAh, 07Ah
	. . .
3527	AA 7A 

3529	AA AA 00 00              DB 0AAh, 0AAh, 000h, 000h, 000h, 07Bh, 055h, 055h, 0B7h, 000h
	. . .
3531	B7 00 

3533	00 00 00 00              DB 000h, 000h, 000h, 000h, 000h, 070h, 000h, 000h, 000h, 000h
	. . .
353B	00 00 

353D	00 7B 55 55              DB 000h, 07Bh, 055h, 055h, 0B7h, 000h, 000h, 000h, 000h, 001h
	. . .
3545	00 01 

3547	10 70 11 00              DB 010h, 070h, 011h, 000h, 000h, 000h, 000h, 07Bh, 055h, 055h
	. . .
354F	55 55 

3551	B7 AA 66 66              DB 0B7h, 0AAh, 066h, 066h, 0AAh, 0A6h, 06Ah, 07Ah, 066h, 0AAh
	. . .
3559	66 AA 

355B	A6 66 AA 7B              DB 0A6h, 066h, 0AAh, 07Bh, 055h, 055h, 054h, 044h, 044h, 044h
	. . .
3563	44 44 

3565	44 44 44 44              DB 044h, 044h, 044h, 044h, 044h, 044h, 044h, 044h, 044h, 045h
	. . .
356D	44 45 

356F	55 55 55 55              DB 055h, 055h, 055h, 055h, 055h, 055h, 055h, 055h, 055h, 055h
	. . .
3577	55 55 

3579	55 55 55 55              DB 055h, 055h, 055h, 055h, 055h, 055h, 055h, 002h, 000h, 014h
	. . .
3581	00 14 

3583	00 02 0E 00              DB 000h, 002h, 00Eh, 000h, 002h, 000h, 004h, 012h, 000h, 002h
	. . .
358B	00 02 

358D	00 04 18 BB              DB 000h, 004h, 018h, 0BBh, 000h, 010h, 000h, 000h, 000h, 000h
	. . .
3595	00 00 

3597	00 00 00 00              DB 000h, 000h, 000h, 000h, 000h, 000h, 070h, 010h, 0BBh, 0BBh
	. . .
359F	BB BB 

35A1	00 70 76 66              DB 000h, 070h, 076h, 066h, 066h, 066h, 066h, 000h, 000h, 000h
	. . .
35A9	00 00 

35AB	00 00 70 70              DB 000h, 000h, 070h, 070h, 0BBh, 0BBh, 000h, 076h, 010h, 000h
	. . .
35B3	10 00 

35B5	00 00 06 A6              DB 000h, 000h, 006h, 0A6h, 000h, 000h, 000h, 000h, 016h, 070h
	. . .
35BD	16 70 

35BF	BB BB 00 70              DB 0BBh, 0BBh, 000h, 070h, 070h, 000h, 000h, 007h, 000h, 000h
	. . .
35C7	00 00 

35C9	07 00 00 00              DB 007h, 000h, 000h, 000h, 070h, 070h, 0BBh, 0BBh, 000h, 006h
	. . .
35D1	00 06 

35D3	70 00 00 00              DB 070h, 000h, 000h, 000h, 066h, 076h, 060h, 000h, 000h, 000h
	. . .
35DB	00 00 

35DD	76 00 BB BB              DB 076h, 000h, 0BBh, 0BBh, 000h, 000h, 070h, 000h, 000h, 000h
	. . .
35E5	00 00 

35E7	00 00 00 00              DB 000h, 000h, 000h, 000h, 000h, 000h, 070h, 000h, 0BBh, 0BBh
	. . .
35EF	BB BB 

35F1	00 10 70 00              DB 000h, 010h, 070h, 000h, 000h, 000h, 000h, 000h, 000h, 000h
	. . .
35F9	00 00 

35FB	00 00 70 10              DB 000h, 000h, 070h, 010h, 0BBh, 0BBh, 000h, 070h, 070h, 000h
	. . .
3603	70 00 

3605	00 00 0A 0A              DB 000h, 000h, 00Ah, 00Ah, 000h, 000h, 000h, 000h, 070h, 070h
	. . .
360D	70 70 

360F	BB BB 00 76              DB 0BBh, 0BBh, 000h, 076h, 010h, 000h, 000h, 000h, 091h, 001h
	. . .
3617	91 01 

3619	90 00 00 00              DB 090h, 000h, 000h, 000h, 016h, 070h, 0BBh, 0BBh, 000h, 070h
	. . .
3621	00 70 

3623	70 00 00 00              DB 070h, 000h, 000h, 000h, 0AAh, 00Ah, 0A0h, 000h, 000h, 000h
	. . .
362B	00 00 

362D	70 70 BB BB              DB 070h, 070h, 0BBh, 0BBh, 000h, 006h, 070h, 000h, 000h, 000h
	. . .
3635	00 00 

3637	92 03 90 00              DB 092h, 003h, 090h, 000h, 000h, 000h, 076h, 000h, 0BBh, 0BBh
	. . .
363F	BB BB 

3641	00 00 70 00              DB 000h, 000h, 070h, 000h, 000h, 00Ah, 0AAh, 00Ah, 0AAh, 000h
	. . .
3649	AA 00 

364B	00 00 70 00              DB 000h, 000h, 070h, 000h, 0BBh, 0BBh, 000h, 010h, 070h, 000h
	. . .
3653	70 00 

3655	00 00 91 01              DB 000h, 000h, 091h, 001h, 090h, 000h, 000h, 000h, 070h, 010h
	. . .
365D	70 10 

365F	BB BB 00 70              DB 0BBh, 0BBh, 000h, 070h, 070h, 000h, 000h, 0AAh, 0AAh, 00Ah
	. . .
3667	AA 0A 

3669	AA A0 00 00              DB 0AAh, 0A0h, 000h, 000h, 070h, 070h, 0BBh, 0BBh, 000h, 076h
	. . .
3671	00 76 

3673	10 00 00 00              DB 010h, 000h, 000h, 000h, 091h, 001h, 090h, 000h, 000h, 000h
	. . .
367B	00 00 

367D	16 70 BB BB              DB 016h, 070h, 0BBh, 0BBh, 000h, 070h, 070h, 000h, 00Ah, 0AAh
	. . .
3685	0A AA 

3687	AA 0A AA AA              DB 0AAh, 00Ah, 0AAh, 0AAh, 000h, 000h, 070h, 070h, 0BBh, 0BBh
	. . .
368F	BB BB 

3691	00 06 70 00              DB 000h, 006h, 070h, 000h, 000h, 000h, 091h, 001h, 090h, 000h
	. . .
3699	90 00 

369B	00 00 76 00              DB 000h, 000h, 076h, 000h, 0BBh, 0BBh, 000h, 000h, 070h, 000h
	. . .
36A3	70 00 

36A5	AA AA AA 0A              DB 0AAh, 0AAh, 0AAh, 00Ah, 0AAh, 0AAh, 0A0h, 000h, 070h, 000h
	. . .
36AD	70 00 

36AF	BB BB 00 00              DB 0BBh, 0BBh, 000h, 000h, 070h, 000h, 000h, 000h, 091h, 001h
	. . .
36B7	91 01 

36B9	90 00 00 00              DB 090h, 000h, 000h, 000h, 070h, 000h, 0BBh, 0BBh, 000h, 000h
	. . .
36C1	00 00 

36C3	7A 0A AA AA              DB 07Ah, 00Ah, 0AAh, 0AAh, 0AAh, 00Ah, 0AAh, 0AAh, 0AAh, 00Ah
	. . .
36CB	AA 0A 

36CD	70 00 BB BB              DB 070h, 000h, 0BBh, 0BBh, 000h, 000h, 079h, 000h, 000h, 000h
	. . .
36D5	00 00 

36D7	00 00 00 00              DB 000h, 000h, 000h, 000h, 000h, 009h, 070h, 000h, 0BBh, 0BBh
	. . .
36DF	BB BB 

36E1	BB BB BB BB              DB 0BBh, 0BBh, 0BBh, 0BBh, 0BBh, 0BBh, 0B4h, 044h, 0BBh, 0BBh
	. . .
36E9	BB BB 

36EB	BB BB BB BB              DB 0BBh, 0BBh, 0BBh, 0BBh, 0BBh, 002h, 000h, 014h, 000h, 002h
	. . .
36F3	00 02 

36F5	03 00 00 00              DB 003h, 000h, 000h, 000h, 004h, 01Bh, 000h, 000h, 000h, 004h
	. . .
36FD	00 04 

36FF	18 B1 B0 BB              DB 018h, 0B1h, 0B0h, 0BBh, 000h, 011h, 030h, 011h, 010h, 000h
	. . .
3707	10 00 

3709	0B 00 00 00              DB 00Bh, 000h, 000h, 000h, 000h, 0B0h, 07Bh, 0B7h, 0B0h, 0BBh
	. . .
3711	B0 BB 

3713	06 66 66 66              DB 006h, 066h, 066h, 066h, 067h, 006h, 07Bh, 07Bh, 00Bh, 000h
	. . .
371B	0B 00 

371D	B0 B0 7B B7              DB 0B0h, 0B0h, 07Bh, 0B7h, 0B0h, 0BBh, 044h, 044h, 044h, 044h
	. . .
3725	44 44 

3727	4B B0 7B 7B              DB 04Bh, 0B0h, 07Bh, 07Bh, 00Bh, 044h, 0B0h, 0B0h, 07Bh, 0B7h
	. . .
372F	7B B7 

3731	B0 BB BB BB              DB 0B0h, 0BBh, 0BBh, 0BBh, 0BBh, 0BBh, 0BBh, 0B0h, 07Bh, 07Bh
	. . .
3739	7B 7B 

373B	0B 55 B0 B0              DB 00Bh, 055h, 0B0h, 0B0h, 07Bh, 0B7h, 010h, 000h, 000h, 000h
	. . .
3743	00 00 

3745	00 70 00 0B              DB 000h, 070h, 000h, 00Bh, 07Bh, 07Bh, 00Bh, 055h, 0B0h, 0B0h
	. . .
374D	B0 B0 

374F	7B B0 B6 B7              DB 07Bh, 0B0h, 0B6h, 0B7h, 0BBh, 0B6h, 070h, 07Bh, 0B0h, 00Bh
	. . .
3757	B0 0B 

3759	7B 7B 0B 55              DB 07Bh, 07Bh, 00Bh, 055h, 0B0h, 0B0h, 07Bh, 0B0h, 0B0h, 007h
	. . .
3761	B0 07 

3763	BB B0 70 7B              DB 0BBh, 0B0h, 070h, 07Bh, 0BBh, 07Bh, 07Bh, 07Bh, 00Bh, 055h
	. . .
376B	0B 55 

376D	B0 B0 7B B0              DB 0B0h, 0B0h, 07Bh, 0B0h, 0B0h, 007h, 0BBh, 000h, 070h, 07Bh
	. . .
3775	70 7B 

3777	BB 7B 7B 7B              DB 0BBh, 07Bh, 07Bh, 07Bh, 00Bh, 055h, 0B0h, 0B0h, 07Bh, 0B0h
	. . .
377F	7B B0 

3781	10 07 BB B7              DB 010h, 007h, 0BBh, 0B7h, 0BBh, 0BBh, 0BBh, 07Bh, 07Bh, 077h
	. . .
3789	7B 77 

378B	0B BB B0 B0              DB 00Bh, 0BBh, 0B0h, 0B0h, 07Bh, 0B0h, 0B6h, 0B7h, 001h, 017h
	. . .
3793	01 17 

3795	B0 00 0B 7B              DB 0B0h, 000h, 00Bh, 07Bh, 070h, 007h, 000h, 000h, 000h, 0B0h
	. . .
379D	00 B0 

379F	7B B0 B0 B7              DB 07Bh, 0B0h, 0B0h, 0B7h, 0BBh, 0B7h, 0B0h, 000h, 000h, 070h
	. . .
37A7	00 70 

37A9	7B B7 B7 00              DB 07Bh, 0B7h, 0B7h, 000h, 000h, 0B0h, 07Bh, 0B0h, 0B0h, 0B7h
	. . .
37B1	B0 B7 

37B3	BB B7 B7 B4              DB 0BBh, 0B7h, 0B7h, 0B4h, 04Bh, 0BBh, 07Bh, 0B7h, 0BBh, 0B7h
	. . .
37BB	BB B7 

37BD	6B B0 7B B0              DB 06Bh, 0B0h, 07Bh, 0B0h, 0B0h, 0B7h, 0BBh, 0B7h, 0B7h, 0BBh
	. . .
37C5	B7 BB 

37C7	B0 00 7B 07              DB 0B0h, 000h, 07Bh, 007h, 000h, 0B7h, 000h, 0B0h, 07Bh, 0B0h
	. . .
37CF	7B B0 

37D1	80 00 0B 07              DB 080h, 000h, 00Bh, 007h, 0B7h, 000h, 000h, 000h, 0BBh, 07Bh
	. . .
37D9	BB 7B 

37DB	B1 B7 00 B0              DB 0B1h, 0B7h, 000h, 0B0h, 07Bh, 0B0h, 0B7h, 0B7h, 0BBh, 07Bh
	. . .
37E3	BB 7B 

37E5	B7 00 00 00              DB 0B7h, 000h, 000h, 000h, 080h, 070h, 0B7h, 0B7h, 000h, 0B0h
	. . .
37ED	00 B0 

37EF	7B 00 B7 17              DB 07Bh, 000h, 0B7h, 017h, 0BBh, 070h, 007h, 06Bh, 0BBh, 0B6h
	. . .
37F7	BB B6 

37F9	BB B7 B7 B7              DB 0BBh, 0B7h, 0B7h, 0B7h, 000h, 0B0h, 07Bh, 04Bh, 0B7h, 0B7h
	. . .
3801	B7 B7 

3803	BB 7B B7 0B              DB 0BBh, 07Bh, 0B7h, 00Bh, 020h, 0B4h, 0B0h, 0B7h, 0B7h, 0B7h
	. . .
380B	B7 B7 

380D	00 B0 7B B0              DB 000h, 0B0h, 07Bh, 0B0h, 007h, 007h, 0BBh, 070h, 0BBh, 0BBh
	. . .
3815	BB BB 

3817	B7 7B 01 B7              DB 0B7h, 07Bh, 001h, 0B7h, 0B7h, 0BBh, 0B0h, 0B0h, 07Bh, 0B7h
	. . .
381F	7B B7 

3821	BB B7 11 7B              DB 0BBh, 0B7h, 011h, 07Bh, 010h, 000h, 01Bh, 071h, 07Bh, 044h
	. . .
3829	7B 44 

382B	B7 B0 00 BB              DB 0B7h, 0B0h, 000h, 0BBh, 07Bh, 0B7h, 00Bh, 0BBh, 0BBh, 0BBh
	. . .
3833	BB BB 

3835	B7 7B BB BB              DB 0B7h, 07Bh, 0BBh, 0BBh, 070h, 0BBh, 0B7h, 0B1h, 0B0h, 009h
	. . .
383D	B0 09 

383F	7B B7 00 00              DB 07Bh, 0B7h, 000h, 000h, 011h, 000h, 007h, 000h, 011h, 000h
	. . .
3847	11 00 

3849	70 01 07 07              DB 070h, 001h, 007h, 007h, 0B0h, 07Bh, 04Bh, 0BBh, 0BBh, 0BBh
	. . .
3851	BB BB 

3853	BB BB BB BB              DB 0BBh, 0BBh, 0BBh, 0BBh, 0BBh, 0BBh, 0BBh, 0BBh, 0BBh, 0BBh
	. . .
385B	BB BB 

385D	BB 4B BB 0E              DB 0BBh, 04Bh, 0BBh, 00Eh, 000h, 012h, 000h, 002h, 007h, 000h
	. . .
3865	07 00 

3867	00 00 04 14              DB 000h, 000h, 004h, 014h, 000h, 000h, 000h, 004h, 018h, 0BBh
	. . .
386F	18 BB 

3871	AA AA A0 AA              DB 0AAh, 0AAh, 0A0h, 0AAh, 0AAh, 0AAh, 0AAh, 0AAh, 0AAh, 00Ah
	. . .
3879	AA 0A 

387B	AA AA AA A7              DB 0AAh, 0AAh, 0AAh, 0A7h, 0BBh, 0BBh, 000h, 000h, 000h, 000h
	. . .
3883	00 00 

3885	00 00 00 00              DB 000h, 000h, 000h, 000h, 000h, 00Ah, 000h, 000h, 000h, 007h
	. . .
388D	00 07 

388F	BB BB 00 00              DB 0BBh, 0BBh, 000h, 000h, 000h, 000h, 000h, 000h, 000h, 000h
	. . .
3897	00 00 

3899	00 0A 00 07              DB 000h, 00Ah, 000h, 007h, 060h, 007h, 0BBh, 0BBh, 000h, 000h
	. . .
38A1	00 00 

38A3	00 00 10 10              DB 000h, 000h, 010h, 010h, 007h, 001h, 003h, 00Ah, 000h, 007h
	. . .
38AB	00 07 

38AD	0A A7 BB BB              DB 00Ah, 0A7h, 0BBh, 0BBh, 000h, 000h, 006h, 0AAh, 0AAh, 0AAh
	. . .
38B5	AA AA 

38B7	A7 AA AA AA              DB 0A7h, 0AAh, 0AAh, 0AAh, 000h, 0B7h, 00Ah, 097h, 0BBh, 0BBh
	. . .
38BF	BB BB 

38C1	00 00 00 00              DB 000h, 000h, 000h, 000h, 000h, 000h, 007h, 000h, 000h, 000h
	. . .
38C9	00 00 

38CB	00 07 0B BB              DB 000h, 007h, 00Bh, 0BBh, 0BBh, 0BBh, 006h, 066h, 070h, 000h
	. . .
38D3	70 00 

38D5	00 00 07 00              DB 000h, 000h, 007h, 000h, 000h, 000h, 000h, 000h, 070h, 000h
	. . .
38DD	70 00 

38DF	BB BB 0A 00              DB 0BBh, 0BBh, 00Ah, 000h, 006h, 066h, 066h, 070h, 007h, 000h
	. . .
38E7	07 00 

38E9	76 66 66 00              DB 076h, 066h, 066h, 000h, 066h, 067h, 0BBh, 0BBh, 01Ah, 000h
	. . .
38F1	1A 00 

38F3	00 00 00 70              DB 000h, 000h, 000h, 070h, 007h, 000h, 070h, 000h, 000h, 010h
	. . .
38FB	00 10 

38FD	01 B7 BB BB              DB 001h, 0B7h, 0BBh, 0BBh, 01Ah, 000h, 000h, 076h, 066h, 060h
	. . .
3905	66 60 

3907	07 00 66 66              DB 007h, 000h, 066h, 066h, 070h, 0B0h, 00Ah, 0A7h, 0BBh, 0BBh
	. . .
390F	BB BB 

3911	1A 00 00 70              DB 01Ah, 000h, 000h, 070h, 000h, 001h, 007h, 001h, 000h, 000h
	. . .
3919	00 00 

391B	70 B4 4B B7              DB 070h, 0B4h, 04Bh, 0B7h, 0BBh, 0BBh, 01Ah, 000h, 000h, 070h
	. . .
3923	00 70 

3925	00 01 07 01              DB 000h, 001h, 007h, 001h, 000h, 000h, 070h, 0BBh, 0BBh, 0B7h
	. . .
392D	BB B7 

392F	BB BB 0A 00              DB 0BBh, 0BBh, 00Ah, 000h, 000h, 070h, 000h, 000h, 070h, 070h
	. . .
3937	70 70 

3939	00 00 70 00              DB 000h, 000h, 070h, 000h, 000h, 007h, 0BBh, 0BBh, 00Ah, 000h
	. . .
3941	0A 00 

3943	00 06 66 66              DB 000h, 006h, 066h, 066h, 007h, 006h, 066h, 066h, 000h, 000h
	. . .
394B	00 00 

394D	00 07 BB BB              DB 000h, 007h, 0BBh, 0BBh, 01Ah, 007h, 066h, 066h, 060h, 000h
	. . .
3955	60 00 

3957	07 00 00 66              DB 007h, 000h, 000h, 066h, 066h, 067h, 000h, 007h, 0BBh, 0BBh
	. . .
395F	BB BB 

3961	1A 07 00 00              DB 01Ah, 007h, 000h, 000h, 000h, 000h, 007h, 000h, 000h, 000h
	. . .
3969	00 00 

396B	00 07 00 07              DB 000h, 007h, 000h, 007h, 0BBh, 0BBh, 01Ah, 007h, 007h, 0BBh
	. . .
3973	07 BB 

3975	BB BB B7 BB              DB 0BBh, 0BBh, 0B7h, 0BBh, 0BBh, 0BBh, 0B7h, 007h, 000h, 007h
	. . .
397D	00 07 

397F	BB BB 2A 07              DB 0BBh, 0BBh, 02Ah, 007h, 007h, 000h, 000h, 000h, 007h, 000h
	. . .
3987	07 00 

3989	00 00 07 07              DB 000h, 000h, 007h, 007h, 000h, 0A7h, 0BBh, 0BBh, 0BAh, 007h
	. . .
3991	BA 07 

3993	0B 01 01 01              DB 00Bh, 001h, 001h, 001h, 007h, 001h, 001h, 001h, 00Bh, 007h
	. . .
399B	0B 07 

399D	00 70 BB BB              DB 000h, 070h, 0BBh, 0BBh, 0BBh, 066h, 06Bh, 0BBh, 0BBh, 0BBh
	. . .
39A5	BB BB 

39A7	BB BB BB BB              DB 0BBh, 0BBh, 0BBh, 0BBh, 0BBh, 066h, 06Bh, 0BBh, 0BBh, 0BBh
	. . .
39AF	BB BB 

39B1	00 00 00 00              DB 000h, 000h, 000h, 000h, 000h, 000h, 000h, 000h, 000h, 000h
	. . .
39B9	00 00 

39BB	00 00 00 00              DB 000h, 000h, 000h, 000h, 0BBh, 0BBh, 044h, 044h, 044h, 044h
	. . .
39C3	44 44 

39C5	44 44 44 44              DB 044h, 044h, 044h, 044h, 044h, 044h, 044h, 044h, 044h, 044h
	. . .
39CD	44 44 

39CF	BB 03 00 14              DB 0BBh, 003h, 000h, 014h, 000h, 001h, 004h, 000h, 002h, 000h
	. . .
39D7	02 00 

39D9	04 06 00 02              DB 004h, 006h, 000h, 002h, 000h, 004h, 018h, 0BBh, 000h, 000h
	. . .
39E1	00 00 

39E3	00 00 00 00              DB 000h, 000h, 000h, 000h, 070h, 000h, 000h, 000h, 000h, 000h
	. . .
39EB	00 00 

39ED	00 00 BB BB              DB 000h, 000h, 0BBh, 0BBh, 000h, 000h, 000h, 000h, 000h, 000h
	. . .
39F5	00 00 

39F7	70 90 00 00              DB 070h, 090h, 000h, 000h, 000h, 000h, 000h, 000h, 0BBh, 0BBh
	. . .
39FF	BB BB 

3A01	06 66 66 66              DB 006h, 066h, 066h, 066h, 066h, 066h, 066h, 066h, 066h, 066h
	. . .
3A09	66 66 

3A0B	66 66 66 67              DB 066h, 066h, 066h, 067h, 0BBh, 0BBh, 070h, 000h, 000h, 000h
	. . .
3A13	00 00 

3A15	00 00 01 00              DB 000h, 000h, 001h, 000h, 001h, 000h, 001h, 000h, 000h, 007h
	. . .
3A1D	00 07 

3A1F	BB BB 70 00              DB 0BBh, 0BBh, 070h, 000h, 000h, 000h, 000h, 000h, 007h, 000h
	. . .
3A27	07 00 

3A29	07 00 06 67              DB 007h, 000h, 006h, 067h, 000h, 007h, 0BBh, 0BBh, 076h, 066h
	. . .
3A31	76 66 

3A33	66 67 00 00              DB 066h, 067h, 000h, 000h, 070h, 071h, 070h, 070h, 000h, 007h
	. . .
3A3B	00 07 

3A3D	00 07 BB BB              DB 000h, 007h, 0BBh, 0BBh, 001h, 013h, 010h, 007h, 000h, 007h
	. . .
3A45	00 07 

3A47	00 07 00 07              DB 000h, 007h, 000h, 007h, 000h, 007h, 000h, 007h, 0BBh, 0BBh
	. . .
3A4F	BB BB 

3A51	66 66 60 07              DB 066h, 066h, 060h, 007h, 066h, 066h, 000h, 000h, 000h, 006h
	. . .
3A59	00 06 

3A5B	66 66 00 07              DB 066h, 066h, 000h, 007h, 0BBh, 0BBh, 000h, 000h, 000h, 000h
	. . .
3A63	00 00 

3A65	00 00 00 00              DB 000h, 000h, 000h, 000h, 007h, 066h, 066h, 060h, 000h, 007h
	. . .
3A6D	00 07 

3A6F	BB BB 00 00              DB 0BBh, 0BBh, 000h, 000h, 000h, 000h, 000h, 000h, 000h, 000h
	. . .
3A77	00 00 

3A79	07 00 00 00              DB 007h, 000h, 000h, 000h, 000h, 007h, 0BBh, 0BBh, 000h, 000h
	. . .
3A81	00 00 

3A83	00 00 00 00              DB 000h, 000h, 000h, 000h, 000h, 000h, 007h, 066h, 060h, 000h
	. . .
3A8B	60 00 

3A8D	00 07 BB BB              DB 000h, 007h, 0BBh, 0BBh, 000h, 000h, 000h, 000h, 000h, 000h
	. . .
3A95	00 00 

3A97	00 00 07 00              DB 000h, 000h, 007h, 000h, 000h, 00Bh, 066h, 06Bh, 0BBh, 0BBh
	. . .
3A9F	BB BB 

3AA1	00 66 66 66              DB 000h, 066h, 066h, 066h, 066h, 067h, 000h, 000h, 007h, 000h
	. . .
3AA9	07 00 

3AAB	00 00 00 00              DB 000h, 000h, 000h, 000h, 0BBh, 0BBh, 000h, 000h, 000h, 000h
	. . .
3AB3	00 00 

3AB5	00 07 06 67              DB 000h, 007h, 006h, 067h, 007h, 066h, 066h, 060h, 000h, 000h
	. . .
3ABD	00 00 

3ABF	BB BB 00 0B              DB 0BBh, 0BBh, 000h, 00Bh, 000h, 000h, 000h, 007h, 0A0h, 007h
	. . .
3AC7	A0 07 

3AC9	07 00 00 00              DB 007h, 000h, 000h, 000h, 011h, 000h, 0BBh, 0BBh, 07Bh, 07Bh
	. . .
3AD1	7B 7B 

3AD3	7B 7B 0B 00              DB 07Bh, 07Bh, 00Bh, 000h, 001h, 007h, 007h, 000h, 000h, 007h
	. . .
3ADB	00 07 

3ADD	AA 70 BB BB              DB 0AAh, 070h, 0BBh, 0BBh, 07Bh, 07Bh, 07Bh, 07Bh, 04Bh, 000h
	. . .
3AE5	4B 00 

3AE7	0B 07 07 00              DB 00Bh, 007h, 007h, 000h, 000h, 007h, 011h, 070h, 0BBh, 0BBh
	. . .
3AEF	BB BB 

3AF1	7B 7B 7B 7B              DB 07Bh, 07Bh, 07Bh, 07Bh, 05Bh, 044h, 04Bh, 007h, 007h, 0B1h
	. . .
3AF9	07 B1 

3AFB	11 07 AA 70              DB 011h, 007h, 0AAh, 070h, 0BBh, 0BBh, 07Bh, 07Bh, 07Bh, 072h
	. . .
3B03	7B 72 

3B05	BB 55 5B 07              DB 0BBh, 055h, 05Bh, 007h, 007h, 0AAh, 0AAh, 007h, 011h, 070h
	. . .
3B0D	11 70 

3B0F	BB BB 7B 70              DB 0BBh, 0BBh, 07Bh, 070h, 07Bh, 0BBh, 0BBh, 0BBh, 0BBh, 007h
	. . .
3B17	BB 07 

3B19	07 AA AA 07              DB 007h, 0AAh, 0AAh, 007h, 0AAh, 070h, 0BBh, 0BBh, 070h, 0AAh
	. . .
3B21	70 AA 

3B23	AA 00 00 00              DB 0AAh, 000h, 000h, 000h, 000h, 007h, 007h, 000h, 000h, 007h
	. . .
3B2B	00 07 

3B2D	00 70 BB BB              DB 000h, 070h, 0BBh, 0BBh, 0BBh, 0BBh, 0BBh, 0BBh, 0BBh, 0BBh
	. . .
3B35	BB BB 

3B37	BB BB BB BB              DB 0BBh, 0BBh, 0BBh, 0BBh, 0BBh, 0BBh, 0BBh, 0BBh, 0BBh, 003h
	. . .
3B3F	BB 03 

3B41	00 11 00 01              DB 000h, 011h, 000h, 001h, 017h, 000h, 000h, 000h, 004h, 01Bh
	. . .
3B49	04 1B 

3B4B	00 00 00 04              DB 000h, 000h, 000h, 004h, 018h, 0BBh, 000h, 000h, 000h, 000h
	. . .
3B53	00 00 

3B55	00 00 00 00              DB 000h, 000h, 000h, 000h, 000h, 000h, 000h, 000h, 000h, 007h
	. . .
3B5D	00 07 

3B5F	BB BB 00 01              DB 0BBh, 0BBh, 000h, 001h, 000h, 001h, 000h, 001h, 000h, 001h
	. . .
3B67	00 01 

3B69	00 01 00 02              DB 000h, 001h, 000h, 002h, 000h, 007h, 0BBh, 0BBh, 000h, 076h
	. . .
3B71	00 76 

3B73	70 76 70 76              DB 070h, 076h, 070h, 076h, 070h, 076h, 070h, 076h, 070h, 076h
	. . .
3B7B	70 76 

3B7D	70 07 BB BB              DB 070h, 007h, 0BBh, 0BBh, 000h, 070h, 070h, 070h, 070h, 070h
	. . .
3B85	70 70 

3B87	70 70 70 70              DB 070h, 070h, 070h, 070h, 070h, 070h, 070h, 007h, 0BBh, 0BBh
	. . .
3B8F	BB BB 

3B91	00 70 70 70              DB 000h, 070h, 070h, 070h, 070h, 070h, 070h, 070h, 070h, 070h
	. . .
3B99	70 70 

3B9B	70 70 70 07              DB 070h, 070h, 070h, 007h, 0BBh, 0BBh, 000h, 070h, 071h, 070h
	. . .
3BA3	71 70 

3BA5	71 70 71 70              DB 071h, 070h, 071h, 070h, 071h, 070h, 071h, 070h, 070h, 007h
	. . .
3BAD	70 07 

3BAF	BB BB 00 70              DB 0BBh, 0BBh, 000h, 070h, 006h, 000h, 006h, 000h, 006h, 000h
	. . .
3BB7	06 00 

3BB9	06 00 06 00              DB 006h, 000h, 006h, 000h, 000h, 007h, 0BBh, 0BBh, 000h, 0BBh
	. . .
3BC1	00 BB 

3BC3	BB BB BB BB              DB 0BBh, 0BBh, 0BBh, 0BBh, 0BBh, 0BBh, 0BBh, 0B7h, 000h, 000h
	. . .
3BCB	00 00 

3BCD	00 07 BB BB              DB 000h, 007h, 0BBh, 0BBh, 000h, 000h, 000h, 000h, 000h, 000h
	. . .
3BD5	00 00 

3BD7	00 00 00 B0              DB 000h, 000h, 000h, 0B0h, 0BBh, 0B7h, 0BBh, 007h, 0BBh, 0BBh
	. . .
3BDF	BB BB 

3BE1	00 10 10 10              DB 000h, 010h, 010h, 010h, 010h, 010h, 010h, 010h, 010h, 010h
	. . .
3BE9	10 10 

3BEB	10 07 00 07              DB 010h, 007h, 000h, 007h, 0BBh, 0BBh, 006h, 066h, 066h, 066h
	. . .
3BF3	66 66 

3BF5	66 66 66 66              DB 066h, 066h, 066h, 066h, 066h, 066h, 066h, 067h, 000h, 007h
	. . .
3BFD	00 07 

3BFF	BB BB 00 00              DB 0BBh, 0BBh, 000h, 000h, 00Ah, 000h, 000h, 000h, 000h, 000h
	. . .
3C07	00 00 

3C09	0A 00 00 07              DB 00Ah, 000h, 000h, 007h, 000h, 007h, 0BBh, 0BBh, 000h, 000h
	. . .
3C11	00 00 

3C13	0A AA AA AA              DB 00Ah, 0AAh, 0AAh, 0AAh, 0AAh, 0AAh, 0AAh, 07Ah, 000h, 007h
	. . .
3C1B	00 07 

3C1D	00 07 BB BB              DB 000h, 007h, 0BBh, 0BBh, 000h, 000h, 010h, 000h, 010h, 000h
	. . .
3C25	10 00 

3C27	10 00 10 00              DB 010h, 000h, 010h, 000h, 010h, 007h, 000h, 007h, 0BBh, 0BBh
	. . .
3C2F	BB BB 

3C31	00 07 B7 07              DB 000h, 007h, 0B7h, 007h, 0B7h, 007h, 0B7h, 007h, 0B7h, 007h
	. . .
3C39	B7 07 

3C3B	B7 07 00 07              DB 0B7h, 007h, 000h, 007h, 0BBh, 0BBh, 000h, 007h, 007h, 007h
	. . .
3C43	07 07 

3C45	07 07 07 07              DB 007h, 007h, 007h, 007h, 007h, 007h, 007h, 007h, 000h, 0B7h
	. . .
3C4D	00 B7 

3C4F	BB BB 00 07              DB 0BBh, 0BBh, 000h, 007h, 007h, 007h, 007h, 007h, 007h, 007h
	. . .
3C57	07 07 

3C59	07 07 07 07              DB 007h, 007h, 007h, 007h, 000h, 0B7h, 0BBh, 0BBh, 000h, 007h
	. . .
3C61	00 07 

3C63	07 17 07 17              DB 007h, 017h, 007h, 017h, 007h, 017h, 007h, 017h, 007h, 017h
	. . .
3C6B	07 17 

3C6D	00 97 BB BB              DB 000h, 097h, 0BBh, 0BBh, 006h, 06Bh, 00Bh, 0BBh, 00Bh, 0BBh
	. . .
3C75	0B BB 

3C77	0B BB 0B BB              DB 00Bh, 0BBh, 00Bh, 0BBh, 00Bh, 0BBh, 00Bh, 0BBh, 0BBh, 0BBh
	. . .
3C7F	BB BB 

3C81	00 00 00 00              DB 000h, 000h, 000h, 000h, 000h, 000h, 000h, 000h, 000h, 000h
	. . .
3C89	00 00 

3C8B	00 00 00 00              DB 000h, 000h, 000h, 000h, 0BBh, 0BBh, 044h, 044h, 044h, 044h
	. . .
3C93	44 44 

3C95	44 44 44 44              DB 044h, 044h, 044h, 044h, 044h, 044h, 044h, 044h, 044h, 044h
	. . .
3C9D	44 44 

3C9F	BB BB 55 55              DB 0BBh, 0BBh, 055h, 055h, 055h, 055h, 055h, 055h, 055h, 055h
	. . .
3CA7	55 55 

3CA9	55 55 55 55              DB 055h, 055h, 055h, 055h, 055h, 055h, 0BBh, 00Fh, 000h, 014h
	. . .
3CB1	00 14 

3CB3	00 02 06 00              DB 000h, 002h, 006h, 000h, 000h, 000h, 004h, 019h, 000h, 000h
	. . .
3CBB	00 00 

3CBD	00 04 18 BB              DB 000h, 004h, 018h, 0BBh, 000h, 000h, 000h, 000h, 000h, 000h
	. . .
3CC5	00 00 

3CC7	00 70 00 00              DB 000h, 070h, 000h, 000h, 000h, 000h, 000h, 000h, 0BBh, 0BBh
	. . .
3CCF	BB BB 

3CD1	00 00 07 00              DB 000h, 000h, 007h, 000h, 000h, 000h, 000h, 070h, 000h, 076h
	. . .
3CD9	00 76 

3CDB	66 70 00 00              DB 066h, 070h, 000h, 000h, 0BBh, 0BBh, 000h, 000h, 006h, 066h
	. . .
3CE3	06 66 

3CE5	70 00 00 70              DB 070h, 000h, 000h, 070h, 000h, 000h, 000h, 070h, 000h, 000h
	. . .
3CED	00 00 

3CEF	BB BB 07 67              DB 0BBh, 0BBh, 007h, 067h, 000h, 000h, 070h, 066h, 066h, 006h
	. . .
3CF7	66 06 

3CF9	66 60 66 66              DB 066h, 060h, 066h, 066h, 066h, 070h, 0BBh, 0BBh, 007h, 000h
	. . .
3D01	07 00 

3D03	66 66 00 00              DB 066h, 066h, 000h, 000h, 000h, 000h, 000h, 000h, 000h, 000h
	. . .
3D0B	00 00 

3D0D	00 70 BB BB              DB 000h, 070h, 0BBh, 0BBh, 007h, 000h, 006h, 066h, 066h, 066h
	. . .
3D15	66 66 

3D17	66 76 66 66              DB 066h, 076h, 066h, 066h, 066h, 060h, 000h, 070h, 0BBh, 0BBh
	. . .
3D1F	BB BB 

3D21	07 00 00 00              DB 007h, 000h, 000h, 000h, 000h, 000h, 000h, 070h, 000h, 000h
	. . .
3D29	00 00 

3D2B	00 00 00 70              DB 000h, 000h, 000h, 070h, 0BBh, 0BBh, 006h, 066h, 067h, 000h
	. . .
3D33	67 00 

3D35	00 00 00 70              DB 000h, 000h, 000h, 070h, 000h, 000h, 000h, 076h, 066h, 060h
	. . .
3D3D	66 60 

3D3F	BB BB 00 00              DB 0BBh, 0BBh, 000h, 000h, 007h, 000h, 000h, 000h, 000h, 070h
	. . .
3D47	00 70 

3D49	00 00 00 70              DB 000h, 000h, 000h, 070h, 000h, 000h, 0BBh, 0BBh, 000h, 000h
	. . .
3D51	00 00 

3D53	07 00 00 00              DB 007h, 000h, 000h, 000h, 000h, 070h, 000h, 000h, 000h, 070h
	. . .
3D5B	00 70 

3D5D	00 00 BB BB              DB 000h, 000h, 0BBh, 0BBh, 000h, 000h, 007h, 000h, 000h, 0BBh
	. . .
3D65	00 BB 

3D67	BB 7B BB 00              DB 0BBh, 07Bh, 0BBh, 000h, 000h, 070h, 000h, 000h, 0BBh, 0BBh
	. . .
3D6F	BB BB 

3D71	00 00 07 00              DB 000h, 000h, 007h, 000h, 000h, 0BBh, 0BBh, 07Bh, 0AAh, 000h
	. . .
3D79	AA 00 

3D7B	00 70 00 00              DB 000h, 070h, 000h, 000h, 0BBh, 0BBh, 0BBh, 0B0h, 007h, 000h
	. . .
3D83	07 00 

3D85	00 0A AB 7B              DB 000h, 00Ah, 0ABh, 07Bh, 07Bh, 066h, 066h, 070h, 00Bh, 0BBh
	. . .
3D8D	0B BB 

3D8F	BB BB 30 00              DB 0BBh, 0BBh, 030h, 000h, 007h, 066h, 066h, 0BBh, 07Ah, 07Ah
	. . .
3D97	7A 7A 

3D99	7B 44 4B 70              DB 07Bh, 044h, 04Bh, 070h, 000h, 001h, 0BBh, 0BBh, 0BBh, 0BBh
	. . .
3DA1	BB BB 

3DA3	0B 44 44 BB              DB 00Bh, 044h, 044h, 0BBh, 0BBh, 07Bh, 0BBh, 0BBh, 0BBh, 0B0h
	. . .
3DAB	BB B0 

3DAD	BB BB BB BB              DB 0BBh, 0BBh, 0BBh, 0BBh, 000h, 000h, 00Bh, 0BBh, 0BBh, 0B0h
	. . .
3DB5	BB B0 

3DB7	0B 79 00 00              DB 00Bh, 079h, 000h, 000h, 000h, 000h, 000h, 000h, 0BBh, 0BBh
	. . .
3DBF	BB BB 

3DC1	02 00 00 00              DB 002h, 000h, 000h, 000h, 000h, 000h, 00Bh, 0BBh, 0BBh, 07Bh
	. . .
3DC9	BB 7B 

3DCB	BB B6 BB 70              DB 0BBh, 0B6h, 0BBh, 070h, 0BBh, 0BBh, 07Bh, 0BBh, 06Bh, 0BBh
	. . .
3DD3	6B BB 

3DD5	BB B0 00 00              DB 0BBh, 0B0h, 000h, 000h, 000h, 070h, 000h, 000h, 000h, 070h
	. . .
3DDD	00 70 

3DDF	BB BB 70 00              DB 0BBh, 0BBh, 070h, 000h, 000h, 000h, 000h, 0B0h, 000h, 000h
	. . .
3DE7	00 00 

3DE9	00 70 00 00              DB 000h, 070h, 000h, 000h, 000h, 000h, 0BBh, 0BBh, 07Ah, 0AAh
	. . .
3DF1	7A AA 

3DF3	AA AA 7A AA              DB 0AAh, 0AAh, 07Ah, 0AAh, 0AAh, 07Ah, 0AAh, 0AAh, 0AAh, 0AAh
	. . .
3DFB	AA AA 

3DFD	AA A7 BB BB              DB 0AAh, 0A7h, 0BBh, 0BBh, 001h, 000h, 000h, 000h, 070h, 000h
	. . .
3E05	70 00 

3E07	00 70 10 10              DB 000h, 070h, 010h, 010h, 0AAh, 0A0h, 000h, 007h, 0BBh, 0BBh
	. . .
3E0F	BB BB 

3E11	BB BB                    DB 0BBh, 0BBh
3E13	BB BB BB BB     lnndh:   DB 0BBh, 0BBh, 0BBh, 0BBh, 0BBh, 0BBh, 0BBh, 0BBh, 0BBh, 0BBh
	. . .
3E1B	BB BB 

3E1D	BB BB BB 10              DB 0BBh, 0BBh, 0BBh, 010h, 000h, 014h, 000h, 002h, 001h, 000h
	. . .
3E25	01 00 

3E27	00 00 04 19              DB 000h, 000h, 004h, 019h, 000h, 000h, 000h, 004h, 018h, 0B0h
	. . .
3E2F	18 B0 

3E31	00 00 00 70              DB 000h, 000h, 000h, 070h, 000h, 000h, 000h, 000h, 000h, 000h
	. . .
3E39	00 00 

3E3B	00 00 00 00              DB 000h, 000h, 000h, 000h, 00Bh, 0B0h, 000h, 000h, 000h, 070h
	. . .
3E43	00 70 

3E45	00 07 66 66              DB 000h, 007h, 066h, 066h, 066h, 070h, 000h, 000h, 007h, 066h
	. . .
3E4D	07 66 

3E4F	7B B0 00 00              DB 07Bh, 0B0h, 000h, 000h, 000h, 007h, 009h, 000h, 000h, 000h
	. . .
3E57	00 00 

3E59	00 06 66 66              DB 000h, 006h, 066h, 066h, 060h, 000h, 07Bh, 0B0h, 0B4h, 044h
	. . .
3E61	B4 44 

3E63	44 4B 66 66              DB 044h, 04Bh, 066h, 066h, 004h, 044h, 044h, 044h, 044h, 0B0h
	. . .
3E6B	44 B0 

3E6D	0B 4B 7B B0              DB 00Bh, 04Bh, 07Bh, 0B0h, 0BBh, 0BBh, 0BBh, 0BBh, 0BBh, 0BBh
	. . .
3E75	BB BB 

3E77	0B BB BB BB              DB 00Bh, 0BBh, 0BBh, 0BBh, 0BBh, 0B0h, 00Bh, 0BBh, 07Bh, 0B0h
	. . .
3E7F	7B B0 

3E81	00 01 00 00              DB 000h, 001h, 000h, 000h, 020h, 001h, 001h, 000h, 010h, 010h
	. . .
3E89	10 10 

3E8B	03 01 01 01              DB 003h, 001h, 001h, 001h, 07Bh, 0B0h, 001h, 017h, 011h, 000h
	. . .
3E93	11 00 

3E95	70 07 07 00              DB 070h, 007h, 007h, 000h, 070h, 070h, 007h, 007h, 007h, 007h
	. . .
3E9D	07 07 

3E9F	0B B0 76 67              DB 00Bh, 0B0h, 076h, 067h, 066h, 070h, 070h, 007h, 007h, 000h
	. . .
3EA7	07 00 

3EA9	70 70 07 07              DB 070h, 070h, 007h, 007h, 007h, 007h, 00Bh, 0B0h, 070h, 007h
	. . .
3EB1	70 07 

3EB3	00 70 70 07              DB 000h, 070h, 070h, 007h, 007h, 011h, 070h, 070h, 007h, 007h
	. . .
3EBB	07 07 

3EBD	07 07 0B B0              DB 007h, 007h, 00Bh, 0B0h, 070h, 007h, 000h, 070h, 070h, 017h
	. . .
3EC5	70 17 

3EC7	07 66 70 70              DB 007h, 066h, 070h, 070h, 017h, 007h, 007h, 007h, 00Bh, 0B0h
	. . .
3ECF	0B B0 

3ED1	71 17 11 70              DB 071h, 017h, 011h, 070h, 071h, 077h, 007h, 000h, 070h, 071h
	. . .
3ED9	70 71 

3EDB	77 07 07 07              DB 077h, 007h, 007h, 007h, 00Bh, 0B0h, 006h, 067h, 066h, 006h
	. . .
3EE3	66 06 

3EE5	77 07 07 00              DB 077h, 007h, 007h, 000h, 070h, 077h, 007h, 007h, 007h, 007h
	. . .
3EED	07 07 

3EEF	0B B0 00 07              DB 00Bh, 0B0h, 000h, 007h, 000h, 000h, 070h, 007h, 007h, 000h
	. . .
3EF7	07 00 

3EF9	70 70 07 07              DB 070h, 070h, 007h, 007h, 017h, 017h, 00Bh, 0B0h, 0A0h, 007h
	. . .
3F01	A0 07 

3F03	0B 00 06 A0              DB 00Bh, 000h, 006h, 0A0h, 0A0h, 0AAh, 00Ah, 00Ah, 0A0h, 0A0h
	. . .
3F0B	A0 A0 

3F0D	60 60 0B B7              DB 060h, 060h, 00Bh, 0B7h, 0BBh, 0BBh, 0BBh, 0BBh, 0B4h, 044h
	. . .
3F15	B4 44 

3F17	44 44 44 44              DB 044h, 044h, 044h, 044h, 044h, 044h, 044h, 04Bh, 0BBh, 0B7h
	. . .
3F1F	BB B7 

3F21	BB BB BB BB              DB 0BBh, 0BBh, 0BBh, 0BBh, 0BBh, 0BBh, 0BBh, 0BBh, 0BBh, 0BBh
	. . .
3F29	BB BB 

3F2B	BB BB BB BB              DB 0BBh, 0BBh, 0BBh, 0BBh, 0BBh, 0B7h, 000h, 000h, 000h, 000h
	. . .
3F33	00 00 

3F35	00 00 00 00              DB 000h, 000h, 000h, 000h, 000h, 000h, 000h, 000h, 000h, 000h
	. . .
3F3D	00 00 

3F3F	0B BB BB BB              DB 00Bh, 0BBh, 0BBh, 0BBh, 0BBh, 0BBh, 0BBh, 0BBh, 0BBh, 0BBh
	. . .
3F47	BB BB 

3F49	BB BB BB BB              DB 0BBh, 0BBh, 0BBh, 0BBh, 0BBh, 0BBh, 07Bh, 0B0h, 000h, 000h
	. . .
3F51	00 00 

3F53	00 00 00 00              DB 000h, 000h, 000h, 000h, 000h, 000h, 000h, 000h, 000h, 000h
	. . .
3F5B	00 00 

3F5D	00 00 7B B7              DB 000h, 000h, 07Bh, 0B7h, 0AAh, 0ABh, 0BBh, 0BBh, 0BBh, 0BBh
	. . .
3F65	BB BB 

3F67	BB BB BB BB              DB 0BBh, 0BBh, 0BBh, 0BBh, 0BBh, 0BBh, 0BBh, 0BBh, 0BBh, 0B7h
	. . .
3F6F	BB B7 

3F71	00 00 00 00              DB 000h, 000h, 000h, 000h, 000h, 000h, 000h, 000h, 000h, 000h
	. . .
3F79	00 00 

3F7B	00 00 00 00              DB 000h, 000h, 000h, 000h, 00Bh, 0BBh, 0BBh, 0BBh, 0BBh, 0BBh
	. . .
3F83	BB BB 

3F85	BB BB BB BB              DB 0BBh, 0BBh, 0BBh, 0BBh, 0BBh, 0BBh, 0BBh, 0BBh, 0BBh, 0BBh
	. . .
3F8D	BB BB 

3F8F	BB 11 11 11              DB 0BBh, 011h, 011h, 011h, 011h, 011h, 011h, 011h, 011h, 011h
	. . .
3F97	11 11 

3F99	11 11 11 11              DB 011h, 011h, 011h, 011h, 011h, 011h, 011h, 011h, 011h, 011h
	. . .
3FA1	11 11 

3FA3	11 11 11 11              DB 011h, 011h, 011h, 011h, 011h, 011h, 011h, 011h, 011h, 011h
	. . .
3FAB	11 11 

3FAD	11 11 11 11              DB 011h, 011h, 011h, 011h, 011h, 011h, 011h, 011h, 011h, 011h
	. . .
3FB5	11 11 

3FB7	11 11 11 11              DB 011h, 011h, 011h, 011h, 011h, 011h, 011h, 011h, 011h, 011h
	. . .
3FBF	11 11 

3FC1	11 11 11 11              DB 011h, 011h, 011h, 011h, 011h, 011h, 011h, 011h, 011h, 011h
	. . .
3FC9	11 11 

3FCB	11 11 11 11              DB 011h, 011h, 011h, 011h, 011h, 011h, 011h, 011h, 011h, 011h
	. . .
3FD3	11 11 

3FD5	11 11 11 11              DB 011h, 011h, 011h, 011h, 011h, 011h, 011h, 011h, 011h, 011h
	. . .
3FDD	11 11 

3FDF	11 11 11 11              DB 011h, 011h, 011h, 011h, 011h, 011h, 011h, 011h, 011h, 011h
	. . .
3FE7	11 11 

3FE9	30 9E 14 9D              DB 030h, 09Eh, 014h, 09Dh, 014h, 0A6h, 014h, 0A7h, 000h, 006h
	. . .
3FF1	00 06 

3FF3	85 C1 00 00              DB 085h, 0C1h, 000h, 000h, 0A3h, 00Ah, 05Bh, 009h, 08Fh, 009h
	. . .
3FFB	8F 09 

3FFD	0A 01                    DB 00Ah, 001h
3FFF	11              lnjsg:   DB 011h
4000	CD 10 C0        lkxfl:   CALL ldlft
4003	11 00 90                 LXI D,lcopl
4006	3E 66           londh:   MVI A,066h
4008	12                       STAX D
4009	13                       INX D
400A	7A                       MOV A,D
400B	FE 91                    CPI 091h
400D	C2 06 40                 JNZ londh
4010	11 00 BF                 LXI D,lcunb
4013	3E 66           lodyn:   MVI A,066h
4015	12                       STAX D
4016	13                       INX D
4017	7A                       MOV A,D
4018	FE C0                    CPI 0C0h
401A	C2 13 40                 JNZ lodyn
401D	11 00 90                 LXI D,lcopl
4020	CD 26 40                 CALL loncr
4023	C3 34 40                 JMP lkubp
4026	3E FF           loncr:   MVI A,0FFh
4028	12                       STAX D
4029	13                       INX D
402A	12                       STAX D
402B	14                       INR D
402C	1D                       DCR E
402D	7A                       MOV A,D
402E	FE C0                    CPI 0C0h
4030	C2 26 40                 JNZ loncr
4033	C9                       RET
4034	11 04 90        lkubp:   LXI D,lclor
4037	CD 26 40                 CALL loncr
403A	11 FA 90                 LXI D,lghbg
403D	CD 26 40                 CALL loncr
4040	11 FE 90                 LXI D,lgeam
4043	CD 26 40                 CALL loncr
4046	11 18 94                 LXI D,lcoej
4049	CD 4F 40                 CALL loaqn
404C	C3 62 40                 JMP loqdp
404F	3E FF           loaqn:   MVI A,0FFh
4051	12                       STAX D
4052	13                       INX D
4053	3E 66                    MVI A,066h
4055	12                       STAX D
4056	13                       INX D
4057	12                       STAX D
4058	13                       INX D
4059	12                       STAX D
405A	13                       INX D
405B	7B                       MOV A,E
405C	FE E4                    CPI 0E4h
405E	C2 4F 40                 JNZ loaqn
4061	C9                       RET
4062	11 18 93        loqdp:   LXI D,lcocx
4065	CD 4F 40                 CALL loaqn
4068	11 18 96                 LXI D,lcoeb
406B	CD 4F 40                 CALL loaqn
406E	11 18 B9                 LXI D,lctzv
4071	CD 4F 40                 CALL loaqn
4074	11 18 BB                 LXI D,lctzn
4077	CD 4F 40                 CALL loaqn
407A	11 18 BC                 LXI D,lcuaz
407D	CD 4F 40                 CALL loaqn
4080	01 28 42                 LXI B,lkwur
4083	11 20 98                 LXI D,lcojx
4086	26 00                    MVI H,000h
4088	0A              lkwvo:   LDAX B
4089	D6 01                    SUI 001h
408B	CA A1 40                 JZ lklbs
408E	C6 01                    ADI 001h
4090	12                       STAX D
4091	13                       INX D
4092	03                       INX B
4093	24                       INR H
4094	7C                       MOV A,H
4095	FE 08                    CPI 008h
4097	C2 88 40                 JNZ lkwvo
409A	14                       INR D
409B	14                       INR D
409C	26 00                    MVI H,000h
409E	C3 88 40                 JMP lkwvo
40A1	01 C0 42        lklbs:   LXI B,lkxfg
40A4	11 20 AB                 LXI D,lcsxv
40A7	26 00                    MVI H,000h
40A9	0A              lkkrw:   LDAX B
40AA	D6 01                    SUI 001h
40AC	CA BE 40                 JZ lomqi
40AF	CD D2 40                 CALL loqbs
40B2	C2 A9 40                 JNZ lkkrw
40B5	14                       INR D
40B6	14                       INR D
40B7	26 00                    MVI H,000h
40B9	1E 20                    MVI E,020h
40BB	C3 A9 40                 JMP lkkrw
40BE	01 00 43        lomqi:   LXI B,lkxff
40C1	11 A0 99                 LXI D,lcojy
40C4	26 00                    MVI H,000h
40C6	0A              londk:   LDAX B
40C7	D6 01                    SUI 001h
40C9	CA E8 40                 JZ lkwvc
40CC	CD D2 40                 CALL loqbs
40CF	C3 DC 40                 JMP lktsm
40D2	C6 01           loqbs:   ADI 001h
40D4	12                       STAX D
40D5	13                       INX D
40D6	03                       INX B
40D7	24                       INR H
40D8	7C                       MOV A,H
40D9	FE 08                    CPI 008h
40DB	C9                       RET
40DC	C2 C6 40        lktsm:   JNZ londk
40DF	14                       INR D
40E0	14                       INR D
40E1	26 00                    MVI H,000h
40E3	1E A0                    MVI E,0A0h
40E5	C3 C6 40                 JMP londk
40E8	01 48 43        lkwvc:   LXI B,lkwvn
40EB	11 1C 99                 LXI D,lckxn
40EE	2E 00                    MVI L,000h
40F0	C5              lkxcm:   PUSH B
40F1	D5                       PUSH D
40F2	26 00                    MVI H,000h
40F4	0A              lkubs:   LDAX B
40F5	D6 01                    SUI 001h
40F7	CA 00 41                 JZ lkxfn
40FA	CD D2 40                 CALL loqbs
40FD	C2 F4 40                 JNZ lkubs
4100	CD 31 41        lkxfn:   CALL lkkzj
4103	D1                       POP D
4104	01 88 43                 LXI B,lkwvi
4107	26 00                    MVI H,000h
4109	0A              lkksp:   LDAX B
410A	D6 01                    SUI 001h
410C	CA 15 41                 JZ lkhzf
410F	CD D2 40                 CALL loqbs
4112	C2 09 41                 JNZ lkksp
4115	C1              lkhzf:   POP B
4116	79                       MOV A,C
4117	FE 78                    CPI 078h
4119	C2 25 41                 JNZ lkibb
411C	0E 48                    MVI C,048h
411E	2C                       INR L
411F	7D                       MOV A,L
4120	FE 0A                    CPI 00Ah
4122	CA 60 41                 JZ lkxfb
4125	79              lkibb:   MOV A,C
4126	C6 10                    ADI 010h
4128	4F                       MOV C,A
4129	14                       INR D
412A	1D                       DCR E
412B	1D                       DCR E
412C	1D                       DCR E
412D	1D                       DCR E
412E	C3 F0 40                 JMP lkxcm
4131	3E 01           lkkzj:   MVI A,001h
4133	16 E0           lodxz:   MVI D,0E0h
4135	1E 80           lkhyp:   MVI E,080h
4137	1D              loaxf:   DCR E
4138	C2 37 41                 JNZ loaxf
413B	15                       DCR D
413C	C2 35 41                 JNZ lkhyp
413F	3D                       DCR A
4140	C2 33 41                 JNZ lodxz
4143	C9                       RET
4144	01 98 43        lkuex:   LXI B,lkwsw
4147	11 30 AF                 LXI D,lcswp
414A	26 00                    MVI H,000h
414C	0A              lktvb:   LDAX B
414D	D6 01                    SUI 001h
414F	CA AB 41                 JZ lodqo
4152	CD D2 40                 CALL loqbs
4155	C2 4C 41                 JNZ lktvb
4158	14                       INR D
4159	26 00                    MVI H,000h
415B	1E 30                    MVI E,030h
415D	C3 4C 41                 JMP lktvb
4160	01 E0 43        lkxfb:   LXI B,lkxes
4163	11 98 B8                 LXI D,lctzs
4166	21 00 00                 LXI H,00000h
4169	C5              lkksd:   PUSH B
416A	D5                       PUSH D
416B	26 00                    MVI H,000h
416D	0A              lkhrj:   LDAX B
416E	D6 01                    SUI 001h
4170	CA 79 41                 JZ lkkpr
4173	CD D2 40                 CALL loqbs
4176	C2 6D 41                 JNZ lkhrj
4179	CD 31 41        lkkpr:   CALL lkkzj
417C	D1                       POP D
417D	01 88 43                 LXI B,lkwvi
4180	26 00                    MVI H,000h
4182	0A              loqec:   LDAX B
4183	D6 01                    SUI 001h
4185	CA 8E 41                 JZ lomtm
4188	CD D2 40                 CALL loqbs
418B	C2 82 41                 JNZ loqec
418E	C1              lomtm:   POP B
418F	79                       MOV A,C
4190	FE F0                    CPI 0F0h
4192	C2 A1 41                 JNZ lklbu
4195	0E E0                    MVI C,0E0h
4197	2C                       INR L
4198	7D                       MOV A,L
4199	FE 09                    CPI 009h
419B	CA 44 41                 JZ lkuex
419E	C3 A5 41                 JMP lkiba
41A1	79              lklbu:   MOV A,C
41A2	C6 10                    ADI 010h
41A4	4F                       MOV C,A
41A5	11 98 B8        lkiba:   LXI D,lctzs
41A8	C3 69 41                 JMP lkksd
41AB	01 00 44        lodqo:   LXI B,lkxgr
41AE	11 C0 A0                 LXI D,lctds
41B1	26 00                    MVI H,000h
41B3	0A              lodxy:   LDAX B
41B4	D6 01                    SUI 001h
41B6	CA D2 41                 JZ loqbu
41B9	C6 01                    ADI 001h
41BB	12                       STAX D
41BC	13                       INX D
41BD	12                       STAX D
41BE	13                       INX D
41BF	03                       INX B
41C0	24                       INR H
41C1	7C                       MOV A,H
41C2	FE 08                    CPI 008h
41C4	C2 B3 41                 JNZ lodxy
41C7	14                       INR D
41C8	14                       INR D
41C9	14                       INR D
41CA	14                       INR D
41CB	26 00                    MVI H,000h
41CD	1E C0                    MVI E,0C0h
41CF	C3 B3 41                 JMP lodxy
41D2	3E 0F           loqbu:   MVI A,00Fh
41D4	CD 33 41                 CALL lodxz
41D7	CD 10 C0                 CALL ldlft
41DA	31 FF 3F                 LXI SP,lnjsg
41DD	C3 03 00                 JMP lnfuv
41E0	11 11 11 11              DB 011h, 011h, 011h, 011h, 011h, 011h, 011h, 011h, 011h, 011h
	. . .
41E8	11 11 

41EA	11 11 11 11              DB 011h, 011h, 011h, 011h, 011h, 011h, 011h, 011h, 011h, 011h
	. . .
41F2	11 11 

41F4	11 11 11 11              DB 011h, 011h, 011h, 011h, 011h, 011h, 011h, 011h, 011h, 011h
	. . .
41FC	11 11 

41FE	11 11 11 11              DB 011h, 011h, 011h, 011h, 011h, 011h, 011h, 011h, 011h, 011h
	. . .
4206	11 11 

4208	11 11 11 11              DB 011h, 011h, 011h, 011h, 011h, 011h, 011h, 011h, 011h, 011h
	. . .
4210	11 11 

4212	11 11 11 11              DB 011h, 011h, 011h, 011h, 011h, 011h, 011h, 011h, 011h, 011h
	. . .
421A	11 11 

421C	11 11 11 11              DB 011h, 011h, 011h, 011h, 011h, 011h, 011h, 011h, 011h, 011h
	. . .
4224	11 11 

4226	11 11                    DB 011h, 011h
4228	66 66 66 66     lkwur:   DB 066h, 066h, 066h, 066h, 03Eh, 006h, 006h, 006h, 07Eh, 066h
	. . .
4230	7E 66 

4232	66 66 66 66              DB 066h, 066h, 066h, 066h, 066h, 066h, 03Ch, 066h, 066h, 066h
	. . .
423A	66 66 

423C	66 66 66 3C              DB 066h, 066h, 066h, 03Ch, 000h, 000h, 000h, 000h, 000h, 000h
	. . .
4244	00 00 

4246	00 00 66 66              DB 000h, 000h, 066h, 066h, 066h, 000h, 000h, 000h, 000h, 000h
	. . .
424E	00 00 

4250	3C 66 06 06              DB 03Ch, 066h, 006h, 006h, 03Eh, 006h, 066h, 03Ch, 03Eh, 066h
	. . .
4258	3E 66 

425A	66 66 66 66              DB 066h, 066h, 066h, 066h, 0C6h, 0C6h, 0FEh, 060h, 060h, 060h
	. . .
4262	60 60 

4264	7C 60 60 FE              DB 07Ch, 060h, 060h, 0FEh, 063h, 066h, 06Ch, 078h, 07Ch, 066h
	. . .
426C	7C 66 

426E	63 63 FE FE              DB 063h, 063h, 0FEh, 0FEh, 030h, 030h, 030h, 030h, 030h, 030h
	. . .
4276	30 30 

4278	7E 66 66 66              DB 07Eh, 066h, 066h, 066h, 07Eh, 060h, 060h, 060h, 03Ch, 066h
	. . .
4280	3C 66 

4282	66 66 66 66              DB 066h, 066h, 066h, 066h, 066h, 03Ch, 066h, 066h, 066h, 066h
	. . .
428A	66 66 

428C	7E 66 66 66              DB 07Eh, 066h, 066h, 066h, 0C3h, 0E7h, 0FFh, 0DBh, 0C3h, 0C3h
	. . .
4294	C3 C3 

4296	C3 C3 3E 66              DB 0C3h, 0C3h, 03Eh, 066h, 066h, 066h, 07Eh, 066h, 066h, 066h
	. . .
429E	66 66 

42A0	DB DB DB DB              DB 0DBh, 0DBh, 0DBh, 0DBh, 0DBh, 0DBh, 0FFh, 0FFh, 066h, 066h
	. . .
42A8	66 66 

42AA	66 00 00 00              DB 066h, 000h, 000h, 000h, 000h, 000h, 000h, 000h, 000h, 000h
	. . .
42B2	00 00 

42B4	00 00 00 00              DB 000h, 000h, 000h, 000h, 001h, 0FFh, 000h, 0FFh, 0FFh, 000h
	. . .
42BC	FF 00 

42BE	FF 00                    DB 0FFh, 000h
42C0	3C 66 60 60     lkxfg:   DB 03Ch, 066h, 060h, 060h, 060h, 060h, 066h, 03Ch, 063h, 066h
	. . .
42C8	63 66 

42CA	6C 78 7C 66              DB 06Ch, 078h, 07Ch, 066h, 063h, 063h, 0FEh, 0FEh, 030h, 030h
	. . .
42D2	30 30 

42D4	30 30 30 30              DB 030h, 030h, 030h, 030h, 07Eh, 060h, 060h, 07Eh, 066h, 066h
	. . .
42DC	66 66 

42DE	66 7C 00 00              DB 066h, 07Ch, 000h, 000h, 000h, 000h, 000h, 000h, 000h, 000h
	. . .
42E6	00 00 

42E8	7E 66 64 7E              DB 07Eh, 066h, 064h, 07Eh, 066h, 066h, 066h, 07Ch, 0FEh, 0FEh
	. . .
42F0	FE FE 

42F2	30 30 30 30              DB 030h, 030h, 030h, 030h, 030h, 030h, 001h, 0FFh, 000h, 0FFh
	. . .
42FA	00 FF 

42FC	FF 00 FF 00              DB 0FFh, 000h, 0FFh, 000h
4300	66 66 66 66     lkxff:   DB 066h, 066h, 066h, 066h, 03Eh, 006h, 006h, 006h, 0FEh, 060h
	. . .
4308	FE 60 

430A	60 60 7C 60              DB 060h, 060h, 07Ch, 060h, 060h, 0FEh, 07Eh, 066h, 066h, 066h
	. . .
4312	66 66 

4314	7E 60 60 60              DB 07Eh, 060h, 060h, 060h, 066h, 066h, 066h, 066h, 07Eh, 066h
	. . .
431C	7E 66 

431E	66 66 3C 66              DB 066h, 066h, 03Ch, 066h, 066h, 066h, 066h, 066h, 066h, 03Ch
	. . .
4326	66 3C 

4328	7E 66 64 7E              DB 07Eh, 066h, 064h, 07Eh, 066h, 066h, 066h, 07Ch, 066h, 066h
	. . .
4330	66 66 

4332	66 66 66 66              DB 066h, 066h, 066h, 066h, 07Fh, 07Fh, 063h, 063h, 063h, 073h
	. . .
433A	63 73 

433C	6B 6B 6B 73              DB 06Bh, 06Bh, 06Bh, 073h, 001h, 000h, 000h, 000h, 000h, 000h
	. . .
4344	00 00 

4346	00 00                    DB 000h, 000h
4348	0E 0E 3C 2F     lkwvn:   DB 00Eh, 00Eh, 03Ch, 02Fh, 02Ch, 00Eh, 005h, 00Ah, 001h, 000h
	. . .
4350	01 00 

4352	00 00 00 00              DB 000h, 000h, 000h, 000h, 000h, 000h, 007h, 007h, 00Eh, 03Eh
	. . .
435A	0E 3E 

435C	0E 07 1E 06              DB 00Eh, 007h, 01Eh, 006h, 001h, 000h, 000h, 000h, 000h, 000h
	. . .
4364	00 00 

4366	00 00 0E 0E              DB 000h, 000h, 00Eh, 00Eh, 03Ch, 02Fh, 02Ch, 00Eh, 005h, 00Ah
	. . .
436E	05 0A 

4370	01 00 00 00              DB 001h, 000h, 000h, 000h, 000h, 000h, 000h, 000h, 00Eh, 00Eh
	. . .
4378	0E 0E 

437A	FC 1F 38 F6              DB 0FCh, 01Fh, 038h, 0F6h, 002h, 003h, 001h, 000h, 000h, 000h
	. . .
4382	00 00 

4384	00 00 00 00              DB 000h, 000h, 000h, 000h
4388	00 00 00 00     lkwvi:   DB 000h, 000h, 000h, 000h, 000h, 000h, 000h, 000h, 001h, 000h
	. . .
4390	01 00 

4392	FF 00 00 FF              DB 0FFh, 000h, 000h, 0FFh, 000h, 0FFh
	. . .
4396	00 FF 

4398	3C 66 66 66     lkwsw:   DB 03Ch, 066h, 066h, 066h, 066h, 066h, 066h, 03Ch, 0FEh, 0FEh
	. . .
43A0	FE FE 

43A2	30 30 30 30              DB 030h, 030h, 030h, 030h, 030h, 030h, 07Eh, 066h, 066h, 066h
	. . .
43AA	66 66 

43AC	66 66 FF FF              DB 066h, 066h, 0FFh, 0FFh, 000h, 000h, 000h, 000h, 000h, 060h
	. . .
43B4	00 60 

43B6	60 60 00 00              DB 060h, 060h, 000h, 000h, 000h, 000h, 000h, 000h, 000h, 000h
	. . .
43BE	00 00 

43C0	06 0E 06 06              DB 006h, 00Eh, 006h, 006h, 006h, 006h, 006h, 006h, 03Ch, 066h
	. . .
43C8	3C 66 

43CA	66 66 66 66              DB 066h, 066h, 066h, 066h, 066h, 03Ch, 03Ch, 066h, 066h, 066h
	. . .
43D2	66 66 

43D4	66 66 66 3C              DB 066h, 066h, 066h, 03Ch, 001h, 000h, 0FFh, 000h, 000h, 0FFh
	. . .
43DC	00 FF 

43DE	00 FF                    DB 000h, 0FFh
43E0	4E 4E 24 1E     lkxes:   DB 04Eh, 04Eh, 024h, 01Eh, 00Eh, 00Dh, 00Ah, 00Ah, 001h, 000h
	. . .
43E8	01 00 

43EA	FF 00 00 FF              DB 0FFh, 000h, 000h, 0FFh, 000h, 0FFh, 02Eh, 02Eh, 024h, 01Eh
	. . .
43F2	24 1E 

43F4	0E 0D 0A 0A              DB 00Eh, 00Dh, 00Ah, 00Ah, 001h, 000h, 0FFh, 000h, 000h, 0FFh
	. . .
43FC	00 FF 

43FE	00 FF                    DB 000h, 0FFh
4400	66 66 66 00     lkxgr:   DB 066h, 066h, 066h, 000h, 000h, 000h, 000h, 000h, 063h, 066h
	. . .
4408	63 66 

440A	6C 78 7C 66              DB 06Ch, 078h, 07Ch, 066h, 063h, 063h, 03Eh, 066h, 066h, 066h
	. . .
4412	66 66 

4414	66 66 66 66              DB 066h, 066h, 066h, 066h, 03Eh, 066h, 066h, 066h, 07Eh, 066h
	. . .
441C	7E 66 

441E	66 66 3E 66              DB 066h, 066h, 03Eh, 066h, 066h, 066h, 066h, 066h, 0FFh, 0FFh
	. . .
4426	FF FF 

4428	66 66 66 00              DB 066h, 066h, 066h, 000h, 000h, 000h, 000h, 000h, 001h
	. . .
4430	01 

	                END
Labels:
end                     4431
lcasc                   8FF1	lcauo                   8FE1
lckxn                   991C	lclgz                   9A14
lclhb                   9B14	lclif                   9E14
lclor                   9004	lcocx                   9318
lcoeb                   9618	lcoej                   9418
lcofb                   9128	lcojx                   9820
lcojy                   99A0	lcopl                   9000
lcpqb                   A07C	lcpte                   A1CC
lcpzx                   A074	lcqap                   A154
lcqbp                   A414	lcqcu                   A084
lcrnn                   B314	lcswp                   AF30
lcsxv                   AB20	lctap                   A130
lctds                   A0C0	lctzn                   BB18
lctzs                   B898	lctzv                   B918
lcuaz                   BC18	lcubr                   B928
lcunb                   BF00	ldgqd                   FF01
ldlfj                   C170	ldlft                   C010
ldlif                   C000	ldstf                   FF00
lgdzi                   9DEE	lgeam                   90FE
lgftu                   8FF2	lggzb                   9B0A
lghbg                   90FA	lgine                   AFEE
lgixa                   AFE6	lgngz                   B40A
lgozx                   C037	lgpdp                   C427
lgwbe                   FFFF	lgzot                   FF03
lhieg                   FFFE	lhlrv                   FF02
ljjdw                   0A9D	ljjei                   08DD
ljjep                   0F3D	ljjev                   0C3D
ljjhb                   0F2D	ljjhg                   0CAD
ljjhr                   0F0D	ljjib                   0C4D
ljjik                   03FD	ljjjc                   009D
ljjjm                   07BD	ljjju                   05BD
ljjkf                   065D	ljjlr                   010D
ljjls                   00CD	ljjol                   0F35
ljjpa                   0F95	ljjpe                   0FD5
ljjpf                   0F55	ljjpt                   0A65
ljjqz                   0E65	ljjra                   0FE5
ljjrn                   0F05	ljjse                   02F5
ljjsi                   00B5	ljjtg                   06B5
ljjtq                   05B5	ljjuf                   0415
ljjwl                   0705	ljjwr                   0405
ljkyu                   12CD	ljliv                   1005
ljmfj                   0F39	ljmka                   00D9
ljmks                   05F9	ljmls                   00A9
ljmme                   02C9	ljmmy                   04A9
ljmnp                   0409	ljmns                   04C9
ljmnz                   0B31	ljmok                   09F1
ljmot                   0B51	ljmpf                   0F31
ljmpz                   0F51	ljmql                   0B21
ljmqp                   0B61	ljmrf                   0B41
ljmrj                   0901	ljmsl                   0F41
ljmtm                   0391	ljmtn                   0311
ljmvu                   01E1	ljmwi                   00C1
ljmwl                   0141	ljmws                   07E1
ljvgp                   0B7C	ljvgu                   08FC
ljvhr                   0F3C	ljviv                   0A2C
ljviw                   0BAC	ljvjx                   084C
ljvlg                   02BC	ljvly                   039C
ljvmn                   063C	ljvng                   06DC
ljvon                   024C	ljvpf                   076C
ljvpj                   052C	ljvrg                   08D4
ljvrn                   0F34	ljvsh                   0F54
ljvtb                   0924	ljvte                   09E4
ljvth                   0A04	ljvuc                   0FE4
ljvut                   0F44	ljvvs                   0294
ljvyk                   03C4	ljvyo                   0184
ljvyv                   0624	ljvzr                   0744
ljvzx                   0444	ljvzz                   0544
ljxfv                   1D14	ljyhh                   0A78
ljyib                   0818	ljyic                   0998
ljyil                   0F38	ljyio                   0FF8
ljyjq                   0BA8	ljykb                   0868
ljykd                   0968	ljyki                   0AC8
ljylr                   0F48	ljymc                   03B8
ljymf                   0278	ljyoo                   03A8
ljyos                   03E8	ljypc                   0288
ljyqc                   05A8	ljyqn                   0648
ljyra                   0BB0	ljyrj                   0930
ljytv                   0920	ljytw                   08E0
ljyvn                   0F40	ljyvr                   0D00
ljywl                   0170	ljywx                   0110
ljyxc                   06B0	ljyxi                   07F0
ljyxo                   04F0	ljyzc                   02C0
ljyzh                   0000	lkamj                   1200
lkaml                   1300	lkamr                   1000
lkhrj                   416D	lkhyp                   4135
lkhzf                   4115	lkiba                   41A5
lkibb                   4125	lkkpr                   4179
lkkrw                   40A9	lkksd                   4169
lkksp                   4109	lkkzj                   4131
lklbs                   40A1	lklbu                   41A1
lktsm                   40DC	lktvb                   414C
lkubp                   4034	lkubs                   40F4
lkuex                   4144	lkwsw                   4398
lkwur                   4228	lkwvc                   40E8
lkwvi                   4388	lkwvn                   4348
lkwvo                   4088	lkxcm                   40F0
lkxes                   43E0	lkxfb                   4160
lkxff                   4300	lkxfg                   42C0
lkxfl                   4000	lkxfn                   4100
lkxgr                   4400	lncbx                   0A3F
lncby                   0BBF	lncfr                   0F2F
lncgh                   0F0F	lncgl                   0F4F
lnchf                   013F	lnchi                   01FF
lncjk                   02EF	lncjl                   026F
lnclj                   074F	lncme                   08F7
lncmk                   0B97	lncnb                   0F37
lncom                   08A7	lncpf                   0907
lncph                   0847	lncpj                   0947
lncqr                   0237	lncsp                   0717
lncta                   05D7	lnctc                   02A7
lncto                   00E7	lnctr                   0167
lneeh                   1377	lnfec                   0FFB
lnfgr                   0C2B	lnfhf                   0F4B
lnfhq                   03BB	lnfht                   027B
lnfhv                   037B	lnfiw                   07BB
lnfix                   073B	lnflx                   060B
lnfmg                   058B	lnfmh                   050B
lnfmu                   08B3	lnfmx                   0933
lnfmz                   0873	lnfna                   09F3
lnfnd                   0A13	lnfnv                   0F33
lnfop                   0F53	lnfrr                   0373
lnfry                   01F3	lnfuv                   0003
lnfwe                   04C3	lnhfl                   1213
lnisl                   2377	lnjsg                   3FFF
lnltr                   2313	lnndh                   3E13
lnoft                   0A5E	lnofx                   081E
lnogd                   095E	lnogh                   0F3E
lnojx                   023E	lnolg                   06FE
lnolq                   05FE	lnolt                   061E
lnomd                   051E	lnomj                   022E
lnomy                   028E	lnonm                   01CE
lnopf                   0936	lnoqg                   0FF6
lnoru                   09E6	lnosc                   0BC6
lnoss                   0FE6	lnotj                   0F46
lnoun                   0256	lnouw                   01D6
lnovf                   0776	lnovo                   0696
lnowj                   0266	lnoxn                   0726
lnoxo                   06E6	lnpzs                   12AE
lnqki                   12C6	lnqkn                   1006
lnrhb                   0F3A	lnrim                   08AA
lnrir                   086A	lnrkh                   0F4A
lnrlg                   029A	lnrlm                   03DA
lnrmy                   04DA	lnrnp                   006A
lnrnx                   024A	lnron                   066A
lnroy                   068A	lnrqa                   08F2
lnrrr                   0F52	lnrsr                   0A02
lnrud                   0F42	lnrvn                   0112
lnrvr                   0152	lnrvv                   0732
lnrwf                   0472	lnrwh                   0572
lnrwk                   0792	lnrwo                   07D2
lnrwv                   0452	lnrxc                   02E2
lnrxe                   03E2	lnrxy                   0182
lnryq                   04E2	lnryr                   0462
lnryv                   0602	lnrzc                   0482
lnrzh                   0442	loaqn                   404F
loaxf                   4137	lodqo                   41AB
lodxy                   41B3	lodxz                   4133
lodyn                   4013	lolif                   7A13
lolih                   7B13	lomqi                   40BE
lomtm                   418E	loncr                   4026
londh                   4006	londk                   40C6
loqbs                   40D2	loqbu                   41D2
loqdp                   4062	loqec                   4182

