	                ;*********************************************************************************************************
	                ; 
	                ; Autogenerated by DizAssembler:
	                ;   https://github.com/codenjoyme/8080-emulator/blob/master/src/main/java/spec/assembler/DizAssembler.java
	                ; From: src/main/resources/lik/apps/piton2/piton2.rks
	                ; In test: DizAssemblerTest.testDizAssembly()
	                ; 
	                ;*********************************************************************************************************
	                
	                         CPU  8080
	                         .ORG 00000h
	                ljyua    EQU 00A80h
	                lndxp    EQU 0100Fh
	                lkamq    EQU 01080h
	                lnqat    EQU 0110Eh
	                lnhhj    EQU 01323h
	                lndsr    EQU 0180Fh
	                lkahv    EQU 01900h
	                lkfau    EQU 02080h
	                lnisl    EQU 02377h
	                lnjsg    EQU 03FFFh
	                lkytv    EQU 05700h
	                lgozx    EQU 0C037h
	                lgpdp    EQU 0C427h
	                ldsyd    EQU 0F700h
	                ldstf    EQU 0FF00h
	                ldgqd    EQU 0FF01h
	                lhlrv    EQU 0FF02h
	                lgzot    EQU 0FF03h
	                ldsss    EQU 0FFE0h
	                lgwbe    EQU 0FFFFh
0000	31 FF 3F        ljyzh:   LXI SP,lnjsg
0003	21 80 0A                 LXI H,ljyua
0006	11 C1 04                 LXI D,ljmxo
0009	CD 12 04                 CALL lnrwr
000C	0E 2E                    MVI C,02Eh
000E	11 E1 04        lnonh:   LXI D,ljmwy
0011	CD 12 04                 CALL lnrwr
0014	0D                       DCR C
0015	C2 0E 00                 JNZ lnonh
0018	11 C1 04                 LXI D,ljmxo
001B	CD 12 04                 CALL lnrwr
001E	0E 1F                    MVI C,01Fh
0020	CD 37 C0                 CALL lgozx
0023	01 00 00                 LXI B,00000h
0026	21 01 05                 LXI H,ljmxn
0029	CD 9A 04                 CALL lnrmu
002C	CD 1D 04        ljvob:   CALL ljjkj
002F	B7                       ORA A
0030	C2 2C 00                 JNZ ljvob
0033	CD 39 04        lnfrt:   CALL ljmkn
0036	CD 1D 04                 CALL ljjkj
0039	FE 20                    CPI 020h
003B	C2 33 00                 JNZ lnfrt
003E	0E 1F                    MVI C,01Fh
0040	CD 37 C0                 CALL lgozx
0043	01 0F 10                 LXI B,lndxp
0046	21 AC 07                 LXI H,ljvpa
0049	CD 9A 04                 CALL lnrmu
004C	05                       DCR B
004D	3A 08 08                 LDA ljykn
0050	57                       MOV D,A
0051	C3 6E 00                 JMP lnomv
0054	CD 1D 04        ljvwf:   CALL ljjkj
0057	B7                       ORA A
0058	C2 54 00                 JNZ ljvwf
005B	CD 1D 04        lnfir:   CALL ljjkj
005E	B7                       ORA A
005F	CA 5B 00                 JZ lnfir
0062	FE 20                    CPI 020h
0064	CA 78 00                 JZ ljymn
0067	14                       INR D
0068	7A                       MOV A,D
0069	FE 1A                    CPI 01Ah
006B	CC 75 00                 CZ ljjsn
006E	7A              lnomv:   MOV A,D
006F	CD 4E 04                 CALL lnoor
0072	C3 54 00                 JMP ljvwf
0075	16 11           ljjsn:   MVI D,011h
0077	C9                       RET
0078	7A              ljymn:   MOV A,D
0079	32 08 08                 STA ljykn
007C	D6 10                    SUI 010h
007E	21 00 57                 LXI H,lkytv
0081	01 00 F7                 LXI B,ldsyd
0084	09              ljvym:   DAD B
0085	3D                       DCR A
0086	C2 84 00                 JNZ ljvym
0089	22 06 08                 SHLD lnosf
008C	0E 1F                    MVI C,01Fh
008E	CD 37 C0                 CALL lgozx
0091	01 00 00                 LXI B,00000h
0094	21 16 07                 LXI H,lnovr
0097	CD 9A 04                 CALL lnrmu
009A	16 1D                    MVI D,01Dh
009C	21 48 07        ljvme:   LXI H,ljyqp
009F	CD 9A 04                 CALL lnrmu
00A2	15                       DCR D
00A3	C2 9C 00                 JNZ ljvme
00A6	21 7A 07                 LXI H,lnrmd
00A9	CD 9A 04                 CALL lnrmu
00AC	21 80 10                 LXI H,lkamq
00AF	22 FD 07                 SHLD ljjjq
00B2	22 FF 07                 SHLD lncig
00B5	21 00 01                 LXI H,00100h
00B8	22 FB 07                 SHLD lnfja
00BB	21 0F 03                 LXI H,0030Fh
00BE	22 80 10                 SHLD lkamq
00C1	01 80 0A                 LXI B,ljyua
00C4	09                       DAD B
00C5	36 02                    MVI M,002h
00C7	01 0F 18                 LXI B,lndsr
00CA	3E 0D                    MVI A,00Dh
00CC	CD 4E 04                 CALL lnoor
00CF	3E 04                    MVI A,004h
00D1	32 02 08                 STA lnrsz
00D4	32 01 08                 STA ljmrh
00D7	3E 01                    MVI A,001h
00D9	32 0D 08                 STA ljjgr
00DC	AF                       XRA A
00DD	32 05 08                 STA ljjqn
00E0	32 0B 08                 STA lnfgb
00E3	32 0C 08                 STA ljvjt
00E6	32 0E 08                 STA lnoij
00E9	01 1F 03                 LXI B,0031Fh
00EC	3E 43                    MVI A,043h
00EE	CD 4E 04                 CALL lnoor
00F1	16 05                    MVI D,005h
00F3	D5              lnfrw:   PUSH D
00F4	CD 2F 02                 CALL lncjh
00F7	D1                       POP D
00F8	15                       DCR D
00F9	C2 F3 00                 JNZ lnfrw
00FC	CD 39 04        ljvls:   CALL ljmkn
00FF	7C                       MOV A,H
0100	E6 3F                    ANI 03Fh
0102	CC 2F 02                 CZ lncjh
0105	CD 39 04                 CALL ljmkn
0108	7D                       MOV A,L
0109	E6 7F                    ANI 07Fh
010B	CC 17 02                 CZ lncrh
010E	CD 39 04                 CALL ljmkn
0111	7C                       MOV A,H
0112	E6 7F                    ANI 07Fh
0114	CC 34 02                 CZ ljvvd
0117	CD 39 04                 CALL ljmkn
011A	7C                       MOV A,H
011B	FE 34                    CPI 034h
011D	F5                       PUSH PSW
011E	CC 1F 02                 CZ lnchl
0121	F1                       POP PSW
0122	E6 3F                    ANI 03Fh
0124	FE 20                    CPI 020h
0126	CC EF 01                 CZ lncju
0129	3A 05 08                 LDA ljjqn
012C	B7                       ORA A
012D	C2 04 02                 JNZ ljvyf
0130	CD 77 03                 CALL lncqx
0133	32 02 08                 STA lnrsz
0136	2A FD 07                 LHLD ljjjq
0139	CD BD 03                 CALL ljjig
013C	E5                       PUSH H
013D	CD 07 04                 CALL lncvh
0140	3E 02                    MVI A,002h
0142	CD 4E 04                 CALL lnoor
0145	3A 02 08                 LDA lnrsz
0148	E1                       POP H
0149	CD A7 03                 CALL lncte
014C	09                       DAD B
014D	E5                       PUSH H
014E	01 80 0A                 LXI B,ljyua
0151	09                       DAD B
0152	7E                       MOV A,M
0153	32 03 08                 STA lnfpx
0156	36 02                    MVI M,002h
0158	E1                       POP H
0159	E5                       PUSH H
015A	CD 62 03                 CALL lnrxf
015D	7A                       MOV A,D
015E	CD 4E 04                 CALL lnoor
0161	D1                       POP D
0162	2A FD 07                 LHLD ljjjq
0165	23                       INX H
0166	23                       INX H
0167	D5                       PUSH D
0168	11 80 20                 LXI D,lkfau
016B	CD 27 C4                 CALL lgpdp
016E	D1                       POP D
016F	CC 68 02                 CZ ljyor
0172	22 FD 07                 SHLD ljjjq
0175	CD C4 03                 CALL ljvyk
0178	3A 0A 08                 LDA lnrjd
017B	B7                       ORA A
017C	C4 90 01                 CNZ ljyww
017F	3A 01 08        lnchj:   LDA ljmrh
0182	B7                       ORA A
0183	CA 9D 02                 JZ ljjiu
0186	3D                       DCR A
0187	32 01 08                 STA ljmrh
018A	CD 39 02                 CALL ljmiz
018D	C3 C4 02                 JMP ljvyi
0190	3A 0C 08        ljyww:   LDA ljvjt
0193	B7                       ORA A
0194	C8                       RZ
0195	16 1B                    MVI D,01Bh
0197	3A 02 08                 LDA lnrsz
019A	FE 04                    CPI 004h
019C	CA A5 01                 JZ ljjuw
019F	FE 10                    CPI 010h
01A1	CA A5 01                 JZ ljjuw
01A4	14                       INR D
01A5	CD B2 01        ljjuw:   CALL lnruw
01A8	16 00                    MVI D,000h
01AA	CD B2 01                 CALL lnruw
01AD	AF                       XRA A
01AE	32 0A 08                 STA lnrjd
01B1	C9                       RET
01B2	2A FD 07        lnruw:   LHLD ljjjq
01B5	CD BD 03                 CALL ljjig
01B8	1E 03                    MVI E,003h
01BA	3A 02 08        lnrla:   LDA lnrsz
01BD	CD A7 03                 CALL lncte
01C0	09                       DAD B
01C1	E5                       PUSH H
01C2	01 80 0A                 LXI B,ljyua
01C5	09                       DAD B
01C6	7E                       MOV A,M
01C7	B7                       ORA A
01C8	CA D8 01                 JZ ljyne
01CB	FE 40                    CPI 040h
01CD	CA D8 01                 JZ ljyne
01D0	FE 0B                    CPI 00Bh
01D2	CA D8 01                 JZ ljyne
01D5	C3 77 04                 JMP lncsj
01D8	36 00           ljyne:   MVI M,000h
01DA	E1                       POP H
01DB	E5                       PUSH H
01DC	CD 07 04                 CALL lncvh
01DF	7A                       MOV A,D
01E0	CD 4E 04                 CALL lnoor
01E3	21 00 01                 LXI H,00100h
01E6	CD 5B 03                 CALL lnfil
01E9	E1                       POP H
01EA	1D                       DCR E
01EB	C2 BA 01                 JNZ lnrla
01EE	C9                       RET
01EF	3A 0D 08        lncju:   LDA ljjgr
01F2	FE 0F                    CPI 00Fh
01F4	C8                       RZ
01F5	3A 0E 08                 LDA lnoij
01F8	B7                       ORA A
01F9	C0                       RNZ
01FA	3E 01                    MVI A,001h
01FC	32 0E 08                 STA lnoij
01FF	3E 43                    MVI A,043h
0201	C3 19 02                 JMP ljmjp
0204	3A 05 08        ljvyf:   LDA ljjqn
0207	3D                       DCR A
0208	32 05 08                 STA ljjqn
020B	CD 4A 02                 CALL lnrnx
020E	CD 60 02                 CALL ljyyn
0211	CA 77 04                 JZ lncsj
0214	C3 7F 01                 JMP lnchj
0217	3E 03           lncrh:   MVI A,003h
0219	32 04 08        ljmjp:   STA ljvtp
021C	C3 6C 02                 JMP ljvnx
021F	3A 0B 08        lnchl:   LDA lnfgb
0222	B7                       ORA A
0223	C0                       RNZ
0224	CD 8E 02                 CALL lnomy
0227	3E 42                    MVI A,042h
0229	32 0B 08                 STA lnfgb
022C	C3 19 02                 JMP ljmjp
022F	3E 0B           lncjh:   MVI A,00Bh
0231	C3 19 02                 JMP ljmjp
0234	3E 40           ljvvd:   MVI A,040h
0236	C3 19 02                 JMP ljmjp
0239	21 FC 07        ljmiz:   LXI H,ljvms
023C	7E                       MOV A,M
023D	C6 01                    ADI 001h
023F	27                       DAA
0240	77                       MOV M,A
0241	2B                       DCX H
0242	7E                       MOV A,M
0243	CE 00                    ACI 000h
0245	27                       DAA
0246	77                       MOV M,A
0247	C3 C8 03                 JMP ljypi
024A	21 FC 07        lnrnx:   LXI H,ljvms
024D	7E                       MOV A,M
024E	C6 99                    ADI 099h
0250	27                       DAA
0251	77                       MOV M,A
0252	2B                       DCX H
0253	FE 99                    CPI 099h
0255	7E                       MOV A,M
0256	C2 5C 02                 JNZ ljvmb
0259	C6 99                    ADI 099h
025B	27                       DAA
025C	77              ljvmb:   MOV M,A
025D	C3 C8 03                 JMP ljypi
0260	21 FB 07        ljyyn:   LXI H,lnfja
0263	AF                       XRA A
0264	B6                       ORA M
0265	23                       INX H
0266	B6                       ORA M
0267	C9                       RET
0268	21 80 10        ljyor:   LXI H,lkamq
026B	C9                       RET
026C	CD 8E 02        ljvnx:   CALL lnomy
026F	E5                       PUSH H
0270	01 80 0A                 LXI B,ljyua
0273	09                       DAD B
0274	7E                       MOV A,M
0275	B7                       ORA A
0276	E1                       POP H
0277	C2 2F 02                 JNZ lncjh
027A	E5                       PUSH H
027B	01 80 0A                 LXI B,ljyua
027E	09                       DAD B
027F	3A 04 08                 LDA ljvtp
0282	77                       MOV M,A
0283	E1                       POP H
0284	CD 07 04                 CALL lncvh
0287	3A 04 08                 LDA ljvtp
028A	CD 4E 04                 CALL lnoor
028D	C9                       RET
028E	CD 39 04        lnomy:   CALL ljmkn
0291	7C                       MOV A,H
0292	E6 07                    ANI 007h
0294	FE 06                    CPI 006h
0296	DA 9B 02                 JC lnfie
0299	D6 06                    SUI 006h
029B	67              lnfie:   MOV H,A
029C	C9                       RET
029D	2A FF 07        ljjiu:   LHLD lncig
02A0	E5                       PUSH H
02A1	23                       INX H
02A2	23                       INX H
02A3	D5                       PUSH D
02A4	11 80 20                 LXI D,lkfau
02A7	CD 27 C4                 CALL lgpdp
02AA	D1                       POP D
02AB	CC 68 02                 CZ ljyor
02AE	22 FF 07                 SHLD lncig
02B1	E1                       POP H
02B2	CD BD 03                 CALL ljjig
02B5	E5                       PUSH H
02B6	01 80 0A                 LXI B,ljyua
02B9	09                       DAD B
02BA	36 00                    MVI M,000h
02BC	E1                       POP H
02BD	CD 07 04                 CALL lncvh
02C0	AF                       XRA A
02C1	CD 4E 04                 CALL lnoor
02C4	CD 58 03        ljvyi:   CALL ljymx
02C7	3A 03 08                 LDA lnfpx
02CA	FE 0B                    CPI 00Bh
02CC	CA 4A 03                 JZ lnrnz
02CF	FE 40                    CPI 040h
02D1	CA 0D 03                 JZ ljjlj
02D4	FE 42                    CPI 042h
02D6	CA FD 02                 JZ ljjii
02D9	FE 43                    CPI 043h
02DB	CA E5 02                 JZ ljjuq
02DE	B7                       ORA A
02DF	CA FC 00                 JZ ljvls
02E2	C3 77 04                 JMP lncsj
02E5	AF              ljjuq:   XRA A
02E6	32 0E 08                 STA lnoij
02E9	3A 0D 08                 LDA ljjgr
02EC	3C                       INR A
02ED	32 0D 08                 STA ljjgr
02F0	C6 02                    ADI 002h
02F2	47                       MOV B,A
02F3	0E 1F                    MVI C,01Fh
02F5	3E 43                    MVI A,043h
02F7	CD 4E 04                 CALL lnoor
02FA	C3 FC 00                 JMP ljvls
02FD	3E 01           ljjii:   MVI A,001h
02FF	32 0C 08                 STA ljvjt
0302	01 1F 01                 LXI B,0011Fh
0305	3E 42                    MVI A,042h
0307	CD 4E 04                 CALL lnoor
030A	C3 FC 00                 JMP ljvls
030D	3E 14           ljjlj:   MVI A,014h
030F	32 05 08                 STA ljjqn
0312	AF                       XRA A
0313	32 03 08                 STA lnfpx
0316	01 1F 01                 LXI B,0011Fh
0319	CD 4E 04                 CALL lnoor
031C	3A 0D 08                 LDA ljjgr
031F	16 02                    MVI D,002h
0321	FE 01           ljmvj:   CPI 001h
0323	CA 39 03                 JZ ljmjb
0326	3D                       DCR A
0327	5F                       MOV E,A
0328	C6 03                    ADI 003h
032A	47                       MOV B,A
032B	0E 1F                    MVI C,01Fh
032D	AF                       XRA A
032E	CD 4E 04                 CALL lnoor
0331	7B                       MOV A,E
0332	15                       DCR D
0333	32 0D 08                 STA ljjgr
0336	C2 21 03                 JNZ ljmvj
0339	3A 0C 08        ljmjb:   LDA ljvjt
033C	B7                       ORA A
033D	CA FC 00                 JZ ljvls
0340	AF                       XRA A
0341	32 0C 08                 STA ljvjt
0344	32 0B 08                 STA lnfgb
0347	C3 FC 00                 JMP ljvls
034A	3A 01 08        lnrnz:   LDA ljmrh
034D	47                       MOV B,A
034E	3A 0D 08                 LDA ljjgr
0351	80                       ADD B
0352	32 01 08                 STA ljmrh
0355	C3 FC 00                 JMP ljvls
0358	2A 06 08        ljymx:   LHLD lnosf
035B	2B              lnfil:   DCX H
035C	7C                       MOV A,H
035D	B5                       ORA L
035E	C2 5B 03                 JNZ lnfil
0361	C9                       RET
0362	CD 07 04        lnrxf:   CALL lncvh
0365	16 0C                    MVI D,00Ch
0367	3A 02 08                 LDA lnrsz
036A	FE 80                    CPI 080h
036C	C8                       RZ
036D	14                       INR D
036E	FE 04                    CPI 004h
0370	C8                       RZ
0371	14                       INR D
0372	FE 40                    CPI 040h
0374	C8                       RZ
0375	14                       INR D
0376	C9                       RET
0377	CD 1D 04        lncqx:   CALL ljjkj
037A	B7                       ORA A
037B	CC 93 03                 CZ lnfsc
037E	FE 04                    CPI 004h
0380	C8                       RZ
0381	FE 10                    CPI 010h
0383	C8                       RZ
0384	FE 40                    CPI 040h
0386	C8                       RZ
0387	FE 80                    CPI 080h
0389	C8                       RZ
038A	FE 20                    CPI 020h
038C	CC 9A 03                 CZ lnrli
038F	3A 02 08                 LDA lnrsz
0392	C9                       RET
0393	F5              lnfsc:   PUSH PSW
0394	AF                       XRA A
0395	32 09 08                 STA ljmhl
0398	F1                       POP PSW
0399	C9                       RET
039A	3A 09 08        lnrli:   LDA ljmhl
039D	B7                       ORA A
039E	C0                       RNZ
039F	3C                       INR A
03A0	32 09 08                 STA ljmhl
03A3	32 0A 08                 STA lnrjd
03A6	C9                       RET
03A7	01 20 00        lncte:   LXI B,00020h
03AA	FE 04                    CPI 004h
03AC	C8                       RZ
03AD	01 E0 FF                 LXI B,ldsss
03B0	FE 10                    CPI 010h
03B2	C8                       RZ
03B3	01 FF FF                 LXI B,lgwbe
03B6	FE 80                    CPI 080h
03B8	C8                       RZ
03B9	01 01 00                 LXI B,00001h
03BC	C9                       RET
03BD	D5              ljjig:   PUSH D
03BE	5E                       MOV E,M
03BF	23                       INX H
03C0	56                       MOV D,M
03C1	EB                       XCHG
03C2	D1                       POP D
03C3	C9                       RET
03C4	73              ljvyk:   MOV M,E
03C5	23                       INX H
03C6	72                       MOV M,D
03C7	C9                       RET
03C8	C5              ljypi:   PUSH B
03C9	E5                       PUSH H
03CA	01 00 19                 LXI B,lkahv
03CD	21 FB 07                 LXI H,lnfja
03D0	7E                       MOV A,M
03D1	CD DC 03                 CALL ljvmc
03D4	23                       INX H
03D5	7E                       MOV A,M
03D6	CD DC 03                 CALL ljvmc
03D9	E1                       POP H
03DA	C1                       POP B
03DB	C9                       RET
03DC	D5              ljvmc:   PUSH D
03DD	5F                       MOV E,A
03DE	0F                       RRC
03DF	0F                       RRC
03E0	0F                       RRC
03E1	0F                       RRC
03E2	CD FB 03                 CALL lnfhu
03E5	57                       MOV D,A
03E6	7B                       MOV A,E
03E7	CD FB 03                 CALL lnfhu
03EA	5F                       MOV E,A
03EB	7A                       MOV A,D
03EC	D6 20                    SUI 020h
03EE	CD 4E 04                 CALL lnoor
03F1	04                       INR B
03F2	7B                       MOV A,E
03F3	D6 20                    SUI 020h
03F5	CD 4E 04                 CALL lnoor
03F8	04                       INR B
03F9	D1                       POP D
03FA	C9                       RET
03FB	E6 0F           lnfhu:   ANI 00Fh
03FD	FE 0A                    CPI 00Ah
03FF	DA 04 04                 JC ljvzt
0402	C6 07                    ADI 007h
0404	C6 30           ljvzt:   ADI 030h
0406	C9                       RET
0407	E5              lncvh:   PUSH H
0408	29                       DAD H
0409	29                       DAD H
040A	29                       DAD H
040B	44                       MOV B,H
040C	E1                       POP H
040D	7D                       MOV A,L
040E	E6 1F                    ANI 01Fh
0410	4F                       MOV C,A
0411	C9                       RET
0412	06 20           lnrwr:   MVI B,020h
0414	1A              ljvxh:   LDAX D
0415	77                       MOV M,A
0416	23                       INX H
0417	13                       INX D
0418	05                       DCR B
0419	C2 14 04                 JNZ ljvxh
041C	C9                       RET
041D	C5              ljjkj:   PUSH B
041E	3E 91                    MVI A,091h
0420	32 03 FF                 STA lgzot
0423	3E FB                    MVI A,0FBh
0425	32 01 FF                 STA ldgqd
0428	3A 00 FF                 LDA ldstf
042B	E6 3F                    ANI 03Fh
042D	47                       MOV B,A
042E	3A 02 FF                 LDA lhlrv
0431	E6 03                    ANI 003h
0433	0F                       RRC
0434	0F                       RRC
0435	B0                       ORA B
0436	2F                       CMA
0437	C1                       POP B
0438	C9                       RET
0439	2A F9 07        ljmkn:   LHLD ljmkk
043C	0E 10                    MVI C,010h
043E	7C              lnoll:   MOV A,H
043F	29                       DAD H
0440	E6 60                    ANI 060h
0442	EA 46 04                 JPE lnoyn
0445	23                       INX H
0446	0D              lnoyn:   DCR C
0447	C2 3E 04                 JNZ lnoll
044A	22 F9 07                 SHLD ljmkk
044D	C9                       RET
044E	E5              lnoor:   PUSH H
044F	D5                       PUSH D
0450	C5                       PUSH B
0451	F5                       PUSH PSW
0452	79                       MOV A,C
0453	07                       RLC
0454	07                       RLC
0455	07                       RLC
0456	6F                       MOV L,A
0457	78                       MOV A,B
0458	C6 90                    ADI 090h
045A	67                       MOV H,A
045B	F1                       POP PSW
045C	F5                       PUSH PSW
045D	EB                       XCHG
045E	01 20 08                 LXI B,ljytt
0461	26 00                    MVI H,000h
0463	6F                       MOV L,A
0464	29                       DAD H
0465	29                       DAD H
0466	29                       DAD H
0467	09                       DAD B
0468	06 08                    MVI B,008h
046A	7E              lnrov:   MOV A,M
046B	12                       STAX D
046C	23                       INX H
046D	13                       INX D
046E	05                       DCR B
046F	C2 6A 04                 JNZ lnrov
0472	F1                       POP PSW
0473	C1                       POP B
0474	D1                       POP D
0475	E1                       POP H
0476	C9                       RET
0477	01 0E 11        lncsj:   LXI B,lnqat
047A	21 B9 07                 LXI H,ljmkg
047D	CD 9A 04                 CALL lnrmu
0480	16 06                    MVI D,006h
0482	21 FF FF        lnrzc:   LXI H,lgwbe
0485	CD 1D 04        ljjwq:   CALL ljjkj
0488	FE 20                    CPI 020h
048A	CA 00 00                 JZ ljyzh
048D	2B                       DCX H
048E	7C                       MOV A,H
048F	B5                       ORA L
0490	C2 85 04                 JNZ ljjwq
0493	15                       DCR D
0494	C2 82 04                 JNZ lnrzc
0497	C3 00 00                 JMP ljyzh
049A	7E              lnrmu:   MOV A,M
049B	B7                       ORA A
049C	C8                       RZ
049D	FE 0A                    CPI 00Ah
049F	CA B4 04                 JZ ljvwq
04A2	FE 0B                    CPI 00Bh
04A4	CA BA 04                 JZ lnrme
04A7	D6 20                    SUI 020h
04A9	CA AF 04                 JZ lncku
04AC	CD 4E 04                 CALL lnoor
04AF	04              lncku:   INR B
04B0	23              ljyxk:   INX H
04B1	C3 9A 04                 JMP lnrmu
04B4	06 00           ljvwq:   MVI B,000h
04B6	0C                       INR C
04B7	C3 B0 04                 JMP ljyxk
04BA	04              lnrme:   INR B
04BB	04                       INR B
04BC	04                       INR B
04BD	04                       INR B
04BE	C3 B0 04                 JMP ljyxk
	                
04C1	41 41 41 41     ljmxo:   DB 041h, 041h, 041h, 041h, 041h, 041h, 041h, 041h, 041h, 041h
	. . .
04C9	41 41 

04CB	41 41 41 41              DB 041h, 041h, 041h, 041h, 041h, 041h, 041h, 041h, 041h, 041h
	. . .
04D3	41 41 

04D5	41 41 41 41              DB 041h, 041h, 041h, 041h, 041h, 041h, 041h, 041h, 041h, 041h
	. . .
04DD	41 41 

04DF	41 41                    DB 041h, 041h
04E1	41 00 00 00     ljmwy:   DB 041h, 000h, 000h, 000h, 000h, 000h, 000h, 000h, 000h, 000h
	. . .
04E9	00 00 

04EB	00 00 00 00              DB 000h, 000h, 000h, 000h, 000h, 000h, 000h, 000h, 000h, 000h
	. . .
04F3	00 00 

04F5	00 00 00 00              DB 000h, 000h, 000h, 000h, 000h, 000h, 000h, 000h, 000h, 000h
	. . .
04FD	00 00 

04FF	41 41                    DB 041h, 041h
0501	0A 0A 0A 0B     ljmxn:   DB 00Ah, 00Ah, 00Ah, 00Bh, 00Bh, 00Bh, 00Bh, 00Bh, 020h, 020h
	. . .
0509	20 20 

050B	24 25 26 0A              DB 024h, 025h, 026h, 00Ah, 00Bh, 00Bh, 00Bh, 00Bh, 00Bh, 020h
	. . .
0513	0B 20 

0515	20 27 28 29              DB 020h, 027h, 028h, 029h, 00Ah, 00Ah, 00Bh, 00Bh, 00Bh, 00Bh
	. . .
051D	0B 0B 

051F	5E 45 52 4E              DB 05Eh, 045h, 052h, 04Eh, 04Fh, 057h, 043h, 059h, 020h, 02Ah
	. . .
0527	20 2A 

0529	20 31 39 38              DB 020h, 031h, 039h, 038h, 038h, 00Ah, 00Ah, 00Ah, 00Ah, 00Ah
	. . .
0531	0A 0A 

0533	0A 0B 23 23              DB 00Ah, 00Bh, 023h, 023h, 023h, 023h, 023h, 023h, 023h, 020h
	. . .
053B	23 20 

053D	23 20 20 20              DB 023h, 020h, 020h, 020h, 020h, 020h, 023h, 020h, 023h, 023h
	. . .
0545	23 23 

0547	23 23 23 23              DB 023h, 023h, 023h, 023h, 023h, 020h, 023h, 023h, 023h, 023h
	. . .
054F	23 23 

0551	23 23 23 20              DB 023h, 023h, 023h, 020h, 023h, 020h, 020h, 020h, 020h, 020h
	. . .
0559	20 20 

055B	23 0A 0B 23              DB 023h, 00Ah, 00Bh, 023h, 020h, 020h, 020h, 020h, 020h, 023h
	. . .
0563	20 23 

0565	20 23 20 20              DB 020h, 023h, 020h, 020h, 020h, 020h, 023h, 023h, 020h, 020h
	. . .
056D	20 20 

056F	20 20 23 20              DB 020h, 020h, 023h, 020h, 020h, 020h, 020h, 023h, 020h, 020h
	. . .
0577	20 20 

0579	20 20 20 23              DB 020h, 020h, 020h, 023h, 020h, 023h, 020h, 020h, 020h, 020h
	. . .
0581	20 20 

0583	20 23 0A 0B              DB 020h, 023h, 00Ah, 00Bh, 023h, 020h, 020h, 020h, 020h, 020h
	. . .
058B	20 20 

058D	23 20 23 20              DB 023h, 020h, 023h, 020h, 020h, 020h, 023h, 020h, 023h, 020h
	. . .
0595	23 20 

0597	20 20 20 23              DB 020h, 020h, 020h, 023h, 020h, 020h, 020h, 020h, 023h, 020h
	. . .
059F	23 20 

05A1	20 20 20 20              DB 020h, 020h, 020h, 020h, 023h, 020h, 023h, 020h, 020h, 020h
	. . .
05A9	20 20 

05AB	20 20 23 0A              DB 020h, 020h, 023h, 00Ah, 00Bh, 023h, 020h, 020h, 020h, 020h
	. . .
05B3	20 20 

05B5	20 23 20 23              DB 020h, 023h, 020h, 023h, 020h, 020h, 023h, 020h, 020h, 023h
	. . .
05BD	20 23 

05BF	20 20 20 20              DB 020h, 020h, 020h, 020h, 023h, 020h, 020h, 020h, 020h, 023h
	. . .
05C7	20 23 

05C9	20 20 20 20              DB 020h, 020h, 020h, 020h, 020h, 023h, 020h, 023h, 023h, 023h
	. . .
05D1	23 23 

05D3	23 23 23 23              DB 023h, 023h, 023h, 023h, 00Ah, 00Bh, 023h, 023h, 020h, 020h
	. . .
05DB	20 20 

05DD	20 20 23 20              DB 020h, 020h, 023h, 020h, 023h, 020h, 023h, 020h, 020h, 023h
	. . .
05E5	20 23 

05E7	23 20 20 20              DB 023h, 020h, 020h, 020h, 020h, 023h, 023h, 020h, 020h, 020h
	. . .
05EF	20 20 

05F1	23 23 23 20              DB 023h, 023h, 023h, 020h, 020h, 020h, 023h, 020h, 023h, 023h
	. . .
05F9	23 23 

05FB	20 20 20 20              DB 020h, 020h, 020h, 020h, 023h, 00Ah, 00Bh, 023h, 023h, 020h
	. . .
0603	23 20 

0605	20 20 20 23              DB 020h, 020h, 020h, 023h, 020h, 023h, 023h, 020h, 020h, 020h
	. . .
060D	20 20 

060F	23 23 20 20              DB 023h, 023h, 020h, 020h, 020h, 020h, 023h, 023h, 020h, 020h
	. . .
0617	20 20 

0619	20 23 23 23              DB 020h, 023h, 023h, 023h, 020h, 020h, 020h, 023h, 020h, 023h
	. . .
0621	20 23 

0623	23 20 20 20              DB 023h, 020h, 020h, 020h, 020h, 023h, 00Ah, 00Bh, 023h, 023h
	. . .
062B	23 23 

062D	20 20 20 20              DB 020h, 020h, 020h, 020h, 023h, 020h, 023h, 020h, 020h, 020h
	. . .
0635	20 20 

0637	20 23 23 20              DB 020h, 023h, 023h, 020h, 020h, 020h, 020h, 023h, 023h, 020h
	. . .
063F	23 20 

0641	20 20 23 23              DB 020h, 020h, 023h, 023h, 023h, 020h, 020h, 020h, 023h, 020h
	. . .
0649	23 20 

064B	23 23 20 20              DB 023h, 023h, 020h, 020h, 020h, 020h, 023h, 00Ah, 00Bh, 023h
	. . .
0653	0B 23 

0655	23 20 20 20              DB 023h, 020h, 020h, 020h, 020h, 023h, 020h, 023h, 020h, 020h
	. . .
065D	20 20 

065F	20 20 23 23              DB 020h, 020h, 023h, 023h, 020h, 020h, 020h, 020h, 023h, 023h
	. . .
0667	23 23 

0669	20 20 20 23              DB 020h, 020h, 020h, 023h, 023h, 023h, 023h, 023h, 023h, 023h
	. . .
0671	23 23 

0673	20 23 23 20              DB 020h, 023h, 023h, 020h, 020h, 020h, 020h, 023h, 00Ah, 00Ah
	. . .
067B	0A 0A 

067D	0A 0A 0A 0B              DB 00Ah, 00Ah, 00Ah, 00Bh, 00Bh, 00Bh, 020h, 020h, 020h, 022h
	. . .
0685	20 22 

0687	22 22 22 22              DB 022h, 022h, 022h, 022h, 022h, 02Dh, 020h, 02Bh, 020h, 022h
	. . .
068F	20 22 

0691	22 22 22 22              DB 022h, 022h, 022h, 022h, 022h, 022h, 020h, 00Ah, 00Bh, 00Bh
	. . .
0699	0B 0B 

069B	0B 20 20 22              DB 00Bh, 020h, 020h, 022h, 020h, 020h, 020h, 020h, 020h, 020h
	. . .
06A3	20 20 

06A5	20 20 20 20              DB 020h, 020h, 020h, 020h, 020h, 020h, 020h, 020h, 020h, 020h
	. . .
06AD	20 20 

06AF	20 22 0A 0B              DB 020h, 022h, 00Ah, 00Bh, 00Bh, 00Bh, 020h, 020h, 022h, 020h
	. . .
06B7	22 20 

06B9	60 20 20 20              DB 060h, 020h, 020h, 020h, 060h, 020h, 020h, 020h, 060h, 020h
	. . .
06C1	60 20 

06C3	20 20 60 20              DB 020h, 020h, 060h, 020h, 020h, 020h, 022h, 00Ah, 00Bh, 00Bh
	. . .
06CB	0B 0B 

06CD	0B 20 20 22              DB 00Bh, 020h, 020h, 022h, 020h, 020h, 020h, 060h, 020h, 020h
	. . .
06D5	20 20 

06D7	20 60 20 20              DB 020h, 060h, 020h, 020h, 020h, 060h, 020h, 020h, 020h, 060h
	. . .
06DF	20 60 

06E1	20 22 0A 0B              DB 020h, 022h, 00Ah, 00Bh, 00Bh, 00Bh, 020h, 020h, 022h, 020h
	. . .
06E9	22 20 

06EB	20 20 20 20              DB 020h, 020h, 020h, 020h, 020h, 020h, 020h, 020h, 020h, 020h
	. . .
06F3	20 20 

06F5	20 20 20 20              DB 020h, 020h, 020h, 020h, 020h, 020h, 022h, 00Ah, 00Bh, 00Bh
	. . .
06FD	0B 0B 

06FF	0B 20 20 20              DB 00Bh, 020h, 020h, 020h, 022h, 022h, 022h, 022h, 022h, 022h
	. . .
0707	22 22 

0709	22 22 22 22              DB 022h, 022h, 022h, 022h, 022h, 022h, 022h, 022h, 022h, 022h
	. . .
0711	22 22 

0713	22 20 00                 DB 022h, 020h, 000h
0716	21 21 21 21     lnovr:   DB 021h, 021h, 021h, 021h, 021h, 021h, 021h, 021h, 021h, 021h
	. . .
071E	21 21 

0720	21 21 21 21              DB 021h, 021h, 021h, 021h, 021h, 020h, 020h, 020h, 020h, 044h
	. . .
0728	20 44 

072A	4C 49 4E 41              DB 04Ch, 049h, 04Eh, 041h, 020h, 030h, 030h, 030h, 030h, 020h
	. . .
0732	30 20 

0734	20 20 20 21              DB 020h, 020h, 020h, 021h, 021h, 021h, 021h, 021h, 021h, 021h
	. . .
073C	21 21 

073E	21 21 21 21              DB 021h, 021h, 021h, 021h, 021h, 021h, 021h, 021h, 00Ah, 000h
	. . .
0746	0A 00 

0748	21 20 20 20     ljyqp:   DB 021h, 020h, 020h, 020h, 020h, 020h, 020h, 020h, 020h, 020h
	. . .
0750	20 20 

0752	20 20 20 20              DB 020h, 020h, 020h, 020h, 020h, 020h, 020h, 020h, 020h, 020h
	. . .
075A	20 20 

075C	20 20 20 20              DB 020h, 020h, 020h, 020h, 020h, 020h, 020h, 020h, 020h, 020h
	. . .
0764	20 20 

0766	20 20 20 20              DB 020h, 020h, 020h, 020h, 020h, 020h, 020h, 020h, 020h, 020h
	. . .
076E	20 20 

0770	20 20 20 20              DB 020h, 020h, 020h, 020h, 020h, 020h, 020h, 021h, 00Ah, 000h
	. . .
0778	0A 00 

077A	21 21 21 21     lnrmd:   DB 021h, 021h, 021h, 021h, 021h, 021h, 021h, 021h, 021h, 021h
	. . .
0782	21 21 

0784	21 21 21 21              DB 021h, 021h, 021h, 021h, 021h, 021h, 021h, 021h, 021h, 021h
	. . .
078C	21 21 

078E	21 21 21 21              DB 021h, 021h, 021h, 021h, 021h, 021h, 021h, 021h, 021h, 021h
	. . .
0796	21 21 

0798	21 21 21 21              DB 021h, 021h, 021h, 021h, 021h, 021h, 021h, 021h, 021h, 021h
	. . .
07A0	21 21 

07A2	21 21 21 21              DB 021h, 021h, 021h, 021h, 021h, 021h, 021h, 021h, 00Ah, 000h
	. . .
07AA	0A 00 

07AC	53 4B 4F 52     ljvpa:   DB 053h, 04Bh, 04Fh, 052h, 04Fh, 053h, 054h, 058h, 020h, 02Dh
	. . .
07B4	20 2D 

07B6	20 31 00                 DB 020h, 031h, 000h
07B9	64 64 64 64     ljmkg:   DB 064h, 064h, 064h, 064h, 064h, 064h, 064h, 064h, 064h, 064h
	. . .
07C1	64 64 

07C3	64 64 64 64              DB 064h, 064h, 064h, 064h, 064h, 064h, 064h, 00Ah, 00Bh, 00Bh
	. . .
07CB	0B 0B 

07CD	0B 20 20 64              DB 00Bh, 020h, 020h, 064h, 064h, 049h, 047h, 052h, 041h, 064h
	. . .
07D5	41 64 

07D7	4F 4B 4F 4E              DB 04Fh, 04Bh, 04Fh, 04Eh, 05Eh, 045h, 04Eh, 041h, 064h, 064h
	. . .
07DF	64 64 

07E1	0A 0B 0B 0B              DB 00Ah, 00Bh, 00Bh, 00Bh, 020h, 020h, 064h, 064h, 064h, 064h
	. . .
07E9	64 64 

07EB	64 64 64 64              DB 064h, 064h, 064h, 064h, 064h, 064h, 064h, 064h, 064h, 064h
	. . .
07F3	64 64 

07F5	64 64 64 00              DB 064h, 064h, 064h, 000h
07F9	01 00           ljmkk:   DB 001h, 000h
07FB	00              lnfja:   DB 000h
07FC	06              ljvms:   DB 006h
07FD	96 79           ljjjq:   DB 096h, 079h
07FF	8C 79           lncig:   DB 08Ch, 079h
0801	00              ljmrh:   DB 000h
0802	80              lnrsz:   DB 080h
0803	41              lnfpx:   DB 041h
0804	0B              ljvtp:   DB 00Bh
0805	00              ljjqn:   DB 000h
0806	00 0F           lnosf:   DB 000h, 00Fh
0808	14              ljykn:   DB 014h
0809	00              ljmhl:   DB 000h
080A	00              lnrjd:   DB 000h
080B	00              lnfgb:   DB 000h
080C	00              ljvjt:   DB 000h
080D	01              ljjgr:   DB 001h
080E	00 CD E1 0D     lnoij:   DB 000h, 0CDh, 0E1h, 00Dh, 0D6h, 031h, 0FAh, 000h, 081h, 0FEh
	. . .
0816	81 FE 

0818	03 32 12 10              DB 003h, 032h, 012h, 010h, 0FAh, 02Fh, 008h, 021h
	. . .
081C	FA 2F 08 21 

0820	00 00 00 00     ljytt:   DB 000h, 000h, 000h, 000h, 000h, 000h, 000h, 000h, 0FFh, 0FFh
	. . .
0828	FF FF 

082A	FF FF FF FF              DB 0FFh, 0FFh, 0FFh, 0FFh, 0FFh, 0FFh, 03Ch, 042h, 099h, 0BDh
	. . .
0832	99 BD 

0834	BD 99 42 3C              DB 0BDh, 099h, 042h, 03Ch, 049h, 092h, 024h, 0C9h, 092h, 024h
	. . .
083C	92 24 

083E	49 92 00 00              DB 049h, 092h, 000h, 000h, 001h, 002h, 007h, 007h, 00Fh, 00Fh
	. . .
0846	0F 0F 

0848	7F 83 05 09              DB 07Fh, 083h, 005h, 009h, 0F1h, 0F3h, 0F3h, 0F7h, 01Eh, 026h
	. . .
0850	1E 26 

0852	4C 94 E8 C8              DB 04Ch, 094h, 0E8h, 0C8h, 0CCh, 094h, 01Eh, 01Eh, 03Ch, 03Dh
	. . .
085A	3C 3D 

085C	7A 7C F8 F0              DB 07Ah, 07Ch, 0F8h, 0F0h, 0F7h, 0FFh, 0FFh, 0F7h, 0F7h, 0F7h
	. . .
0864	F7 F7 

0866	FB F1 A2 42              DB 0FBh, 0F1h, 0A2h, 042h, 081h, 082h, 084h, 0C8h, 0D0h, 0E0h
	. . .
086E	D0 E0 

0870	3C 42 99 A1              DB 03Ch, 042h, 099h, 0A1h, 0A1h, 099h, 042h, 03Ch, 008h, 004h
	. . .
0878	08 04 

087A	03 C3 FC 3C              DB 003h, 0C3h, 0FCh, 03Ch, 044h, 022h, 018h, 024h, 042h, 081h
	. . .
0882	42 81 

0884	A5 81 42 3C              DB 0A5h, 081h, 042h, 03Ch, 038h, 044h, 092h, 081h, 081h, 092h
	. . .
088C	81 92 

088E	44 38 3C 42              DB 044h, 038h, 03Ch, 042h, 081h, 0A5h, 081h, 042h, 024h, 018h
	. . .
0896	24 18 

0898	1C 22 49 81              DB 01Ch, 022h, 049h, 081h, 081h, 049h, 022h, 01Ch, 0FEh, 082h
	. . .
08A0	FE 82 

08A2	82 82 C2 C2              DB 082h, 082h, 0C2h, 0C2h, 0C2h, 0FEh, 008h, 008h, 018h, 018h
	. . .
08AA	18 18 

08AC	18 18 18 18              DB 018h, 018h, 018h, 018h, 07Eh, 002h, 002h, 0FEh, 080h, 0C0h
	. . .
08B4	80 C0 

08B6	C2 FE 3E 02              DB 0C2h, 0FEh, 03Eh, 002h, 002h, 03Eh, 002h, 006h, 006h, 0FEh
	. . .
08BE	06 FE 

08C0	82 82 C2 C2              DB 082h, 082h, 0C2h, 0C2h, 0FEh, 006h, 006h, 006h, 0FCh, 080h
	. . .
08C8	FC 80 

08CA	80 FE 02 06              DB 080h, 0FEh, 002h, 006h, 086h, 0FEh, 0F8h, 0C8h, 0C0h, 0FEh
	. . .
08D2	C0 FE 

08D4	82 86 86 FE              DB 082h, 086h, 086h, 0FEh, 0FEh, 082h, 002h, 002h, 006h, 006h
	. . .
08DC	06 06 

08DE	06 06 7C 64              DB 006h, 006h, 07Ch, 064h, 064h, 0FEh, 082h, 0C2h, 0C2h, 0FEh
	. . .
08E6	C2 FE 

08E8	FE 82 C2 C2              DB 0FEh, 082h, 0C2h, 0C2h, 0FEh, 006h, 026h, 03Eh, 000h, 018h
	. . .
08F0	00 18 

08F2	18 00 00 18              DB 018h, 000h, 000h, 018h, 018h, 000h, 000h, 000h, 030h, 048h
	. . .
08FA	30 48 

08FC	85 02 00 00              DB 085h, 002h, 000h, 000h, 008h, 004h, 008h, 010h, 020h, 020h
	. . .
0904	20 20 

0906	10 08 00 00              DB 010h, 008h, 000h, 000h, 000h, 07Eh, 07Eh, 000h, 000h, 000h
	. . .
090E	00 00 

0910	00 00 00 00              DB 000h, 000h, 000h, 000h, 000h, 038h, 038h, 038h, 0FEh, 006h
	. . .
0918	FE 06 

091A	02 1E 30 30              DB 002h, 01Eh, 030h, 030h, 000h, 030h, 09Eh, 092h, 092h, 0F2h
	. . .
0922	92 F2 

0924	96 D6 D6 DE              DB 096h, 0D6h, 0D6h, 0DEh, 03Eh, 022h, 022h, 0FEh, 082h, 0C2h
	. . .
092C	82 C2 

092E	C2 C2 F8 80              DB 0C2h, 0C2h, 0F8h, 080h, 080h, 0FEh, 082h, 0C2h, 0C2h, 0FEh
	. . .
0936	C2 FE 

0938	84 84 84 84              DB 084h, 084h, 084h, 084h, 0C4h, 0C4h, 0C4h, 0FEh, 01Ch, 014h
	. . .
0940	1C 14 

0942	24 44 64 64              DB 024h, 044h, 064h, 064h, 064h, 0FEh, 0FEh, 080h, 080h, 0F8h
	. . .
094A	80 F8 

094C	C0 C0 C0 FE              DB 0C0h, 0C0h, 0C0h, 0FEh, 0FEh, 092h, 092h, 0D2h, 0D2h, 0FEh
	. . .
0954	D2 FE 

0956	10 20 FE 80              DB 010h, 020h, 0FEh, 080h, 080h, 080h, 0C0h, 0C0h, 0C0h, 0C0h
	. . .
095E	C0 C0 

0960	44 44 44 38              DB 044h, 044h, 044h, 038h, 044h, 0C6h, 0C6h, 0C6h, 082h, 086h
	. . .
0968	82 86 

096A	8A 92 A2 C6              DB 08Ah, 092h, 0A2h, 0C6h, 086h, 086h, 038h, 082h, 086h, 08Ah
	. . .
0972	86 8A 

0974	92 A6 C6 86              DB 092h, 0A6h, 0C6h, 086h, 088h, 088h, 088h, 0FEh, 0C2h, 0C2h
	. . .
097C	C2 C2 

097E	C2 C2 0E 12              DB 0C2h, 0C2h, 00Eh, 012h, 012h, 012h, 026h, 026h, 066h, 066h
	. . .
0986	66 66 

0988	82 C6 AA 92              DB 082h, 0C6h, 0AAh, 092h, 0C2h, 0C2h, 0C2h, 0C2h, 082h, 082h
	. . .
0990	82 82 

0992	82 FE C2 C2              DB 082h, 0FEh, 0C2h, 0C2h, 0C2h, 0C2h, 0FEh, 08Eh, 086h, 082h
	. . .
099A	86 82 

099C	82 82 82 FE              DB 082h, 082h, 082h, 0FEh, 0FEh, 082h, 082h, 082h, 0C2h, 0C2h
	. . .
09A4	C2 C2 

09A6	C2 C2 FE 82              DB 0C2h, 0C2h, 0FEh, 082h, 0C2h, 0C2h, 0FEh, 026h, 046h, 086h
	. . .
09AE	46 86 

09B0	FE 82 C2 C2              DB 0FEh, 082h, 0C2h, 0C2h, 0FEh, 080h, 080h, 080h, 0FEh, 080h
	. . .
09B8	FE 80 

09BA	80 80 C0 C0              DB 080h, 080h, 0C0h, 0C0h, 0C0h, 0FEh, 0FEh, 010h, 010h, 010h
	. . .
09C2	10 10 

09C4	18 18 18 18              DB 018h, 018h, 018h, 018h, 082h, 082h, 0C2h, 0C2h, 0FEh, 002h
	. . .
09CC	FE 02 

09CE	62 7E 54 54              DB 062h, 07Eh, 054h, 054h, 054h, 07Ch, 054h, 0D6h, 0D6h, 0D6h
	. . .
09D6	D6 D6 

09D8	FC 84 84 FE              DB 0FCh, 084h, 084h, 0FEh, 0C2h, 0C2h, 0C2h, 0FEh, 080h, 080h
	. . .
09E0	80 80 

09E2	80 FE 82 C2              DB 080h, 0FEh, 082h, 0C2h, 0C2h, 0FEh, 082h, 082h, 082h, 0FAh
	. . .
09EA	82 FA 

09EC	8A CA CA FA              DB 08Ah, 0CAh, 0CAh, 0FAh, 0F8h, 018h, 018h, 07Eh, 002h, 006h
	. . .
09F4	02 06 

09F6	86 FE 92 92              DB 086h, 0FEh, 092h, 092h, 092h, 092h, 0D2h, 0D2h, 0D2h, 0FEh
	. . .
09FE	D2 FE 

0A00	FE 82 02 1E              DB 0FEh, 082h, 002h, 01Eh, 006h, 006h, 086h, 0FEh, 094h, 094h
	. . .
0A08	94 94 

0A0A	94 94 D4 D4              DB 094h, 094h, 0D4h, 0D4h, 0D4h, 0FEh, 082h, 082h, 0C2h, 0C2h
	. . .
0A12	C2 C2 

0A14	FE 06 06 06              DB 0FEh, 006h, 006h, 006h, 0C0h, 040h, 040h, 07Eh, 042h, 062h
	. . .
0A1C	42 62 

0A1E	62 7E 3C 66              DB 062h, 07Eh, 03Ch, 066h, 0E7h, 0FFh, 0AFh, 007h, 056h, 03Ch
	. . .
0A26	56 3C 

0A28	18 18 18 18              DB 018h, 018h, 018h, 018h, 018h, 018h, 018h, 018h, 042h, 024h
	. . .
0A30	42 24 

0A32	24 42 A5 99              DB 024h, 042h, 0A5h, 099h, 0A5h, 07Eh, 004h, 068h, 09Eh, 081h
	. . .
0A3A	9E 81 

0A3C	81 82 44 38              DB 081h, 082h, 044h, 038h, 000h, 000h, 000h, 000h, 000h, 000h
	. . .
0A44	00 00 

0A46	00 00 08 18              DB 000h, 000h, 008h, 018h, 018h, 0FFh, 0FFh, 000h, 000h, 000h
	. . .
0A4E	00 00 

0A50	00 00 FF FF              DB 000h, 000h, 0FFh, 0FFh, 000h, 000h, 0FFh, 0FFh, 000h, 000h
	. . .
0A58	00 00 

0A5A	FF FF 00 00              DB 0FFh, 0FFh, 000h, 000h, 0FFh, 0FFh, 0FFh, 0FFh, 000h, 000h
	. . .
0A62	00 00 

0A64	FF FF 00 00              DB 0FFh, 0FFh, 000h, 000h, 0FFh, 0FFh, 000h, 000h, 0FFh, 0FFh
	. . .
0A6C	FF FF 

0A6E	00 00 04 10              DB 000h, 000h, 004h, 010h, 07Eh, 0B0h, 077h, 021h, 002h, 010h
	. . .
0A76	02 10 

0A78	7E 3C 27 77              DB 07Eh, 03Ch, 027h, 077h, 0E1h, 0C9h, 006h, 004h
	. . .
0A7C	E1 C9 06 04 

	                END
Labels:
end                     0A80
ldgqd                   FF01	ldsss                   FFE0
ldstf                   FF00	ldsyd                   F700
lgozx                   C037	lgpdp                   C427
lgwbe                   FFFF	lgzot                   FF03
lhlrv                   FF02	ljjgr                   080D
ljjig                   03BD	ljjii                   02FD
ljjiu                   029D	ljjjq                   07FD
ljjkj                   041D	ljjlj                   030D
ljjqn                   0805	ljjsn                   0075
ljjuq                   02E5	ljjuw                   01A5
ljjwq                   0485	ljmhl                   0809
ljmiz                   0239	ljmjb                   0339
ljmjp                   0219	ljmkg                   07B9
ljmkk                   07F9	ljmkn                   0439
ljmrh                   0801	ljmvj                   0321
ljmwy                   04E1	ljmxn                   0501
ljmxo                   04C1	ljvjt                   080C
ljvls                   00FC	ljvmb                   025C
ljvmc                   03DC	ljvme                   009C
ljvms                   07FC	ljvnx                   026C
ljvob                   002C	ljvpa                   07AC
ljvtp                   0804	ljvvd                   0234
ljvwf                   0054	ljvwq                   04B4
ljvxh                   0414	ljvyf                   0204
ljvyi                   02C4	ljvyk                   03C4
ljvym                   0084	ljvzt                   0404
ljykn                   0808	ljymn                   0078
ljymx                   0358	ljyne                   01D8
ljyor                   0268	ljypi                   03C8
ljyqp                   0748	ljytt                   0820
ljyua                   0A80	ljyww                   0190
ljyxk                   04B0	ljyyn                   0260
ljyzh                   0000	lkahv                   1900
lkamq                   1080	lkfau                   2080
lkytv                   5700	lnchj                   017F
lnchl                   021F	lncig                   07FF
lncjh                   022F	lncju                   01EF
lncku                   04AF	lncqx                   0377
lncrh                   0217	lncsj                   0477
lncte                   03A7	lncvh                   0407
lndsr                   180F	lndxp                   100F
lnfgb                   080B	lnfhu                   03FB
lnfie                   029B	lnfil                   035B
lnfir                   005B	lnfja                   07FB
lnfpx                   0803	lnfrt                   0033
lnfrw                   00F3	lnfsc                   0393
lnhhj                   1323	lnisl                   2377
lnjsg                   3FFF	lnoij                   080E
lnoll                   043E	lnomv                   006E
lnomy                   028E	lnonh                   000E
lnoor                   044E	lnosf                   0806
lnovr                   0716	lnoyn                   0446
lnqat                   110E	lnrjd                   080A
lnrla                   01BA	lnrli                   039A
lnrmd                   077A	lnrme                   04BA
lnrmu                   049A	lnrnx                   024A
lnrnz                   034A	lnrov                   046A
lnrsz                   0802	lnruw                   01B2
lnrwr                   0412	lnrxf                   0362
lnrzc                   0482	
