	                ;*********************************************************************************************************
	                ; 
	                ; Autogenerated by DizAssembler:
	                ;   https://github.com/codenjoyme/8080-emulator/blob/master/src/main/java/spec/assembler/DizAssembler.java
	                ; From: src/main/resources/lik/apps/tetris1/tetris1.rks
	                ; In test: DizAssemblerTest.testDizAssembly()
	                ; 
	                ;*********************************************************************************************************
	                
	                         CPU  8080
	                         .ORG 00000h
	                lngzj    EQU 0170Bh
	                ljxfv    EQU 01D14h
	                lnivp    EQU 02007h
	                lnlnt    EQU 0240Bh
	                ljsyr    EQU 02601h
	                lnlxh    EQU 02603h
	                ljpxx    EQU 02605h
	                lnuzq    EQU 02786h
	                lnupu    EQU 0278Eh
	                ljpog    EQU 027CDh
	                lnjub    EQU 03A4Fh
	                lnndh    EQU 03E13h
	                lkxfl    EQU 04000h
	                louis    EQU 077AEh
	                lolif    EQU 07A13h
	                lolih    EQU 07B13h
	                lcncd    EQU 08100h
	                lcjko    EQU 08FFCh
	                lcopl    EQU 09000h
	                lclor    EQU 09004h
	                lghbg    EQU 090FAh
	                lgeam    EQU 090FEh
	                lcocx    EQU 09318h
	                lcoej    EQU 09418h
	                lcoeb    EQU 09618h
	                lcojx    EQU 09820h
	                lckxn    EQU 0991Ch
	                lcojy    EQU 099A0h
	                lcoks    EQU 099C0h
	                lcsxv    EQU 0AB20h
	                lcswp    EQU 0AF30h
	                lfymt    EQU 0B707h
	                lctzs    EQU 0B898h
	                lctzv    EQU 0B918h
	                lctzn    EQU 0BB18h
	                lcuaz    EQU 0BC18h
	                lcunb    EQU 0BF00h
	                ldlft    EQU 0C010h
	                lgozx    EQU 0C037h
	                lhatc    EQU 0C0BEh
	                lgozr    EQU 0C337h
	                lgpdp    EQU 0C427h
	                lgouq    EQU 0CAB7h
	                ldstf    EQU 0FF00h
	                ldgqd    EQU 0FF01h
	                lhlrv    EQU 0FF02h
	                lgzot    EQU 0FF03h
	                ldsss    EQU 0FFE0h
	                ldsqg    EQU 0FFF0h
	                lgwla    EQU 0FFF7h
	                lgwbe    EQU 0FFFFh
0000	C3 00 12                 JMP lkamj
0003	00 00                    DB 000h, 000h
0005	21 B4 0D        ljjvl:   LXI H,ljvru
0008	36 2B                    MVI M,02Bh
000A	23                       INX H
000B	3E 80                    MVI A,080h
000D	36 00           ljjlp:   MVI M,000h
000F	23                       INX H
0010	3D                       DCR A
0011	C2 0D 00                 JNZ ljjlp
0014	AF              ljvwb:   XRA A
0015	32 CB 0A                 STA lnffw
0018	32 C3 0A                 STA lnfps
001B	32 CE 0A                 STA lnoie
001E	32 CA 0A                 STA lnriy
0021	21 00 40                 LXI H,lkxfl
0024	22 E6 0A                 SHLD lnork
0027	32 E8 0A                 STA ljyjs
002A	21 00 00                 LXI H,00000h
002D	22 E9 0A                 SHLD ljmgq
0030	22 EA 0A                 SHLD lnrii
0033	22 D8 0A                 SHLD ljyhw
0036	57                       MOV D,A
0037	01 00 00                 LXI B,00000h
003A	21 FC 07                 LXI H,ljvms
003D	CD F6 06                 CALL lnovc
0040	21 DE 08                 LXI H,lnoga
0043	01 05 00                 LXI B,00005h
0046	16 14                    MVI D,014h
0048	CD F6 06                 CALL lnovc
004B	16 00                    MVI D,000h
004D	21 0B 09                 LXI H,lnfgd
0050	CD F6 06                 CALL lnovc
0053	21 BD 0D                 LXI H,ljjew
0056	1E 01                    MVI E,001h
0058	D5              ljynd:   PUSH D
0059	E5                       PUSH H
005A	01 0B 17                 LXI B,lngzj
005D	7B                       MOV A,E
005E	C6 30                    ADI 030h
0060	CD 0E 07                 CALL lnooh
0063	3E 3E                    MVI A,03Eh
0065	CD 0E 07                 CALL lnooh
0068	16 00                    MVI D,000h
006A	CD F6 06                 CALL lnovc
006D	21 BB 0A                 LXI H,lnfcq
0070	CD F6 06                 CALL lnovc
0073	E1                       POP H
0074	E5                       PUSH H
0075	11 09 00                 LXI D,00009h
0078	19                       DAD D
0079	01 0B 24                 LXI B,lnlnt
007C	CD D3 05                 CALL lnftu
007F	E1                       POP H
0080	11 0C 00                 LXI D,0000Ch
0083	19                       DAD D
0084	3A C3 0A                 LDA lnfps
0087	C6 0E                    ADI 00Eh
0089	32 C3 0A                 STA lnfps
008C	D1                       POP D
008D	1C                       INR E
008E	7B                       MOV A,E
008F	FE 0A                    CPI 00Ah
0091	C2 58 00                 JNZ ljynd
0094	AF                       XRA A
0095	32 C3 0A                 STA lnfps
0098	21 55 0A                 LXI H,ljjnx
009B	16 00                    MVI D,000h
009D	CD F6 06                 CALL lnovc
00A0	01 07 20                 LXI B,lnivp
00A3	21 B4 0D                 LXI H,ljvru
00A6	16 09                    MVI D,009h
00A8	E5              ljyou:   PUSH H
00A9	21 10 C0                 LXI H,ldlft
00AC	22 FC 8F                 SHLD lcjko
00AF	E1                       POP H
00B0	3E 01                    MVI A,001h
00B2	CD F0 02                 CALL ljywa
00B5	CD 37 C3        ljjsi:   CALL lgozr
00B8	FE 0D                    CPI 00Dh
00BA	CA F7 00                 JZ lncrc
00BD	FE 08                    CPI 008h
00BF	CA E6 00                 JZ lnowq
00C2	15                       DCR D
00C3	14                       INR D
00C4	CA B5 00                 JZ ljjsi
00C7	FE 20                    CPI 020h
00C9	C2 D1 00                 JNZ ljmtw
00CC	3E 2B                    MVI A,02Bh
00CE	C3 DD 00                 JMP ljjjg
00D1	FE 41           ljmtw:   CPI 041h
00D3	DA B5 00                 JC ljjsi
00D6	FE 60                    CPI 060h
00D8	DA DD 00                 JC ljjjg
00DB	D6 20                    SUI 020h
00DD	77              ljjjg:   MOV M,A
00DE	CD 0E 07                 CALL lnooh
00E1	23                       INX H
00E2	15                       DCR D
00E3	C3 A8 00                 JMP ljyou
00E6	7A              lnowq:   MOV A,D
00E7	FE 09                    CPI 009h
00E9	CA B5 00                 JZ ljjsi
00EC	3E 0B                    MVI A,00Bh
00EE	CD F0 02                 CALL ljywa
00F1	05                       DCR B
00F2	14                       INR D
00F3	2B                       DCX H
00F4	C3 A8 00                 JMP ljyou
00F7	7A              lncrc:   MOV A,D
00F8	FE 09                    CPI 009h
00FA	C2 05 01                 JNZ ljjvn
00FD	16 00                    MVI D,000h
00FF	CD F6 06                 CALL lnovc
0102	C3 0C 01                 JMP ljvot
0105	36 00           ljjvn:   MVI M,000h
0107	3E 0B                    MVI A,00Bh
0109	CD F0 02                 CALL ljywa
010C	CD B1 03        ljvot:   CALL ljmsw
010F	CD 75 06                 CALL ljjtl
0112	FE 20                    CPI 020h
0114	C2 0C 01                 JNZ ljvot
0117	CD 2A 02        lncrr:   CALL lnrnd
011A	21 00 00                 LXI H,00000h
011D	22 DC 0A                 SHLD ljvhc
0120	22 DD 0A                 SHLD ljjea
0123	22 D8 0A                 SHLD ljyhw
0126	01 01 0C                 LXI B,ljmsn
0129	21 DC 0A                 LXI H,ljvhc
012C	CD C7 05                 CALL lncvm
012F	CD A8 05                 CALL ljyqc
0132	AF                       XRA A
0133	32 E4 0A                 STA ljvsu
0136	32 E3 0A                 STA lnfpc
0139	01 01 26                 LXI B,ljsyr
013C	CD DF 05                 CALL lncje
013F	21 E6 0A                 LXI H,lnork
0142	01 03 0C                 LXI B,lnfrd
0145	CD C7 05                 CALL lncvm
0148	3A CE 0A                 LDA lnoie
014B	01 03 26                 LXI B,lnlxh
014E	CD DF 05                 CALL lncje
0151	3A CE 0A                 LDA lnoie
0154	E6 0F                    ANI 00Fh
0156	06 07                    MVI B,007h
0158	3D                       DCR A
0159	C2 5E 01                 JNZ lnolb
015C	06 0E                    MVI B,00Eh
015E	3D              lnolb:   DCR A
015F	C2 64 01                 JNZ ljvyd
0162	06 15                    MVI B,015h
0164	78              ljvyd:   MOV A,B
0165	32 E5 0A                 STA ljjps
0168	21 20 01                 LXI H,00120h
016B	22 D4 0A                 SHLD ljvqy
016E	CD 5F 03        lnomx:   CALL lnchr
0171	CD C6 03                 CALL lnoxa
0174	AF                       XRA A
0175	32 D2 0A                 STA lnrqi
0178	3A CE 0A                 LDA lnoie
017B	E6 0F                    ANI 00Fh
017D	FE 03                    CPI 003h
017F	D2 8F 01                 JNC lnckg
0182	3C                       INR A
0183	4F                       MOV C,A
0184	3E 30                    MVI A,030h
0186	47                       MOV B,A
0187	0D              lncuc:   DCR C
0188	CA 91 01                 JZ ljmtu
018B	80                       ADD B
018C	C3 87 01                 JMP lncuc
018F	3E 60           lnckg:   MVI A,060h
0191	C6 00           ljmtu:   ADI 000h
0193	27                       DAA
0194	32 D1 0A                 STA ljmoq
0197	CD 9F 05                 CALL lncja
019A	CD 63 04        lnrlq:   CALL lnfvp
019D	3A D2 0A                 LDA lnrqi
01A0	B7                       ORA A
01A1	C2 9A 01                 JNZ lnrlq
01A4	3A C2 0A                 LDA lnrsu
01A7	B7                       ORA A
01A8	C2 B8 01                 JNZ ljymk
01AB	3A D1 0A                 LDA ljmoq
01AE	06 99                    MVI B,099h
01B0	80                       ADD B
01B1	27                       DAA
01B2	32 D1 0A                 STA ljmoq
01B5	CD 9F 05                 CALL lncja
01B8	CD 3F 06        ljymk:   CALL lncib
01BB	FE 10                    CPI 010h
01BD	CA 95 06                 JZ ljjtw
01C0	FE 04                    CPI 004h
01C2	CA B7 06                 JZ lncrw
01C5	FE 80                    CPI 080h
01C7	CA CE 06                 JZ lnooi
01CA	FE 20                    CPI 020h
01CC	CA C6 06                 JZ lnoye
01CF	FE 01                    CPI 001h
01D1	CA DC 01                 JZ ljvmk
01D4	FE 02                    CPI 002h
01D6	CA 00 81        lnouw:   JZ lcncd
01D9	C3 9A 01                 JMP lnrlq
01DC	2A D4 0A        ljvmk:   LHLD ljvqy
01DF	22 D6 0A                 SHLD lnopo
01E2	21 00 07                 LXI H,00700h
01E5	22 D4 0A                 SHLD ljvqy
01E8	AF                       XRA A
01E9	32 C3 0A                 STA lnfps
01EC	32 CA 0A                 STA lnriy
01EF	21 1C 0A        lncju:   LXI H,ljvgz
01F2	CD F6 06                 CALL lnovc
01F5	CD 3F 06                 CALL lncib
01F8	FE 01                    CPI 001h
01FA	CA 0B 02                 JZ lnfkr
01FD	21 32 0A                 LXI H,lnrpp
0200	CD F6 06                 CALL lnovc
0203	CD 3F 06                 CALL lncib
0206	FE 01                    CPI 001h
0208	C2 EF 01                 JNZ lncju
020B	21 27 0A        lnfkr:   LXI H,lncof
020E	CD F6 06                 CALL lnovc
0211	2A D6 0A                 LHLD lnopo
0214	22 D4 0A                 SHLD ljvqy
0217	C3 9A 01                 JMP lnrlq
021A	06 03           lnrlh:   MVI B,003h
021C	F5                       PUSH PSW
021D	F1              ljjiv:   POP PSW
021E	1A                       LDAX D
021F	BE                       CMP M
0220	C0                       RNZ
0221	F5                       PUSH PSW
0222	05                       DCR B
0223	23                       INX H
0224	13                       INX D
0225	C2 1D 02                 JNZ ljjiv
0228	F1                       POP PSW
0229	C9                       RET
022A	21 14 0C        lnrnd:   LXI H,ljvsj
022D	0E 1A                    MVI C,01Ah
022F	06 10           lncjh:   MVI B,010h
0231	11 0C 0B                 LXI D,ljvjn
0234	CD E7 02                 CALL lnctg
0237	0D                       DCR C
0238	C2 2F 02                 JNZ lncjh
023B	CD BF 02                 CALL lncgu
023E	21 3D 0A                 LXI H,ljjdh
0241	CD F6 06                 CALL lnovc
0244	3A CE 0A                 LDA lnoie
0247	01 11 0D                 LXI B,ljmqd
024A	CD DF 05                 CALL lncje
024D	21 4B 0A                 LXI H,lnffx
0250	CD F6 06                 CALL lnovc
0253	21 E6 0A                 LXI H,lnork
0256	01 13 09                 LXI B,lnfnn
0259	CD C7 05                 CALL lncvm
025C	21 FF FF                 LXI H,lgwbe
025F	CD DB 02                 CALL lnfii
0262	21 FF FF                 LXI H,lgwbe
0265	CD DB 02                 CALL lnfii
0268	21 FF FF                 LXI H,lgwbe
026B	CD DB 02                 CALL lnfii
026E	21 14 0C                 LXI H,ljvsj
0271	0E 19                    MVI C,019h
0273	06 10           lnfrp:   MVI B,010h
0275	11 FC 0A                 LXI D,ljvgm
0278	CD E7 02                 CALL lnctg
027B	0D                       DCR C
027C	C2 73 02                 JNZ lnfrp
027F	11 EC 0A                 LXI D,ljviy
0282	06 10                    MVI B,010h
0284	CD E7 02                 CALL lnctg
0287	3A CE 0A                 LDA lnoie
028A	E6 0F                    ANI 00Fh
028C	FE 03                    CPI 003h
028E	DA BF 02                 JC lncgu
0291	D6 03                    SUI 003h
0293	0F                       RRC
0294	0F                       RRC
0295	0F                       RRC
0296	11 00 00                 LXI D,00000h
0299	5F                       MOV E,A
029A	21 80 0E                 LXI H,ljyvg
029D	19                       DAD D
029E	11 A4 0C                 LXI D,ljvue
02A1	EB                       XCHG
02A2	06 10                    MVI B,010h
02A4	C5              ljvxo:   PUSH B
02A5	06 02                    MVI B,002h
02A7	1A              lnctc:   LDAX D
02A8	0E 08                    MVI C,008h
02AA	17              lnrnc:   RAL
02AB	D2 B0 02                 JNC ljyvw
02AE	36 02                    MVI M,002h
02B0	23              ljyvw:   INX H
02B1	0D                       DCR C
02B2	C2 AA 02                 JNZ lnrnc
02B5	05                       DCR B
02B6	13                       INX D
02B7	C2 A7 02                 JNZ lnctc
02BA	C1                       POP B
02BB	05                       DCR B
02BC	C2 A4 02                 JNZ ljvxo
02BF	AF              lncgu:   XRA A
02C0	32 CA 0A                 STA lnriy
02C3	32 C3 0A                 STA lnfps
02C6	01 00 00                 LXI B,00000h
02C9	CD E2 02        ljmme:   CALL lnrxc
02CC	7E                       MOV A,M
02CD	CD 3C 03                 CALL ljvlj
02D0	03                       INX B
02D1	21 A0 01                 LXI H,001A0h
02D4	CD 59 03                 CALL ljmjv
02D7	C2 C9 02                 JNZ ljmme
02DA	C9                       RET
02DB	2B              lnfii:   DCX H
02DC	7C                       MOV A,H
02DD	B5                       ORA L
02DE	C2 DB 02                 JNZ lnfii
02E1	C9                       RET
02E2	21 14 0C        lnrxc:   LXI H,ljvsj
02E5	09                       DAD B
02E6	C9                       RET
02E7	1A              lnctg:   LDAX D
02E8	77                       MOV M,A
02E9	13                       INX D
02EA	23                       INX H
02EB	05                       DCR B
02EC	C2 E7 02                 JNZ lnctg
02EF	C9                       RET
02F0	C5              ljywa:   PUSH B
02F1	D5                       PUSH D
02F2	E5                       PUSH H
02F3	F5                       PUSH PSW
02F4	78                       MOV A,B
02F5	C6 90                    ADI 090h
02F7	57                       MOV D,A
02F8	79                       MOV A,C
02F9	07                       RLC
02FA	07                       RLC
02FB	07                       RLC
02FC	4F                       MOV C,A
02FD	3A C3 0A                 LDA lnfps
0300	81                       ADD C
0301	5F                       MOV E,A
0302	F1                       POP PSW
0303	F5                       PUSH PSW
0304	6F                       MOV L,A
0305	26 00                    MVI H,000h
0307	29                       DAD H
0308	29                       DAD H
0309	29                       DAD H
030A	01 80 0F                 LXI B,ljyvi
030D	09                       DAD B
030E	EB                       XCHG
030F	3A CB 0A                 LDA lnffw
0312	B7                       ORA A
0313	CA 27 03        lnfsd:   JZ lnctf
0316	3D                       DCR A
0317	CA 20 03                 JZ ljyyl
031A	1A              lnrlj:   LDAX D
031B	AE                       XRA M
031C	77                       MOV M,A
031D	C3 37 03                 JMP lncqt
0320	01 07 00        ljyyl:   LXI B,00007h
0323	09                       DAD B
0324	C3 1A 03                 JMP lnrlj
0327	06 08           lnctf:   MVI B,008h
0329	1A              ljmln:   LDAX D
032A	4F                       MOV C,A
032B	3A CA 0A                 LDA lnriy
032E	A6                       ANA M
032F	A9                       XRA C
0330	77                       MOV M,A
0331	23                       INX H
0332	13                       INX D
0333	05                       DCR B
0334	C2 29 03                 JNZ ljmln
0337	F1              lncqt:   POP PSW
0338	E1                       POP H
0339	D1                       POP D
033A	C1                       POP B
033B	C9                       RET
033C	C5              ljvlj:   PUSH B
033D	D5                       PUSH D
033E	F5                       PUSH PSW
033F	79                       MOV A,C
0340	E6 0F                    ANI 00Fh
0342	C6 03                    ADI 003h
0344	57                       MOV D,A
0345	79                       MOV A,C
0346	E6 F0                    ANI 0F0h
0348	B0                       ORA B
0349	0F                       RRC
034A	0F                       RRC
034B	0F                       RRC
034C	0F                       RRC
034D	C6 05                    ADI 005h
034F	5F                       MOV E,A
0350	D5                       PUSH D
0351	C1                       POP B
0352	F1                       POP PSW
0353	CD F0 02                 CALL ljywa
0356	D1                       POP D
0357	C1                       POP B
0358	C9                       RET
0359	7C              ljmjv:   MOV A,H
035A	B8                       CMP B
035B	C0                       RNZ
035C	7D                       MOV A,L
035D	B9                       CMP C
035E	C9                       RET
035F	CD B1 03        lnchr:   CALL ljmsw
0362	3A E5 0A                 LDA ljjps
0365	4F                       MOV C,A
0366	7D                       MOV A,L
0367	B9              lnctj:   CMP C
0368	DA 6F 03                 JC lncjn
036B	91                       SUB C
036C	C3 67 03                 JMP lnctj
036F	07              lncjn:   RLC
0370	07                       RLC
0371	07                       RLC
0372	6F                       MOV L,A
0373	26 00                    MVI H,000h
0375	11 1C 0B                 LXI D,ljvhb
0378	19                       DAD D
0379	11 C4 0B                 LXI D,ljvtm
037C	0E 08                    MVI C,008h
037E	7E              lnokd:   MOV A,M
037F	06 08                    MVI B,008h
0381	17              ljmvy:   RAL
0382	F5                       PUSH PSW
0383	3E 00                    MVI A,000h
0385	17                       RAL
0386	12                       STAX D
0387	F1                       POP PSW
0388	13                       INX D
0389	05                       DCR B
038A	C2 81 03                 JNZ ljmvy
038D	23                       INX H
038E	0D                       DCR C
038F	C2 7E 03                 JNZ lnokd
0392	AF                       XRA A
0393	32 C2 0A                 STA lnrsu
0396	2A CC 0A                 LHLD ljvjo
0399	7C                       MOV A,H
039A	E6 03                    ANI 003h
039C	32 C4 0A                 STA ljvtk
039F	7C                       MOV A,H
03A0	0F                       RRC
03A1	0F                       RRC
03A2	E6 07                    ANI 007h
03A4	CA A8 03                 JZ ljyoo
03A7	3D                       DCR A
03A8	C6 03           ljyoo:   ADI 003h
03AA	6F                       MOV L,A
03AB	26 00                    MVI H,000h
03AD	22 C6 0A                 SHLD lnosa
03B0	C9                       RET
03B1	2A CC 0A        ljmsw:   LHLD ljvjo
03B4	0E 10                    MVI C,010h
03B6	7C              lnotu:   MOV A,H
03B7	29                       DAD H
03B8	E6 60                    ANI 060h
03BA	EA BE 03                 JPE lnojy
03BD	23                       INX H
03BE	0D              lnojy:   DCR C
03BF	C2 B6 03                 JNZ lnotu
03C2	22 CC 0A                 SHLD ljvjo
03C5	C9                       RET
03C6	CD D0 03        lnoxa:   CALL ljyws
03C9	CA 2F 04                 JZ lnckv
03CC	E1                       POP H
03CD	C3 6A 07                 JMP lnrop
03D0	CD 18 04        ljyws:   CALL ljyof
03D3	AF                       XRA A
03D4	32 D3 0A                 STA lnfng
03D7	CD ED 03                 CALL ljjkw
03DA	3A C2 0A                 LDA lnrsu
03DD	B7                       ORA A
03DE	CA E8 03                 JZ ljyos
03E1	01 10 00                 LXI B,00010h
03E4	09                       DAD B
03E5	CD ED 03                 CALL ljjkw
03E8	3A D3 0A        ljyos:   LDA lnfng
03EB	B7                       ORA A
03EC	C9                       RET
03ED	E5              ljjkw:   PUSH H
03EE	D5                       PUSH D
03EF	06 04                    MVI B,004h
03F1	0E 04           ljmta:   MVI C,004h
03F3	1A              lnfrq:   LDAX D
03F4	B7                       ORA A
03F5	CA 05 04                 JZ ljjwr
03F8	7E                       MOV A,M
03F9	B7                       ORA A
03FA	CA 05 04                 JZ ljjwr
03FD	3E 01                    MVI A,001h
03FF	32 D3 0A                 STA lnfng
0402	C3 15 04                 JMP ljjuf
0405	13              ljjwr:   INX D
0406	23                       INX H
0407	0D                       DCR C
0408	C2 F3 03                 JNZ lnfrq
040B	C5                       PUSH B
040C	01 0C 00                 LXI B,0000Ch
040F	09                       DAD B
0410	C1                       POP B
0411	05                       DCR B
0412	C2 F1 03                 JNZ ljmta
0415	D1              ljjuf:   POP D
0416	E1                       POP H
0417	C9                       RET
0418	21 C4 0B        ljyof:   LXI H,ljvtm
041B	3A C4 0A                 LDA ljvtk
041E	07                       RLC
041F	07                       RLC
0420	07                       RLC
0421	07                       RLC
0422	5F                       MOV E,A
0423	16 00                    MVI D,000h
0425	19                       DAD D
0426	EB                       XCHG
0427	2A C6 0A                 LHLD lnosa
042A	01 14 0C                 LXI B,ljvsj
042D	09                       DAD B
042E	C9                       RET
042F	CD 18 04        lnckv:   CALL ljyof
0432	2A C6 0A                 LHLD lnosa
0435	3A C2 0A                 LDA lnrsu
0438	32 C3 0A                 STA lnfps
043B	3E FF                    MVI A,0FFh
043D	32 CA 0A                 STA lnriy
0440	06 04                    MVI B,004h
0442	0E 04           lnrzh:   MVI C,004h
0444	C5              ljvzx:   PUSH B
0445	E5                       PUSH H
0446	C1                       POP B
0447	1A                       LDAX D
0448	B7                       ORA A
0449	CA 4F 04                 JZ lnclp
044C	CD 3C 03                 CALL ljvlj
044F	C5              lnclp:   PUSH B
0450	E1                       POP H
0451	C1                       POP B
0452	23                       INX H
0453	13                       INX D
0454	0D                       DCR C
0455	C2 44 04                 JNZ ljvzx
0458	C5                       PUSH B
0459	01 0C 00                 LXI B,0000Ch
045C	09                       DAD B
045D	C1                       POP B
045E	05                       DCR B
045F	C2 42 04                 JNZ lnrzh
0462	C9                       RET
0463	3E 02           lnfvp:   MVI A,002h
0465	32 CB 0A                 STA lnffw
0468	3A D2 0A                 LDA lnrqi
046B	B7                       ORA A
046C	CC 2F 04                 CZ lnckv
046F	3A C2 0A                 LDA lnrsu
0472	B7                       ORA A
0473	CA 9E 04                 JZ lnoma
0476	3C              lnovl:   INR A
0477	FE 08                    CPI 008h
0479	CA 90 04                 JZ ljyya
047C	32 C2 0A        ljvmz:   STA lnrsu
047F	3E 01                    MVI A,001h
0481	32 CB 0A                 STA lnffw
0484	3A D2 0A                 LDA lnrqi
0487	B7                       ORA A
0488	CC 2F 04                 CZ lnckv
048B	AF                       XRA A
048C	32 CB 0A                 STA lnffw
048F	C9                       RET
0490	2A C6 0A        ljyya:   LHLD lnosa
0493	01 10 00                 LXI B,00010h
0496	09                       DAD B
0497	22 C6 0A                 SHLD lnosa
049A	AF                       XRA A
049B	C3 7C 04                 JMP ljvmz
049E	2A C6 0A        lnoma:   LHLD lnosa
04A1	22 C8 0A                 SHLD ljyki
04A4	01 10 00                 LXI B,00010h
04A7	09                       DAD B
04A8	22 C6 0A                 SHLD lnosa
04AB	CD D0 03                 CALL ljyws
04AE	2A C8 0A                 LHLD ljyki
04B1	22 C6 0A                 SHLD lnosa
04B4	C2 BA 04                 JNZ lnrme
04B7	C3 76 04                 JMP lnovl
04BA	CD 18 04        lnrme:   CALL ljyof
04BD	06 04                    MVI B,004h
04BF	0E 04           lncii:   MVI C,004h
04C1	1A              ljmxo:   LDAX D
04C2	07                       RLC
04C3	B7                       ORA A
04C4	CA C8 04                 JZ ljyqu
04C7	77                       MOV M,A
04C8	23              ljyqu:   INX H
04C9	13                       INX D
04CA	0D                       DCR C
04CB	C2 C1 04                 JNZ ljmxo
04CE	C5                       PUSH B
04CF	01 0C 00                 LXI B,0000Ch
04D2	09                       DAD B
04D3	C1                       POP B
04D4	05                       DCR B
04D5	C2 BF 04                 JNZ lncii
04D8	AF                       XRA A
04D9	32 CB 0A                 STA lnffw
04DC	CD BF 02                 CALL lncgu
04DF	CD E5 04                 CALL ljjwe
04E2	C3 6E 01                 JMP lnomx
04E5	21 DE 0A        ljjwe:   LXI H,lnofs
04E8	11 D1 0A                 LXI D,ljmoq
04EB	CD B6 05                 CALL lnovi
04EE	01 01 0C                 LXI B,ljmsn
04F1	CD C7 05                 CALL lncvm
04F4	21 EB 0A                 LXI H,lnffg
04F7	11 D1 0A                 LXI D,ljmoq
04FA	CD B6 05                 CALL lnovi
04FD	01 03 14                 LXI B,lnhjl
0500	CD C7 05                 CALL lncvm
0503	AF                       XRA A
0504	32 E2 0A                 STA lnrse
0507	21 97 0D        lncvj:   LXI H,lncny
050A	CD FD 05        lnrpj:   CALL ljjjy
050D	01 F0 FF                 LXI B,ldsqg
0510	09                       DAD B
0511	01 17 0C                 LXI B,lncnx
0514	CD 59 03                 CALL ljmjv
0517	C2 0A 05                 JNZ lnrpj
051A	C5                       PUSH B
051B	E5                       PUSH H
051C	3A E2 0A                 LDA lnrse
051F	B7                       ORA A
0520	CA 9C 05                 JZ ljvnm
0523	47                       MOV B,A
0524	3A E3 0A                 LDA lnfpc
0527	80                       ADD B
0528	32 E3 0A                 STA lnfpc
052B	FE 08                    CPI 008h
052D	DA 51 05                 JC ljmvf
0530	D6 08                    SUI 008h
0532	32 E3 0A                 STA lnfpc
0535	3A E4 0A                 LDA ljvsu
0538	FE 08                    CPI 008h
053A	CA 51 05                 JZ ljmvf
053D	3C                       INR A
053E	32 E4 0A                 STA ljvsu
0541	01 01 26                 LXI B,ljsyr
0544	CD DF 05                 CALL lncje
0547	2A D4 0A                 LHLD ljvqy
054A	01 E0 FF                 LXI B,ldsss
054D	09                       DAD B
054E	22 D4 0A                 SHLD ljvqy
0551	3A E2 0A        ljmvf:   LDA lnrse
0554	06 01                    MVI B,001h
0556	3D                       DCR A
0557	CA 68 05                 JZ ljyqh
055A	06 03                    MVI B,003h
055C	3D                       DCR A
055D	CA 68 05                 JZ ljyqh
0560	06 06                    MVI B,006h
0562	3D                       DCR A
0563	CA 68 05                 JZ ljyqh
0566	06 10                    MVI B,010h
0568	78              ljyqh:   MOV A,B
0569	32 E0 0A                 STA ljyto
056C	11 E1 0A                 LXI D,ljmqm
056F	21 DE 0A                 LXI H,lnofs
0572	CD B6 05                 CALL lnovi
0575	01 01 0C                 LXI B,ljmsn
0578	CD C7 05                 CALL lncvm
057B	21 EB 0A                 LXI H,lnffg
057E	11 E1 0A                 LXI D,ljmqm
0581	CD B6 05                 CALL lnovi
0584	01 03 14                 LXI B,lnhjl
0587	CD C7 05                 CALL lncvm
058A	3A E2 0A                 LDA lnrse
058D	2A D8 0A                 LHLD ljyhw
0590	5F                       MOV E,A
0591	16 00                    MVI D,000h
0593	CD 9E 07                 CALL lnolu
0596	22 D8 0A                 SHLD ljyhw
0599	CD A8 05                 CALL ljyqc
059C	E1              ljvnm:   POP H
059D	C1                       POP B
059E	C9                       RET
059F	01 03 03        lncja:   LXI B,00303h
05A2	3A D1 0A                 LDA ljmoq
05A5	C3 DF 05                 JMP lncje
05A8	2A D8 0A        ljyqc:   LHLD ljyhw
05AB	01 05 26                 LXI B,ljpxx
05AE	7C                       MOV A,H
05AF	CD DF 05                 CALL lncje
05B2	7D                       MOV A,L
05B3	C3 DF 05                 JMP lncje
05B6	1A              lnovi:   LDAX D
05B7	86                       ADD M
05B8	27                       DAA
05B9	77                       MOV M,A
05BA	2B                       DCX H
05BB	1B                       DCX D
05BC	1A                       LDAX D
05BD	8E                       ADC M
05BE	27                       DAA
05BF	77                       MOV M,A
05C0	2B                       DCX H
05C1	1B                       DCX D
05C2	1A                       LDAX D
05C3	8E                       ADC M
05C4	27                       DAA
05C5	77                       MOV M,A
05C6	C9                       RET
05C7	1E 03           lncvm:   MVI E,003h
05C9	7E              ljmnu:   MOV A,M
05CA	CD DF 05                 CALL lncje
05CD	23                       INX H
05CE	1D                       DCR E
05CF	C2 C9 05                 JNZ ljmnu
05D2	C9                       RET
05D3	1E 03           lnftu:   MVI E,003h
05D5	7E              ljjuk:   MOV A,M
05D6	CD E8 05                 CALL ljyqg
05D9	23                       INX H
05DA	1D                       DCR E
05DB	C2 D5 05                 JNZ ljjuk
05DE	C9                       RET
05DF	F5              lncje:   PUSH PSW
05E0	AF                       XRA A
05E1	32 CA 0A                 STA lnriy
05E4	32 C3 0A                 STA lnfps
05E7	F1                       POP PSW
05E8	57              ljyqg:   MOV D,A
05E9	0F                       RRC
05EA	0F                       RRC
05EB	0F                       RRC
05EC	0F                       RRC
05ED	E6 0F                    ANI 00Fh
05EF	C6 30                    ADI 030h
05F1	CD 0E 07                 CALL lnooh
05F4	7A                       MOV A,D
05F5	E6 0F                    ANI 00Fh
05F7	C6 30                    ADI 030h
05F9	CD 0E 07                 CALL lnooh
05FC	C9                       RET
05FD	E5              ljjjy:   PUSH H
05FE	06 0A                    MVI B,00Ah
0600	7E              ljzaf:   MOV A,M
0601	B7                       ORA A
0602	CA 3D 06                 JZ ljjjl
0605	23                       INX H
0606	05                       DCR B
0607	C2 00 06                 JNZ ljzaf
060A	E1                       POP H
060B	E5                       PUSH H
060C	E5              ljvpp:   PUSH H
060D	01 F0 FF                 LXI B,ldsqg
0610	E5                       PUSH H
0611	D1                       POP D
0612	09                       DAD B
0613	06 0A                    MVI B,00Ah
0615	7E              ljjtx:   MOV A,M
0616	12                       STAX D
0617	23                       INX H
0618	13                       INX D
0619	05                       DCR B
061A	C2 15 06                 JNZ ljjtx
061D	E1                       POP H
061E	01 17 0C                 LXI B,lncnx
0621	CD 59 03                 CALL ljmjv
0624	CA 2E 06                 JZ lnonp
0627	01 F0 FF                 LXI B,ldsqg
062A	09                       DAD B
062B	C3 0C 06                 JMP ljvpp
062E	CD BF 02        lnonp:   CALL lncgu
0631	3A E2 0A                 LDA lnrse
0634	3C                       INR A
0635	32 E2 0A                 STA lnrse
0638	E1                       POP H
0639	E1                       POP H
063A	C3 07 05                 JMP lncvj
063D	E1              ljjjl:   POP H
063E	C9                       RET
063F	2A D4 0A        lncib:   LHLD ljvqy
0642	AF                       XRA A
0643	32 DB 0A                 STA lnfdk
0646	CD 75 06        lnoyf:   CALL ljjtl
0649	B7                       ORA A
064A	C2 53 06                 JNZ lnftl
064D	32 DA 0A                 STA lnrgm
0650	C3 6A 06                 JMP lnron
0653	47              lnftl:   MOV B,A
0654	3A DA 0A                 LDA lnrgm
0657	B7                       ORA A
0658	78                       MOV A,B
0659	32 DA 0A                 STA lnrgm
065C	C2 6A 06                 JNZ lnron
065F	3A DB 0A                 LDA lnfdk
0662	B7                       ORA A
0663	C2 6A 06                 JNZ lnron
0666	78                       MOV A,B
0667	32 DB 0A                 STA lnfdk
066A	2B              lnron:   DCX H
066B	7C                       MOV A,H
066C	B5                       ORA L
066D	C2 46 06                 JNZ lnoyf
0670	3A DB 0A                 LDA lnfdk
0673	B7                       ORA A
0674	C9                       RET
0675	3E 91           ljjtl:   MVI A,091h
0677	32 03 FF                 STA lgzot
067A	3E FB                    MVI A,0FBh
067C	32 01 FF                 STA ldgqd
067F	0E 0F                    MVI C,00Fh
0681	0D              ljmxc:   DCR C
0682	C2 81 06                 JNZ ljmxc
0685	3A 00 FF                 LDA ldstf
0688	E6 3F                    ANI 03Fh
068A	47                       MOV B,A
068B	3A 02 FF                 LDA lhlrv
068E	E6 03                    ANI 003h
0690	0F                       RRC
0691	0F                       RRC
0692	B0                       ORA B
0693	2F                       CMA
0694	C9                       RET
0695	CD 2F 04        ljjtw:   CALL lnckv
0698	2A C6 0A                 LHLD lnosa
069B	22 C8 0A                 SHLD ljyki
069E	01 FF FF                 LXI B,lgwbe
06A1	09              ljmwm:   DAD B
06A2	22 C6 0A                 SHLD lnosa
06A5	CD D0 03                 CALL ljyws
06A8	C2 AE 06                 JNZ lnono
06AB	C3 E7 06                 JMP lncum
06AE	2A C8 0A        lnono:   LHLD ljyki
06B1	22 C6 0A                 SHLD lnosa
06B4	C3 E7 06                 JMP lncum
06B7	CD 2F 04        lncrw:   CALL lnckv
06BA	2A C6 0A                 LHLD lnosa
06BD	22 C8 0A                 SHLD ljyki
06C0	01 01 00                 LXI B,00001h
06C3	C3 A1 06                 JMP ljmwm
06C6	3E 01           lnoye:   MVI A,001h
06C8	32 D2 0A                 STA lnrqi
06CB	C3 9A 01                 JMP lnrlq
06CE	CD 2F 04        lnooi:   CALL lnckv
06D1	3A C4 0A                 LDA ljvtk
06D4	32 C5 0A                 STA ljjqi
06D7	3C                       INR A
06D8	FE 04                    CPI 004h
06DA	DA DE 06                 JC lnolw
06DD	AF                       XRA A
06DE	32 C4 0A        lnolw:   STA ljvtk
06E1	CD D0 03                 CALL ljyws
06E4	C2 ED 06                 JNZ ljjma
06E7	CD 2F 04        lncum:   CALL lnckv
06EA	C3 9A 01                 JMP lnrlq
06ED	3A C5 0A        ljjma:   LDA ljjqi
06F0	32 C4 0A                 STA ljvtk
06F3	C3 E7 06                 JMP lncum
06F6	E5              lnovc:   PUSH H
06F7	C5                       PUSH B
06F8	7E              ljynk:   MOV A,M
06F9	B7                       ORA A
06FA	CA 04 07                 JZ ljvzn
06FD	CD 0E 07                 CALL lnooh
0700	23                       INX H
0701	C3 F8 06                 JMP ljynk
0704	7A              ljvzn:   MOV A,D
0705	B7                       ORA A
0706	C1                       POP B
0707	E1                       POP H
0708	C8                       RZ
0709	15                       DCR D
070A	0C                       INR C
070B	C3 F6 06                 JMP lnovc
070E	FE 20           lnooh:   CPI 020h
0710	D2 3C 07                 JNC ljvmp
0713	FE 1F                    CPI 01Fh
0715	CA 62 07                 JZ lnryl
0718	FE 08                    CPI 008h
071A	CA 4E 07                 JZ lnool
071D	FE 18                    CPI 018h
071F	CA 50 07                 JZ ljyxz
0722	FE 19                    CPI 019h
0724	CA 54 07                 JZ ljvxf
0727	FE 1A                    CPI 01Ah
0729	CA 52 07                 JZ lnrwp
072C	FE 0A                    CPI 00Ah
072E	CA 59 07                 JZ ljmlb
0731	FE 0D                    CPI 00Dh
0733	CA 56 07                 JZ lnovv
0736	FE 07                    CPI 007h
0738	CA 5D 07                 JZ ljjkh
073B	C9                       RET
073C	F5              ljvmp:   PUSH PSW
073D	E6 7F                    ANI 07Fh
073F	D6 20                    SUI 020h
0741	CD F0 02                 CALL ljywa
0744	F1                       POP PSW
0745	FE 80                    CPI 080h
0747	D2 4C 07                 JNC ljvpv
074A	04                       INR B
074B	C9                       RET
074C	0C              ljvpv:   INR C
074D	C9                       RET
074E	05              lnool:   DCR B
074F	C9                       RET
0750	04              ljyxz:   INR B
0751	C9                       RET
0752	0C              lnrwp:   INR C
0753	C9                       RET
0754	0D              ljvxf:   DCR C
0755	C9                       RET
0756	06 00           lnovv:   MVI B,000h
0758	C9                       RET
0759	0C              ljmlb:   INR C
075A	06 00                    MVI B,000h
075C	C9                       RET
075D	23              ljjkh:   INX H
075E	46                       MOV B,M
075F	23                       INX H
0760	4E                       MOV C,M
0761	C9                       RET
0762	C5              lnryl:   PUSH B
0763	0E 1F                    MVI C,01Fh
0765	CD 37 C0                 CALL lgozx
0768	C1                       POP B
0769	C9                       RET
076A	11 E6 0A        lnrop:   LXI D,lnork
076D	21 DC 0A                 LXI H,ljvhc
0770	CD 1A 02                 CALL lnrlh
0773	D2 A9 07                 JNC ljmms
0776	3A CE 0A                 LDA lnoie
0779	C6 01                    ADI 001h
077B	27                       DAA
077C	32 CE 0A                 STA lnoie
077F	E6 0F                    ANI 00Fh
0781	C2 17 01                 JNZ lncrr
0784	21 40 00                 LXI H,00040h
0787	11 15 00                 LXI D,00015h
078A	3A CE 0A                 LDA lnoie
078D	CD 9E 07        ljjmo:   CALL lnolu
0790	D6 10                    SUI 010h
0792	C2 8D 07                 JNZ ljjmo
0795	7C                       MOV A,H
0796	65                       MOV H,L
0797	6F                       MOV L,A
0798	22 E6 0A                 SHLD lnork
079B	C3 17 01                 JMP lncrr
079E	F5              lnolu:   PUSH PSW
079F	7D                       MOV A,L
07A0	83                       ADD E
07A1	27                       DAA
07A2	6F                       MOV L,A
07A3	7C                       MOV A,H
07A4	8A                       ADC D
07A5	27                       DAA
07A6	67                       MOV H,A
07A7	F1                       POP PSW
07A8	C9                       RET
07A9	21 C6 0D        ljmms:   LXI H,lnotq
07AC	16 09                    MVI D,009h
07AE	E5              lnonq:   PUSH H
07AF	D5                       PUSH D
07B0	11 E9 0A                 LXI D,ljmgq
07B3	CD 1A 02                 CALL lnrlh
07B6	D2 C6 07                 JNC lnoyg
07B9	D1                       POP D
07BA	E1                       POP H
07BB	01 0C 00                 LXI B,0000Ch
07BE	09                       DAD B
07BF	15                       DCR D
07C0	C2 AE 07                 JNZ lnonq
07C3	C3 14 00                 JMP ljvwb
07C6	D1              lnoyg:   POP D
07C7	7A                       MOV A,D
07C8	FE 01                    CPI 001h
07CA	CA E4 07                 JZ ljvza
07CD	E1                       POP H
07CE	E5                       PUSH H
07CF	01 F7 FF                 LXI B,lgwla
07D2	09                       DAD B
07D3	EB                       XCHG
07D4	01 35 0E                 LXI B,ljjoj
07D7	21 29 0E                 LXI H,ljmht
07DA	0B              lnrms:   DCX B
07DB	2B                       DCX H
07DC	7E                       MOV A,M
07DD	02                       STAX B
07DE	CD 27 C4                 CALL lgpdp
07E1	C2 DA 07                 JNZ lnrms
07E4	E1              ljvza:   POP H
07E5	01 F7 FF                 LXI B,lgwla
07E8	09                       DAD B
07E9	11 B4 0D                 LXI D,ljvru
07EC	06 09                    MVI B,009h
07EE	CD E7 02                 CALL lnctg
07F1	11 E9 0A                 LXI D,ljmgq
07F4	06 03                    MVI B,003h
07F6	CD E7 02                 CALL lnctg
07F9	C3 14 00                 JMP ljvwb
	                
07FC	2C 60 60 60     ljvms:   DB 02Ch, 060h, 060h, 060h, 060h, 060h, 060h, 060h, 060h, 060h
	. . .
0804	60 60 

0806	60 60 60 60              DB 060h, 060h, 060h, 060h, 060h, 060h, 060h, 060h
	. . .
080A	60 60 60 60 

080E	60 60 60 60     lnoij:   DB 060h, 060h, 060h, 060h, 060h, 060h, 060h, 060h, 060h, 060h
	. . .
0816	60 60 

0818	60 60 60 60              DB 060h, 060h, 060h, 060h, 060h, 060h, 060h, 060h, 060h, 060h
	. . .
0820	60 60 

0822	60 60 60 60              DB 060h, 060h, 060h, 060h, 060h, 02Dh, 00Ah, 061h, 02Bh, 052h
	. . .
082A	2B 52 

082C	45 5A 55 4C              DB 045h, 05Ah, 055h, 04Ch, 058h, 054h, 041h, 054h, 03Ah, 030h
	. . .
0834	3A 30 

0836	30 30 30 30              DB 030h, 030h, 030h, 030h, 030h, 02Bh, 02Bh, 04Fh, 05Eh, 04Bh
	. . .
083E	5E 4B 

0840	49 2B 2B 2B              DB 049h, 02Bh, 02Bh, 02Bh, 02Bh, 02Bh, 053h, 04Bh, 04Fh, 052h
	. . .
0848	4F 52 

084A	4F 53 54 58              DB 04Fh, 053h, 054h, 058h, 03Dh, 030h, 030h, 02Bh, 02Bh, 02Bh
	. . .
0852	2B 2B 

0854	61 0A 62 60              DB 061h, 00Ah, 062h, 060h, 060h, 060h, 060h, 060h, 02Dh, 02Bh
	. . .
085C	2D 2B 

085E	2B 2B 2B 2B              DB 02Bh, 02Bh, 02Bh, 02Bh, 02Bh, 02Bh, 02Bh, 02Bh, 02Bh, 02Bh
	. . .
0866	2B 2B 

0868	2B 2B 2B 2B              DB 02Bh, 02Bh, 02Bh, 02Bh, 02Bh, 02Bh, 02Bh, 02Bh, 02Bh, 02Bh
	. . .
0870	2B 2B 

0872	2B 2B 2B 2B              DB 02Bh, 02Bh, 02Bh, 02Bh, 02Bh, 02Bh, 02Bh, 02Bh, 02Bh, 02Bh
	. . .
087A	2B 2B 

087C	2B 2B 2B 2B              DB 02Bh, 02Bh, 02Bh, 02Bh, 02Bh, 061h, 00Ah, 061h, 02Bh, 030h
	. . .
0884	2B 30 

0886	30 30 2B 61              DB 030h, 030h, 02Bh, 061h, 043h, 045h, 04Ch, 058h, 03Ah, 030h
	. . .
088E	3A 30 

0890	30 30 30 30              DB 030h, 030h, 030h, 030h, 030h, 02Bh, 02Bh, 030h, 030h, 030h
	. . .
0898	30 30 

089A	30 30 30 2B              DB 030h, 030h, 030h, 02Bh, 02Bh, 02Bh, 02Bh, 055h, 052h, 04Fh
	. . .
08A2	52 4F 

08A4	57 45 4E 58              DB 057h, 045h, 04Eh, 058h, 03Dh, 030h, 030h, 02Bh, 02Bh, 02Bh
	. . .
08AC	2B 2B 

08AE	61 0A 62 60              DB 061h, 00Ah, 062h, 060h, 060h, 060h, 060h, 060h, 065h, 060h
	. . .
08B6	65 60 

08B8	60 60 60 60              DB 060h, 060h, 060h, 060h, 060h, 060h, 060h, 060h, 060h, 060h
	. . .
08C0	60 60 

08C2	60 60 60 63              DB 060h, 060h, 060h, 063h, 060h, 060h, 060h, 060h, 060h, 060h
	. . .
08CA	60 60 

08CC	60 60 60 60              DB 060h, 060h, 060h, 060h, 060h, 060h, 060h, 060h, 060h, 060h
	. . .
08D4	60 60 

08D6	60 60 60 60              DB 060h, 060h, 060h, 060h, 060h, 064h, 00Ah, 000h
	. . .
08DA	60 64 0A 00 

08DE	61 2B 2B 2B     lnoga:   DB 061h, 02Bh, 02Bh, 02Bh, 02Bh, 02Bh, 02Bh, 02Bh, 02Bh, 02Bh
	. . .
08E6	2B 2B 

08E8	2B 2B 2B 2B              DB 02Bh, 02Bh, 02Bh, 02Bh, 02Bh, 02Bh, 02Bh, 02Bh, 02Bh, 02Bh
	. . .
08F0	2B 2B 

08F2	2B 61 2B 2B              DB 02Bh, 061h, 02Bh, 02Bh, 02Bh, 02Bh, 02Bh, 02Bh, 02Bh, 02Bh
	. . .
08FA	2B 2B 

08FC	2B 2B 2B 2B              DB 02Bh, 02Bh, 02Bh, 02Bh, 02Bh, 02Bh, 02Bh, 02Bh, 02Bh, 02Bh
	. . .
0904	2B 2B 

0906	2B 2B 2B 61              DB 02Bh, 02Bh, 02Bh, 061h, 000h
	. . .
090A	00 

090B	07 00 1A 61     lnfgd:   DB 007h, 000h, 01Ah, 061h, 02Bh, 02Bh, 02Bh, 02Bh
	. . .
090F	2B 2B 2B 2B 

0913	2B 2B 2B 2B     lnfnn:   DB 02Bh, 02Bh, 02Bh, 02Bh, 02Bh, 02Bh, 02Bh, 02Bh, 02Bh, 02Bh
	. . .
091B	2B 2B 

091D	2B 2B 2B 2B              DB 02Bh, 02Bh, 02Bh, 02Bh, 02Bh, 02Bh, 062h, 060h, 060h, 060h
	. . .
0925	60 60 

0927	60 60 60 60              DB 060h, 060h, 060h, 060h, 060h, 060h, 060h, 060h, 060h, 060h
	. . .
092F	60 60 

0931	60 60 60 60              DB 060h, 060h, 060h, 060h, 060h, 060h, 060h, 060h, 064h, 00Ah
	. . .
0939	64 0A 

093B	61 2B 2B 2B              DB 061h, 02Bh, 02Bh, 02Bh, 02Bh, 02Bh, 02Bh, 02Bh, 02Bh, 02Bh
	. . .
0943	2B 2B 

0945	2B 2B 2B 2B              DB 02Bh, 02Bh, 02Bh, 02Bh, 02Bh, 02Bh, 02Bh, 02Bh, 02Bh, 02Bh
	. . .
094D	2B 2B 

094F	2B 61 2B 2B              DB 02Bh, 061h, 02Bh, 02Bh, 02Bh, 02Bh, 02Bh, 02Bh, 02Bh, 02Bh
	. . .
0957	2B 2B 

0959	2B 2B 2B 2B              DB 02Bh, 02Bh, 02Bh, 02Bh, 02Bh, 02Bh, 02Bh, 02Bh, 02Bh, 02Bh
	. . .
0961	2B 2B 

0963	2B 2B 2B 61              DB 02Bh, 02Bh, 02Bh, 061h, 00Ah, 061h, 02Bh, 02Bh, 02Bh, 02Bh
	. . .
096B	2B 2B 

096D	2B 2B 2B 2B              DB 02Bh, 02Bh, 02Bh, 02Bh, 02Bh, 02Bh, 02Bh, 02Bh, 02Bh, 02Bh
	. . .
0975	2B 2B 

0977	2B 2B 2B 2B              DB 02Bh, 02Bh, 02Bh, 02Bh, 02Bh, 02Bh, 061h, 02Bh, 02Bh, 02Bh
	. . .
097F	2B 2B 

0981	2B 2B 2B 2B              DB 02Bh, 02Bh, 02Bh, 02Bh, 02Bh, 02Bh, 02Bh, 02Bh, 02Bh, 02Bh
	. . .
0989	2B 2B 

098B	2B 2B 2B 2B              DB 02Bh, 02Bh, 02Bh, 02Bh, 02Bh, 02Bh, 02Bh, 02Bh, 061h, 00Ah
	. . .
0993	61 0A 

0995	61 2B 2B 2B              DB 061h, 02Bh, 02Bh, 02Bh, 02Bh, 02Bh, 02Bh, 02Bh, 02Bh, 02Bh
	. . .
099D	2B 2B 

099F	2B 2B 2B 2B              DB 02Bh, 02Bh, 02Bh, 02Bh, 02Bh, 02Bh, 02Bh, 02Bh, 02Bh, 02Bh
	. . .
09A7	2B 2B 

09A9	2B 61 2B 53              DB 02Bh, 061h, 02Bh, 053h, 04Bh, 054h, 042h, 02Bh, 057h, 054h
	. . .
09B1	57 54 

09B3	2B 2B 4F 54              DB 02Bh, 02Bh, 04Fh, 054h, 044h, 02Bh, 031h, 030h, 030h, 02Bh
	. . .
09BB	30 2B 

09BD	2B 2B 2B 61              DB 02Bh, 02Bh, 02Bh, 061h, 00Ah, 061h, 02Bh, 02Bh, 02Bh, 02Bh
	. . .
09C5	2B 2B 

09C7	2B 2B 2B 2B              DB 02Bh, 02Bh, 02Bh, 02Bh, 02Bh, 02Bh, 02Bh, 02Bh, 02Bh, 02Bh
	. . .
09CF	2B 2B 

09D1	2B 2B 2B 2B              DB 02Bh, 02Bh, 02Bh, 02Bh, 02Bh, 02Bh, 061h, 02Bh, 02Bh, 02Bh
	. . .
09D9	2B 2B 

09DB	2B 2B 2B 2B              DB 02Bh, 02Bh, 02Bh, 02Bh, 02Bh, 02Bh, 02Bh, 02Bh, 02Bh, 02Bh
	. . .
09E3	2B 2B 

09E5	2B 2B 2B 2B              DB 02Bh, 02Bh, 02Bh, 02Bh, 02Bh, 02Bh, 02Bh, 02Bh, 061h, 00Ah
	. . .
09ED	61 0A 

09EF	2F 60 60 60              DB 02Fh, 060h, 060h, 060h, 060h, 060h, 060h, 060h, 060h, 060h
	. . .
09F7	60 60 

09F9	60 60 60 60              DB 060h, 060h, 060h, 060h, 060h, 060h, 060h, 060h, 060h, 060h
	. . .
0A01	60 60 

0A03	60 65 60 60              DB 060h, 065h, 060h, 060h, 060h, 060h, 060h, 060h, 060h, 060h
	. . .
0A0B	60 60 

0A0D	60 60 60 60              DB 060h, 060h, 060h, 060h, 060h, 060h, 060h, 060h, 060h, 060h
	. . .
0A15	60 60 

0A17	60 60 60 2E              DB 060h, 060h, 060h, 02Eh, 000h
	. . .
0A1B	00 

0A1C	07 07 1E 2B     ljvgz:   DB 007h, 007h, 01Eh, 02Bh, 050h, 041h, 055h, 05Ah, 041h, 02Bh
	. . .
0A24	41 2B 

0A26	00                       DB 000h
0A27	07 07 1E 23     lncof:   DB 007h, 007h, 01Eh, 023h, 023h, 023h, 023h, 023h, 023h, 023h
	. . .
0A2F	23 23 

0A31	00                       DB 000h
0A32	07 07 1E 2B     lnrpp:   DB 007h, 007h, 01Eh, 02Bh, 02Bh, 02Bh, 02Bh, 02Bh, 02Bh, 02Bh
	. . .
0A3A	2B 2B 

0A3C	00                       DB 000h
0A3D	07 03 11 55     ljjdh:   DB 007h, 003h, 011h, 055h, 052h, 04Fh, 057h, 045h, 04Eh, 058h
	. . .
0A45	4E 58 

0A47	3D 2B 2B 00              DB 03Dh, 02Bh, 02Bh, 000h
0A4B	07 03 13 43     lnffx:   DB 007h, 003h, 013h, 043h, 045h, 04Ch, 058h, 03Dh, 02Bh, 000h
	. . .
0A53	2B 00 

0A55	07 16 08 3D     ljjnx:   DB 007h, 016h, 008h, 03Dh, 03Dh, 03Dh, 03Dh, 03Dh, 03Dh, 03Dh
	. . .
0A5D	3D 3D 

0A5F	3D 3D 3D 3D              DB 03Dh, 03Dh, 03Dh, 03Dh, 03Dh, 03Dh, 03Dh, 03Dh, 03Dh, 03Dh
	. . .
0A67	3D 3D 

0A69	3D 3D 3D 3D              DB 03Dh, 03Dh, 03Dh, 03Dh, 007h, 018h, 009h, 054h, 041h, 042h
	. . .
0A71	41 42 

0A73	4C 49 43 41              DB 04Ch, 049h, 043h, 041h, 02Bh, 052h, 045h, 04Bh, 04Fh, 052h
	. . .
0A7B	4F 52 

0A7D	44 4F 57 07              DB 044h, 04Fh, 057h, 007h, 017h, 005h, 053h, 042h, 052h, 04Fh
	. . .
0A85	52 4F 

0A87	5B 45 4E 4F              DB 05Bh, 045h, 04Eh, 04Fh, 02Bh, 052h, 051h, 044h, 04Fh, 057h
	. . .
0A8F	4F 57 

0A91	3A 30 30 30              DB 03Ah, 030h, 030h, 030h, 030h, 007h, 015h, 006h, 062h, 060h
	. . .
0A99	62 60 

0A9B	60 60 60 60              DB 060h, 060h, 060h, 060h, 060h, 060h, 060h, 060h, 060h, 060h
	. . .
0AA3	60 60 

0AA5	60 60 60 60              DB 060h, 060h, 060h, 060h, 060h, 060h, 060h, 060h, 060h, 060h
	. . .
0AAD	60 60 

0AAF	64 07 19 07              DB 064h, 007h, 019h, 007h, 049h, 047h, 052h, 041h, 045h, 054h
	. . .
0AB7	45 54 

0AB9	3A 00                    DB 03Ah, 000h
0ABB	07 21 0B 2B     lnfcq:   DB 007h, 021h, 00Bh, 02Bh, 03Dh, 02Bh, 000h
	. . .
0ABF	3D 2B 00 

0AC2	00              lnrsu:   DB 000h
0AC3	00              lnfps:   DB 000h
0AC4	00              ljvtk:   DB 000h
0AC5	00              ljjqi:   DB 000h
0AC6	08 00           lnosa:   DB 008h, 000h
0AC8	18 00           ljyki:   DB 018h, 000h
0ACA	00              lnriy:   DB 000h
0ACB	00              lnffw:   DB 000h
0ACC	38 18           ljvjo:   DB 038h, 018h
0ACE	00 00 00        lnoie:   DB 000h, 000h, 000h
0AD1	30              ljmoq:   DB 030h
0AD2	01              lnrqi:   DB 001h
0AD3	01              lnfng:   DB 001h
0AD4	20 01           ljvqy:   DB 020h, 001h
0AD6	00 00           lnopo:   DB 000h, 000h
0AD8	00 00           ljyhw:   DB 000h, 000h
0ADA	20              lnrgm:   DB 020h
0ADB	20              lnfdk:   DB 020h
0ADC	00              ljvhc:   DB 000h
0ADD	04              ljjea:   DB 004h
0ADE	66 00           lnofs:   DB 066h, 000h
0AE0	00              ljyto:   DB 000h
0AE1	00              ljmqm:   DB 000h
0AE2	00              lnrse:   DB 000h
0AE3	00              lnfpc:   DB 000h
0AE4	00              ljvsu:   DB 000h
0AE5	07              ljjps:   DB 007h
0AE6	00 40           lnork:   DB 000h, 040h
0AE8	00              ljyjs:   DB 000h
0AE9	00              ljmgq:   DB 000h
0AEA	00              lnrii:   DB 000h
0AEB	00              lnffg:   DB 000h
0AEC	03 03 03 03     ljviy:   DB 003h, 003h, 003h, 003h, 003h, 003h, 003h, 003h, 003h, 003h
	. . .
0AF4	03 03 

0AF6	03 03 03 03              DB 003h, 003h, 003h, 003h, 003h, 003h
	. . .
0AFA	03 03 

0AFC	03 03 03 00     ljvgm:   DB 003h, 003h, 003h, 000h, 000h, 000h, 000h, 000h, 000h, 000h
	. . .
0B04	00 00 

0B06	00 00 00 03              DB 000h, 000h, 000h, 003h, 003h, 003h
	. . .
0B0A	03 03 

0B0C	0B 0B 0B 0B     ljvjn:   DB 00Bh, 00Bh, 00Bh, 00Bh, 00Bh, 00Bh, 00Bh, 00Bh, 00Bh, 00Bh
	. . .
0B14	0B 0B 

0B16	0B 0B 0B 0B              DB 00Bh, 00Bh, 00Bh, 00Bh, 00Bh, 00Bh
	. . .
0B1A	0B 0B 

0B1C	27 00 23 20     ljvhb:   DB 027h, 000h, 023h, 020h, 072h, 000h, 013h, 010h, 00Fh, 000h
	. . .
0B24	0F 00 

0B26	22 22 0F 00              DB 022h, 022h, 00Fh, 000h, 022h, 022h, 047h, 000h, 032h, 020h
	. . .
0B2E	32 20 

0B30	71 00 11 30              DB 071h, 000h, 011h, 030h, 074h, 000h, 031h, 010h, 017h, 000h
	. . .
0B38	17 00 

0B3A	22 30 33 00              DB 022h, 030h, 033h, 000h, 033h, 000h, 033h, 000h, 033h, 000h
	. . .
0B42	33 00 

0B44	36 00 23 10              DB 036h, 000h, 023h, 010h, 036h, 000h, 023h, 010h, 063h, 000h
	. . .
0B4C	63 00 

0B4E	13 20 63 00              DB 013h, 020h, 063h, 000h, 013h, 020h, 027h, 020h, 027h, 020h
	. . .
0B56	27 20 

0B58	27 20 27 20              DB 027h, 020h, 027h, 020h, 076h, 000h, 033h, 010h, 037h, 000h
	. . .
0B60	37 00 

0B62	23 30 67 00              DB 023h, 030h, 067h, 000h, 033h, 020h, 073h, 000h, 013h, 030h
	. . .
0B6A	13 30 

0B6C	22 70 47 40              DB 022h, 070h, 047h, 040h, 072h, 020h, 017h, 010h, 075h, 000h
	. . .
0B74	75 00 

0B76	31 30 57 00              DB 031h, 030h, 057h, 000h, 032h, 030h, 064h, 044h, 00Fh, 010h
	. . .
0B7E	0F 10 

0B80	22 26 08 F0              DB 022h, 026h, 008h, 0F0h, 062h, 022h, 001h, 0F0h, 044h, 046h
	. . .
0B88	44 46 

0B8A	0F 80 47 10              DB 00Fh, 080h, 047h, 010h, 032h, 060h, 047h, 010h, 032h, 060h
	. . .
0B92	32 60 

0B94	17 40 62 30              DB 017h, 040h, 062h, 030h, 017h, 040h, 062h, 030h, 022h, 062h
	. . .
0B9C	22 62 

0B9E	04 F0 46 44              DB 004h, 0F0h, 046h, 044h, 00Fh, 020h, 044h, 064h, 00Fh, 040h
	. . .
0BA6	0F 40 

0BA8	26 22 02 F0              DB 026h, 022h, 002h, 0F0h, 044h, 070h, 074h, 040h, 071h, 010h
	. . .
0BB0	71 10 

0BB2	11 70 23 60              DB 011h, 070h, 023h, 060h, 047h, 020h, 036h, 020h, 027h, 010h
	. . .
0BBA	27 10 

0BBC	26 30 27 40              DB 026h, 030h, 027h, 040h, 063h, 020h, 017h, 020h
	. . .
0BC0	63 20 17 20 

0BC4	00 00 01 00     ljvtm:   DB 000h, 000h, 001h, 000h, 000h, 001h, 001h, 001h, 000h, 000h
	. . .
0BCC	00 00 

0BCE	00 00 00 00              DB 000h, 000h, 000h, 000h, 000h, 000h, 000h, 000h, 001h, 000h
	. . .
0BD6	01 00 

0BD8	00 00 01 01              DB 000h, 000h, 001h, 001h, 000h, 000h, 001h, 000h, 000h, 000h
	. . .
0BE0	00 00 

0BE2	00 00 00 01              DB 000h, 000h, 000h, 001h, 001h, 001h, 000h, 000h, 001h, 000h
	. . .
0BEA	01 00 

0BEC	00 00 00 00              DB 000h, 000h, 000h, 000h, 000h, 000h, 000h, 000h, 000h, 000h
	. . .
0BF4	00 00 

0BF6	00 01 00 00              DB 000h, 001h, 000h, 000h, 001h, 001h, 000h, 000h, 000h, 001h
	. . .
0BFE	00 01 

0C00	00                       DB 000h
0C01	00 00           ljmsn:   DB 000h, 000h
0C03	00 03 03 03     lnfrd:   DB 000h, 003h, 003h, 003h, 000h, 000h, 000h, 000h, 000h, 000h
	. . .
0C0B	00 00 

0C0D	00 00 00 00              DB 000h, 000h, 000h, 000h, 003h, 003h, 003h
	. . .
0C11	03 03 03 

0C14	03 03 03        ljvsj:   DB 003h, 003h, 003h
0C17	00 00 00 00     lncnx:   DB 000h, 000h, 000h, 000h, 000h, 000h, 000h, 000h, 000h, 000h
	. . .
0C1F	00 00 

0C21	03 03 03 03              DB 003h, 003h, 003h, 003h, 003h, 003h, 000h, 000h, 000h, 000h
	. . .
0C29	00 00 

0C2B	00 00 00 00              DB 000h, 000h, 000h, 000h, 002h, 000h, 003h, 003h, 003h, 003h
	. . .
0C33	03 03 

0C35	03 03 00 00              DB 003h, 003h, 000h, 000h, 000h, 000h, 000h, 000h, 000h, 002h
	. . .
0C3D	00 02 

0C3F	02 00 03 03              DB 002h, 000h, 003h, 003h, 003h, 003h, 003h, 003h, 000h, 000h
	. . .
0C47	00 00 

0C49	00 00 00 00              DB 000h, 000h, 000h, 000h, 000h, 002h, 000h, 000h, 003h, 003h
	. . .
0C51	03 03 

0C53	03 03 03 03              DB 003h, 003h, 003h, 003h, 000h, 000h, 000h, 000h, 002h, 002h
	. . .
0C5B	02 02 

0C5D	02 02 00 00              DB 002h, 002h, 000h, 000h, 003h, 003h, 003h, 003h, 003h, 003h
	. . .
0C65	03 03 

0C67	00 00 00 00              DB 000h, 000h, 000h, 000h, 000h, 000h, 000h, 002h, 000h, 000h
	. . .
0C6F	00 00 

0C71	03 03 03 03              DB 003h, 003h, 003h, 003h, 003h, 003h, 000h, 000h, 000h, 000h
	. . .
0C79	00 00 

0C7B	00 00 00 02              DB 000h, 000h, 000h, 002h, 000h, 000h, 003h, 003h, 003h, 003h
	. . .
0C83	03 03 

0C85	03 03 00 00              DB 003h, 003h, 000h, 000h, 000h, 000h, 000h, 000h, 000h, 002h
	. . .
0C8D	00 02 

0C8F	00 00 03 03              DB 000h, 000h, 003h, 003h, 003h, 003h, 003h, 003h, 000h, 000h
	. . .
0C97	00 00 

0C99	00 00 00 00              DB 000h, 000h, 000h, 000h, 000h, 002h, 000h, 000h, 003h, 003h
	. . .
0CA1	03 03 

0CA3	03                       DB 003h
0CA4	03 03 03 00     ljvue:   DB 003h, 003h, 003h, 000h, 000h, 000h, 000h, 000h, 000h, 000h
	. . .
0CAC	00 00 

0CAE	02 00 00 03              DB 002h, 000h, 000h, 003h, 003h, 003h, 003h, 003h, 003h, 000h
	. . .
0CB6	03 00 

0CB8	00 00 00 00              DB 000h, 000h, 000h, 000h, 000h, 000h, 002h, 000h, 000h, 003h
	. . .
0CC0	00 03 

0CC2	03 03 03 03              DB 003h, 003h, 003h, 003h, 003h, 000h, 000h, 000h, 000h, 000h
	. . .
0CCA	00 00 

0CCC	00 00 02 00              DB 000h, 000h, 002h, 000h, 000h, 003h, 003h, 003h, 003h, 003h
	. . .
0CD4	03 03 

0CD6	03 00 02 02              DB 003h, 000h, 002h, 002h, 000h, 000h, 000h, 000h, 002h, 000h
	. . .
0CDE	02 00 

0CE0	00 03 03 03              DB 000h, 003h, 003h, 003h, 003h, 003h, 003h, 000h, 000h, 002h
	. . .
0CE8	00 02 

0CEA	02 02 02 02              DB 002h, 002h, 002h, 002h, 002h, 000h, 000h, 003h, 003h, 003h
	. . .
0CF2	03 03 

0CF4	03 03 03 00              DB 003h, 003h, 003h, 000h, 000h, 002h, 002h, 002h, 002h, 000h
	. . .
0CFC	02 00 

0CFE	00 00 00 03              DB 000h, 000h, 000h, 003h, 003h, 003h, 003h, 003h, 003h, 000h
	. . .
0D06	03 00 

0D08	00 00 00 00              DB 000h, 000h, 000h, 000h, 002h, 000h, 000h, 000h, 000h
	. . .
0D10	00 

0D11	03 03 03 03     ljmqd:   DB 003h, 003h, 003h, 003h, 003h, 003h, 000h, 000h, 000h, 000h
	. . .
0D19	00 00 

0D1B	02 02 02 00              DB 002h, 002h, 002h, 000h, 000h, 000h, 003h, 003h, 003h, 003h
	. . .
0D23	03 03 

0D25	03 03 00 00              DB 003h, 003h, 000h, 000h, 002h, 002h, 000h, 002h, 000h, 000h
	. . .
0D2D	00 00 

0D2F	00 00 03 03              DB 000h, 000h, 003h, 003h, 003h, 003h, 003h, 003h, 000h, 000h
	. . .
0D37	00 00 

0D39	02 02 00 02              DB 002h, 002h, 000h, 002h, 000h, 000h, 000h, 000h, 003h, 003h
	. . .
0D41	03 03 

0D43	03 03 03 03              DB 003h, 003h, 003h, 003h, 000h, 002h, 002h, 002h, 002h, 002h
	. . .
0D4B	02 02 

0D4D	02 02 00 00              DB 002h, 002h, 000h, 000h, 003h, 003h, 003h, 003h, 003h, 003h
	. . .
0D55	03 03 

0D57	00 00 00 00              DB 000h, 000h, 000h, 000h, 002h, 000h, 002h, 002h, 002h, 000h
	. . .
0D5F	02 00 

0D61	03 03 03 03              DB 003h, 003h, 003h, 003h, 003h, 003h, 000h, 000h, 000h, 000h
	. . .
0D69	00 00 

0D6B	02 00 00 02              DB 002h, 000h, 000h, 002h, 000h, 000h, 003h, 003h, 003h, 003h
	. . .
0D73	03 03 

0D75	03 03 00 00              DB 003h, 003h, 000h, 000h, 000h, 002h, 002h, 002h, 000h, 002h
	. . .
0D7D	00 02 

0D7F	00 00 03 03              DB 000h, 000h, 003h, 003h, 003h, 003h, 003h, 003h, 000h, 000h
	. . .
0D87	00 00 

0D89	00 02 02 02              DB 000h, 002h, 002h, 002h, 000h, 002h, 000h, 000h, 003h, 003h
	. . .
0D91	03 03 

0D93	03 03 03 03              DB 003h, 003h, 003h, 003h
0D97	00 00 02 02     lncny:   DB 000h, 000h, 002h, 002h, 000h, 002h, 002h, 002h, 000h, 000h
	. . .
0D9F	00 00 

0DA1	03 03 03 03              DB 003h, 003h, 003h, 003h, 003h, 003h, 003h, 003h, 003h, 003h
	. . .
0DA9	03 03 

0DAB	03 03 03 03              DB 003h, 003h, 003h, 003h, 003h, 003h, 003h, 003h, 003h
	. . .
0DB3	03 

0DB4	2B 00 00 00     ljvru:   DB 02Bh, 000h, 000h, 000h, 000h, 000h, 000h, 000h, 000h
	. . .
0DBC	00 

0DBD	00 00 00 00     ljjew:   DB 000h, 000h, 000h, 000h, 000h, 000h, 000h, 000h, 000h
	. . .
0DC5	00 

0DC6	00 00 00 00     lnotq:   DB 000h, 000h, 000h, 000h, 000h, 000h, 000h, 000h, 000h, 000h
	. . .
0DCE	00 00 

0DD0	00 00 00 00              DB 000h, 000h, 000h, 000h, 000h, 000h, 000h, 000h, 000h, 000h
	. . .
0DD8	00 00 

0DDA	00 00 00 00              DB 000h, 000h, 000h, 000h, 000h, 000h, 000h, 000h, 000h, 000h
	. . .
0DE2	00 00 

0DE4	00 00 00 00              DB 000h, 000h, 000h, 000h, 000h, 000h, 000h, 000h, 000h, 000h
	. . .
0DEC	00 00 

0DEE	00 00 00 00              DB 000h, 000h, 000h, 000h, 000h, 000h, 000h, 000h, 000h, 000h
	. . .
0DF6	00 00 

0DF8	00 00 00 00              DB 000h, 000h, 000h, 000h, 000h, 000h, 000h, 000h, 000h, 000h
	. . .
0E00	00 00 

0E02	00 00 00 00              DB 000h, 000h, 000h, 000h, 000h, 000h, 000h, 000h, 000h, 000h
	. . .
0E0A	00 00 

0E0C	00 00 00 00              DB 000h, 000h, 000h, 000h, 000h, 000h, 000h, 000h, 000h, 000h
	. . .
0E14	00 00 

0E16	00 00 00 00              DB 000h, 000h, 000h, 000h, 000h, 000h, 000h, 000h, 000h, 000h
	. . .
0E1E	00 00 

0E20	00 00 00 00              DB 000h, 000h, 000h, 000h, 000h, 000h, 000h, 000h, 000h
	. . .
0E28	00 

0E29	00 00 00 00     ljmht:   DB 000h, 000h, 000h, 000h, 000h, 000h, 000h, 000h, 000h, 000h
	. . .
0E31	00 00 

0E33	00 00                    DB 000h, 000h
0E35	00 0E 0E 20     ljjoj:   DB 000h, 00Eh, 00Eh, 020h, 0CDh, 05Eh, 00Eh, 02Ah, 00Ah, 010h
	. . .
0E3D	0A 10 

0E3F	CD 56 0E 0E              DB 0CDh, 056h, 00Eh, 00Eh, 029h, 0CDh, 05Eh, 00Eh, 001h, 020h
	. . .
0E47	01 20 

0E49	04 C9 06 0C              DB 004h, 0C9h, 006h, 00Ch, 0C3h, 056h, 00Eh, 0C5h, 0CDh, 067h
	. . .
0E51	CD 67 

0E53	0E C1 C9 7C              DB 00Eh, 0C1h, 0C9h, 07Ch, 0CDh, 050h, 00Eh, 07Dh, 0CDh, 050h
	. . .
0E5B	CD 50 

0E5D	0E C3 37 C0              DB 00Eh, 0C3h, 037h, 0C0h, 0C3h, 037h, 0C3h, 0AFh, 0C9h, 0F8h
	. . .
0E65	C9 F8 

0E67	C3 27 06 C3              DB 0C3h, 027h, 006h, 0C3h, 038h, 0C4h, 0C3h, 000h, 000h, 00Bh
	. . .
0E6F	00 0B 

0E71	00 08 01 2E              DB 000h, 008h, 001h, 02Eh, 001h, 000h, 001h, 016h, 002h, 00Eh
	. . .
0E79	02 0E 

0E7B	01 26 02 2B              DB 001h, 026h, 002h, 02Bh, 001h
	. . .
0E7F	01 

0E80	00 00 00 00     ljyvg:   DB 000h, 000h, 000h, 000h, 000h, 000h, 000h, 000h, 000h, 000h
	. . .
0E88	00 00 

0E8A	00 00 00 00              DB 000h, 000h, 000h, 000h, 000h, 000h, 000h, 000h, 000h, 000h
	. . .
0E92	00 00 

0E94	00 00 10 08              DB 000h, 000h, 010h, 008h, 010h, 008h, 018h, 018h, 01Ch, 038h
	. . .
0E9C	1C 38 

0E9E	1E 78 00 00              DB 01Eh, 078h, 000h, 000h, 000h, 000h, 000h, 000h, 000h, 000h
	. . .
0EA6	00 00 

0EA8	11 88 11 88              DB 011h, 088h, 011h, 088h, 011h, 088h, 011h, 088h, 011h, 088h
	. . .
0EB0	11 88 

0EB2	11 88 11 88              DB 011h, 088h, 011h, 088h, 011h, 088h, 011h, 088h, 011h, 088h
	. . .
0EBA	11 88 

0EBC	11 88 11 88              DB 011h, 088h, 011h, 088h, 000h, 000h, 000h, 000h, 000h, 000h
	. . .
0EC4	00 00 

0EC6	00 00 00 00              DB 000h, 000h, 000h, 000h, 000h, 000h, 010h, 008h, 000h, 000h
	. . .
0ECE	00 00 

0ED0	00 00 18 18              DB 000h, 000h, 018h, 018h, 000h, 000h, 000h, 000h, 01Ch, 038h
	. . .
0ED8	1C 38 

0EDA	00 00 00 00              DB 000h, 000h, 000h, 000h, 01Eh, 078h, 000h, 000h, 000h, 000h
	. . .
0EE2	00 00 

0EE4	03 F8 00 00              DB 003h, 0F8h, 000h, 000h, 000h, 000h, 000h, 000h, 000h, 000h
	. . .
0EEC	00 00 

0EEE	1F C0 00 00              DB 01Fh, 0C0h, 000h, 000h, 000h, 000h, 000h, 000h, 000h, 000h
	. . .
0EF6	00 00 

0EF8	03 F8 00 00              DB 003h, 0F8h, 000h, 000h, 000h, 000h, 000h, 000h, 000h, 000h
	. . .
0F00	00 00 

0F02	00 00 00 00              DB 000h, 000h, 000h, 000h, 000h, 000h, 01Eh, 078h, 01Eh, 078h
	. . .
0F0A	1E 78 

0F0C	1E 78 1E 08              DB 01Eh, 078h, 01Eh, 008h, 01Eh, 078h, 000h, 000h, 000h, 000h
	. . .
0F14	00 00 

0F16	1E 78 1E 78              DB 01Eh, 078h, 01Eh, 078h, 01Eh, 078h, 01Eh, 078h, 01Eh, 078h
	. . .
0F1E	1E 78 

0F20	00 00 00 00              DB 000h, 000h, 000h, 000h, 000h, 000h, 000h, 000h, 000h, 000h
	. . .
0F28	00 00 

0F2A	10 08 18 18              DB 010h, 008h, 018h, 018h, 01Ch, 038h, 01Eh, 078h, 01Eh, 078h
	. . .
0F32	1E 78 

0F34	1E 78 1E 78              DB 01Eh, 078h, 01Eh, 078h, 01Eh, 078h, 01Ch, 038h, 018h, 018h
	. . .
0F3C	18 18 

0F3E	10 08 00 00              DB 010h, 008h, 000h, 000h, 000h, 000h, 000h, 000h, 000h, 000h
	. . .
0F46	00 00 

0F48	1B D8 17 B8              DB 01Bh, 0D8h, 017h, 0B8h, 00Fh, 078h, 01Eh, 0F0h, 01Bh, 0D8h
	. . .
0F50	1B D8 

0F52	17 B8 0F 78              DB 017h, 0B8h, 00Fh, 078h, 01Eh, 0F0h, 01Bh, 0D8h, 017h, 0B8h
	. . .
0F5A	17 B8 

0F5C	0F 78 1E F0              DB 00Fh, 078h, 01Eh, 0F0h, 000h, 000h, 000h, 000h, 000h, 000h
	. . .
0F64	00 00 

0F66	00 00 00 00              DB 000h, 000h, 000h, 000h, 000h, 000h, 000h, 000h, 000h, 000h
	. . .
0F6E	00 00 

0F70	00 00 00 00              DB 000h, 000h, 000h, 000h, 000h, 000h, 000h, 000h, 000h, 000h
	. . .
0F78	00 00 

0F7A	00 00 00 00              DB 000h, 000h, 000h, 000h, 000h, 000h
	. . .
0F7E	00 00 

0F80	55 00 01 00     ljyvi:   DB 055h, 000h, 001h, 000h, 001h, 000h, 001h, 000h, 0FFh, 0FFh
	. . .
0F88	FF FF 

0F8A	FF FF FF FF              DB 0FFh, 0FFh, 0FFh, 0FFh, 0FFh, 0FFh, 0FFh, 0C3h, 0A5h, 099h
	. . .
0F92	A5 99 

0F94	99 A5 C3 FF              DB 099h, 0A5h, 0C3h, 0FFh, 049h, 092h, 024h, 0C9h, 092h, 024h
	. . .
0F9C	92 24 

0F9E	49 92 00 00              DB 049h, 092h, 000h, 000h, 001h, 002h, 007h, 007h, 00Fh, 00Fh
	. . .
0FA6	0F 0F 

0FA8	7F 83 05 09              DB 07Fh, 083h, 005h, 009h, 0F1h, 0F3h, 0F3h, 0F7h, 01Eh, 026h
	. . .
0FB0	1E 26 

0FB2	4C 94 E8 C8              DB 04Ch, 094h, 0E8h, 0C8h, 0CCh, 094h, 01Eh, 01Eh, 03Ch, 03Dh
	. . .
0FBA	3C 3D 

0FBC	7A 7C F8 F0              DB 07Ah, 07Ch, 0F8h, 0F0h, 0F7h, 0FFh, 0FFh, 0F7h, 0F7h, 0F7h
	. . .
0FC4	F7 F7 

0FC6	FB F1 A2 42              DB 0FBh, 0F1h, 0A2h, 042h, 081h, 082h, 084h, 0C8h, 0D0h, 0E0h
	. . .
0FCE	D0 E0 

0FD0	3C 42 99 A1              DB 03Ch, 042h, 099h, 0A1h, 0A1h, 099h, 042h, 03Ch, 000h, 000h
	. . .
0FD8	00 00 

0FDA	00 00 00 00              DB 000h, 000h, 000h, 000h, 000h, 000h, 000h, 000h, 000h, 01Fh
	. . .
0FE2	00 1F 

0FE4	1F 18 18 18              DB 01Fh, 018h, 018h, 018h, 000h, 000h, 000h, 0F8h, 0F8h, 018h
	. . .
0FEC	F8 18 

0FEE	18 18 18 18              DB 018h, 018h, 018h, 018h, 018h, 0F8h, 0F8h, 000h, 000h, 000h
	. . .
0FF6	00 00 

0FF8	18 18 18 1F              DB 018h, 018h, 018h, 01Fh, 01Fh, 000h, 000h, 000h, 0FEh, 082h
	. . .
1000	FE 82 

1002	82 82 C2 C2              DB 082h, 082h, 0C2h, 0C2h, 0C2h, 0FEh, 008h, 008h, 018h, 018h
	. . .
100A	18 18 

100C	18 18 18 18              DB 018h, 018h, 018h, 018h, 07Eh, 002h, 002h, 0FEh, 080h, 0C0h
	. . .
1014	80 C0 

1016	C2 FE 3E 02              DB 0C2h, 0FEh, 03Eh, 002h, 002h, 03Eh, 002h, 006h, 006h, 0FEh
	. . .
101E	06 FE 

1020	82 82 C2 C2              DB 082h, 082h, 0C2h, 0C2h, 0FEh, 006h, 006h, 006h, 0FCh, 080h
	. . .
1028	FC 80 

102A	80 FE 02 06              DB 080h, 0FEh, 002h, 006h, 086h, 0FEh, 0F8h, 0C8h, 0C0h, 0FEh
	. . .
1032	C0 FE 

1034	82 86 86 FE              DB 082h, 086h, 086h, 0FEh, 0FEh, 082h, 002h, 002h, 006h, 006h
	. . .
103C	06 06 

103E	06 06 7C 64              DB 006h, 006h, 07Ch, 064h, 064h, 0FEh, 082h, 0C2h, 0C2h, 0FEh
	. . .
1046	C2 FE 

1048	FE 82 C2 C2              DB 0FEh, 082h, 0C2h, 0C2h, 0FEh, 006h, 026h, 03Eh, 000h, 018h
	. . .
1050	00 18 

1052	18 00 00 18              DB 018h, 000h, 000h, 018h, 018h, 000h, 000h, 018h, 018h, 0FEh
	. . .
105A	18 FE 

105C	FE 18 18 00              DB 0FEh, 018h, 018h, 000h, 000h, 000h, 000h, 038h, 038h, 038h
	. . .
1064	38 38 

1066	10 20 00 00              DB 010h, 020h, 000h, 000h, 000h, 07Eh, 07Eh, 000h, 000h, 000h
	. . .
106E	00 00 

1070	00 00 00 00              DB 000h, 000h, 000h, 000h, 000h, 038h, 038h, 038h, 0FEh, 006h
	. . .
1078	FE 06 

107A	02 1E 30 30              DB 002h, 01Eh, 030h, 030h, 000h, 030h, 09Eh, 092h, 092h, 0F2h
	. . .
1082	92 F2 

1084	96 D6 D6 DE              DB 096h, 0D6h, 0D6h, 0DEh, 03Eh, 022h, 022h, 0FEh, 082h, 0C2h
	. . .
108C	82 C2 

108E	C2 C2 F8 80              DB 0C2h, 0C2h, 0F8h, 080h, 080h, 0FEh, 082h, 0C2h, 0C2h, 0FEh
	. . .
1096	C2 FE 

1098	84 84 84 84              DB 084h, 084h, 084h, 084h, 0C4h, 0C4h, 0C4h, 0FEh, 01Ch, 014h
	. . .
10A0	1C 14 

10A2	24 44 64 64              DB 024h, 044h, 064h, 064h, 064h, 0FEh, 0FEh, 080h, 080h, 0F8h
	. . .
10AA	80 F8 

10AC	C0 C0 C0 FE              DB 0C0h, 0C0h, 0C0h, 0FEh, 0FEh, 092h, 092h, 0D2h, 0D2h, 0FEh
	. . .
10B4	D2 FE 

10B6	10 20 FE 80              DB 010h, 020h, 0FEh, 080h, 080h, 080h, 0C0h, 0C0h, 0C0h, 0C0h
	. . .
10BE	C0 C0 

10C0	44 44 44 38              DB 044h, 044h, 044h, 038h, 044h, 0C6h, 0C6h, 0C6h, 082h, 086h
	. . .
10C8	82 86 

10CA	8A 92 A2 C6              DB 08Ah, 092h, 0A2h, 0C6h, 086h, 086h, 038h, 082h, 086h, 08Ah
	. . .
10D2	86 8A 

10D4	92 A6 C6 86              DB 092h, 0A6h, 0C6h, 086h, 088h, 088h, 088h, 0FEh, 0C2h, 0C2h
	. . .
10DC	C2 C2 

10DE	C2 C2 0E 12              DB 0C2h, 0C2h, 00Eh, 012h, 012h, 012h, 026h, 026h, 066h, 066h
	. . .
10E6	66 66 

10E8	82 C6 AA 92              DB 082h, 0C6h, 0AAh, 092h, 0C2h, 0C2h, 0C2h, 0C2h, 082h, 082h
	. . .
10F0	82 82 

10F2	82 FE C2 C2              DB 082h, 0FEh, 0C2h, 0C2h, 0C2h, 0C2h, 0FEh, 08Eh, 086h, 082h
	. . .
10FA	86 82 

10FC	82 82 82 FE              DB 082h, 082h, 082h, 0FEh, 0FEh, 082h, 082h, 082h, 0C2h, 0C2h
	. . .
1104	C2 C2 

1106	C2 C2 FE 82              DB 0C2h, 0C2h, 0FEh, 082h, 0C2h, 0C2h, 0FEh, 026h, 046h, 086h
	. . .
110E	46 86 

1110	FE 82 C2 C2              DB 0FEh, 082h, 0C2h, 0C2h, 0FEh, 080h, 080h, 080h, 0FEh, 080h
	. . .
1118	FE 80 

111A	80 80 C0 C0              DB 080h, 080h, 0C0h, 0C0h, 0C0h, 0FEh, 0FEh, 010h, 010h, 010h
	. . .
1122	10 10 

1124	18 18 18 18              DB 018h, 018h, 018h, 018h, 082h, 082h, 0C2h, 0C2h, 0FEh, 002h
	. . .
112C	FE 02 

112E	62 7E 54 54              DB 062h, 07Eh, 054h, 054h, 054h, 07Ch, 054h, 0D6h, 0D6h, 0D6h
	. . .
1136	D6 D6 

1138	FC 84 84 FE              DB 0FCh, 084h, 084h, 0FEh, 0C2h, 0C2h, 0C2h, 0FEh, 080h, 080h
	. . .
1140	80 80 

1142	80 FE 82 C2              DB 080h, 0FEh, 082h, 0C2h, 0C2h, 0FEh, 082h, 082h, 082h, 0FAh
	. . .
114A	82 FA 

114C	8A CA CA FA              DB 08Ah, 0CAh, 0CAh, 0FAh, 0F8h, 018h, 018h, 07Eh, 002h, 006h
	. . .
1154	02 06 

1156	86 FE 92 92              DB 086h, 0FEh, 092h, 092h, 092h, 092h, 0D2h, 0D2h, 0D2h, 0FEh
	. . .
115E	D2 FE 

1160	FE 82 02 1E              DB 0FEh, 082h, 002h, 01Eh, 006h, 006h, 086h, 0FEh, 094h, 094h
	. . .
1168	94 94 

116A	94 94 D4 D4              DB 094h, 094h, 0D4h, 0D4h, 0D4h, 0FEh, 082h, 082h, 0C2h, 0C2h
	. . .
1172	C2 C2 

1174	FE 06 06 06              DB 0FEh, 006h, 006h, 006h, 0C0h, 040h, 040h, 07Eh, 042h, 062h
	. . .
117C	42 62 

117E	62 7E 00 00              DB 062h, 07Eh, 000h, 000h, 000h, 0FFh, 0FFh, 000h, 000h, 000h
	. . .
1186	00 00 

1188	18 18 18 18              DB 018h, 018h, 018h, 018h, 018h, 018h, 018h, 018h, 018h, 018h
	. . .
1190	18 18 

1192	18 1F 1F 18              DB 018h, 01Fh, 01Fh, 018h, 018h, 018h, 000h, 000h, 000h, 0FFh
	. . .
119A	00 FF 

119C	FF 18 18 18              DB 0FFh, 018h, 018h, 018h, 018h, 018h, 018h, 0F8h, 0F8h, 018h
	. . .
11A4	F8 18 

11A6	18 18 18 18              DB 018h, 018h, 018h, 018h, 018h, 0FFh, 0FFh, 000h, 000h, 000h
	. . .
11AE	00 00 

11B0	3E 01 CD F0              DB 03Eh, 001h, 0CDh, 0F0h, 002h, 0CDh, 037h, 0C3h, 0FEh, 00Dh
	. . .
11B8	FE 0D 

11BA	CA F7 00 FE              DB 0CAh, 0F7h, 000h, 0FEh, 008h, 0CAh, 0E6h, 000h, 015h, 014h
	. . .
11C2	15 14 

11C4	CA B5 00 FE              DB 0CAh, 0B5h, 000h, 0FEh, 020h, 0C2h, 0D1h, 000h, 03Eh, 02Bh
	. . .
11CC	3E 2B 

11CE	C3 DD 00 FE              DB 0C3h, 0DDh, 000h, 0FEh, 041h, 0DAh, 0B5h, 000h, 0FEh, 060h
	. . .
11D6	FE 60 

11D8	DA DD 00 D6              DB 0DAh, 0DDh, 000h, 0D6h, 020h, 077h, 0CDh, 00Eh, 007h, 023h
	. . .
11E0	07 23 

11E2	15 C3 A8 00              DB 015h, 0C3h, 0A8h, 000h, 07Ah, 0FEh, 009h, 0CAh, 0B5h, 000h
	. . .
11EA	B5 00 

11EC	3E 0B CD F0              DB 03Eh, 00Bh, 0CDh, 0F0h, 002h, 005h, 014h, 02Bh, 0C3h, 0A8h
	. . .
11F4	C3 A8 

11F6	00 7A FE 09              DB 000h, 07Ah, 0FEh, 009h, 0C2h, 005h, 001h, 016h, 000h, 0CDh
	. . .
11FE	00 CD 

1200	CD 10 C0        lkamj:   CALL ldlft
1203	11 00 90                 LXI D,lcopl
1206	3E 66           lnqkf:   MVI A,066h
1208	12                       STAX D
1209	13                       INX D
120A	7A                       MOV A,D
120B	FE 91                    CPI 091h
120D	C2 06 12                 JNZ lnqkf
1210	11 00 BF                 LXI D,lcunb
1213	3E 66           lnhfl:   MVI A,066h
1215	12                       STAX D
1216	13                       INX D
1217	7A                       MOV A,D
1218	FE C0                    CPI 0C0h
121A	C2 13 12                 JNZ lnhfl
121D	11 00 90                 LXI D,lcopl
1220	CD 26 12                 CALL lnqjp
1223	C3 34 12                 JMP ljxin
1226	3E FF           lnqjp:   MVI A,0FFh
1228	12                       STAX D
1229	13                       INX D
122A	12                       STAX D
122B	14                       INR D
122C	1D                       DCR E
122D	7A                       MOV A,D
122E	FE C0                    CPI 0C0h
1230	C2 26 12                 JNZ lnqjp
1233	C9                       RET
1234	11 04 90        ljxin:   LXI D,lclor
1237	CD 26 12                 CALL lnqjp
123A	11 FA 90                 LXI D,lghbg
123D	CD 26 12                 CALL lnqjp
1240	11 FE 90                 LXI D,lgeam
1243	CD 26 12                 CALL lnqjp
1246	11 18 94                 LXI D,lcoej
1249	CD 4F 12                 CALL lndxl
124C	C3 62 12                 JMP lntkn
124F	3E FF           lndxl:   MVI A,0FFh
1251	12                       STAX D
1252	13                       INX D
1253	3E 66                    MVI A,066h
1255	12                       STAX D
1256	13                       INX D
1257	12                       STAX D
1258	13                       INX D
1259	12                       STAX D
125A	13                       INX D
125B	7B                       MOV A,E
125C	FE E4                    CPI 0E4h
125E	C2 4F 12                 JNZ lndxl
1261	C9                       RET
1262	11 18 93        lntkn:   LXI D,lcocx
1265	CD 4F 12                 CALL lndxl
1268	11 18 96                 LXI D,lcoeb
126B	CD 4F 12                 CALL lndxl
126E	11 18 B9                 LXI D,lctzv
1271	CD 4F 12                 CALL lndxl
1274	11 18 BB                 LXI D,lctzn
1277	CD 4F 12                 CALL lndxl
127A	11 18 BC                 LXI D,lcuaz
127D	CD 4F 12                 CALL lndxl
1280	01 28 14                 LXI B,lkadl
1283	11 20 98                 LXI D,lcojx
1286	26 00                    MVI H,000h
1288	0A              lkacm:   LDAX B
1289	D6 01                    SUI 001h
128B	CA A1 12                 JZ ljoiq
128E	C6 01                    ADI 001h
1290	12                       STAX D
1291	13                       INX D
1292	03                       INX B
1293	24                       INR H
1294	7C                       MOV A,H
1295	FE 08                    CPI 008h
1297	C2 88 12                 JNZ lkacm
129A	14                       INR D
129B	14                       INR D
129C	26 00                    MVI H,000h
129E	C3 88 12                 JMP lkacm
12A1	01 C0 14        ljoiq:   LXI B,lkaoa
12A4	11 20 AB                 LXI D,lcsxv
12A7	26 00                    MVI H,000h
12A9	0A              ljnyu:   LDAX B
12AA	D6 01                    SUI 001h
12AC	CA BE 12                 JZ lnpxg
12AF	CD D2 12                 CALL lntiq
12B2	C2 A9 12                 JNZ ljnyu
12B5	14                       INR D
12B6	14                       INR D
12B7	26 00                    MVI H,000h
12B9	1E 20                    MVI E,020h
12BB	C3 A9 12                 JMP ljnyu
12BE	01 00 15        lnpxg:   LXI B,lkanz
12C1	11 A0 99                 LXI D,lcojy
12C4	26 00                    MVI H,000h
12C6	0A              lnqki:   LDAX B
12C7	D6 01                    SUI 001h
12C9	CA E8 12                 JZ lkaca
12CC	CD D2 12                 CALL lntiq
12CF	C3 DC 12                 JMP ljwzk
12D2	C6 01           lntiq:   ADI 001h
12D4	12                       STAX D
12D5	13                       INX D
12D6	03                       INX B
12D7	24                       INR H
12D8	7C                       MOV A,H
12D9	FE 08                    CPI 008h
12DB	C9                       RET
12DC	C2 C6 12        ljwzk:   JNZ lnqki
12DF	14                       INR D
12E0	14                       INR D
12E1	26 00                    MVI H,000h
12E3	1E A0                    MVI E,0A0h
12E5	C3 C6 12                 JMP lnqki
12E8	01 48 15        lkaca:   LXI B,lkaeh
12EB	11 1C 99                 LXI D,lckxn
12EE	2E 00                    MVI L,000h
12F0	C5              lkajk:   PUSH B
12F1	D5                       PUSH D
12F2	26 00                    MVI H,000h
12F4	0A              ljxiq:   LDAX B
12F5	D6 01                    SUI 001h
12F7	CA 00 13                 JZ lkaml
12FA	CD D2 12                 CALL lntiq
12FD	C2 F4 12                 JNZ ljxiq
1300	CD 31 13        lkaml:   CALL ljogh
1303	D1                       POP D
1304	01 88 15                 LXI B,lkaec
1307	26 00                    MVI H,000h
1309	0A              ljnzn:   LDAX B
130A	D6 01                    SUI 001h
130C	CA 15 13                 JZ ljlgd
130F	CD D2 12                 CALL lntiq
1312	C2 09 13                 JNZ ljnzn
1315	C1              ljlgd:   POP B
1316	79                       MOV A,C
1317	FE 78                    CPI 078h
1319	C2 25 13                 JNZ ljlhz
131C	0E 48                    MVI C,048h
131E	2C                       INR L
131F	7D                       MOV A,L
1320	FE 0A                    CPI 00Ah
1322	CA 60 13                 JZ lkalz
1325	79              ljlhz:   MOV A,C
1326	C6 10                    ADI 010h
1328	4F                       MOV C,A
1329	14                       INR D
132A	1D                       DCR E
132B	1D                       DCR E
132C	1D                       DCR E
132D	1D                       DCR E
132E	C3 F0 12                 JMP lkajk
1331	3E 01           ljogh:   MVI A,001h
1333	16 E0           lnhex:   MVI D,0E0h
1335	1E 80           ljlfn:   MVI E,080h
1337	1D              lneed:   DCR E
1338	C2 37 13                 JNZ lneed
133B	15                       DCR D
133C	C2 35 13                 JNZ ljlfn
133F	3D                       DCR A
1340	C2 33 13                 JNZ lnhex
1343	C9                       RET
1344	01 98 15        ljxlv:   LXI B,lkabq
1347	11 30 AF                 LXI D,lcswp
134A	26 00                    MVI H,000h
134C	0A              ljxbz:   LDAX B
134D	D6 01                    SUI 001h
134F	CA AB 13                 JZ lngxm
1352	CD D2 12                 CALL lntiq
1355	C2 4C 13                 JNZ ljxbz
1358	14                       INR D
1359	26 00                    MVI H,000h
135B	1E 30                    MVI E,030h
135D	C3 4C 13                 JMP ljxbz
1360	01 E0 15        lkalz:   LXI B,lkanm
1363	11 98 B8                 LXI D,lctzs
1366	21 00 00                 LXI H,00000h
1369	C5              ljnzb:   PUSH B
136A	D5                       PUSH D
136B	26 00                    MVI H,000h
136D	0A              ljkyh:   LDAX B
136E	D6 01                    SUI 001h
1370	CA 79 13                 JZ ljnwp
1373	CD D2 12                 CALL lntiq
1376	C2 6D 13                 JNZ ljkyh
1379	CD 31 13        ljnwp:   CALL ljogh
137C	D1                       POP D
137D	01 88 15                 LXI B,lkaec
1380	26 00                    MVI H,000h
1382	0A              lntla:   LDAX B
1383	D6 01                    SUI 001h
1385	CA 8E 13                 JZ lnqak
1388	CD D2 12                 CALL lntiq
138B	C2 82 13                 JNZ lntla
138E	C1              lnqak:   POP B
138F	79                       MOV A,C
1390	FE F0                    CPI 0F0h
1392	C2 A1 13                 JNZ ljois
1395	0E E0                    MVI C,0E0h
1397	2C                       INR L
1398	7D                       MOV A,L
1399	FE 09                    CPI 009h
139B	CA 44 13                 JZ ljxlv
139E	C3 A5 13                 JMP ljlhy
13A1	79              ljois:   MOV A,C
13A2	C6 10                    ADI 010h
13A4	4F                       MOV C,A
13A5	11 98 B8        ljlhy:   LXI D,lctzs
13A8	C3 69 13                 JMP ljnzb
13AB	01 00 16        lngxm:   LXI B,lkanp
13AE	11 C0 99                 LXI D,lcoks
13B1	26 00                    MVI H,000h
13B3	0A              lnhew:   LDAX B
13B4	D6 01                    SUI 001h
13B6	CA D2 13                 JZ lntis
13B9	C6 01                    ADI 001h
13BB	12                       STAX D
13BC	13                       INX D
13BD	12                       STAX D
13BE	13                       INX D
13BF	03                       INX B
13C0	24                       INR H
13C1	7C                       MOV A,H
13C2	FE 08                    CPI 008h
13C4	C2 B3 13                 JNZ lnhew
13C7	14                       INR D
13C8	14                       INR D
13C9	14                       INR D
13CA	14                       INR D
13CB	26 00                    MVI H,000h
13CD	1E C0                    MVI E,0C0h
13CF	C3 B3 13                 JMP lnhew
13D2	3E 0F           lntis:   MVI A,00Fh
13D4	CD 33 13                 CALL lnhex
13D7	CD 10 C0                 CALL ldlft
13DA	0E 1F                    MVI C,01Fh
13DC	CD 37 C0                 CALL lgozx
13DF	C3 05 00                 JMP ljjvl
13E2	07 6B BB B6              DB 007h, 06Bh, 0BBh, 0B6h, 0BBh, 0B7h, 0B7h, 0B7h, 000h, 0B0h
	. . .
13EA	00 B0 

13EC	7B 4B B7 B7              DB 07Bh, 04Bh, 0B7h, 0B7h, 0BBh
	. . .
13F0	BB 

13F1	7B B7 0B 20     ljogk:   DB 07Bh, 0B7h, 00Bh, 020h, 0B4h, 0B0h, 0B7h, 0B7h, 0B7h, 000h
	. . .
13F9	B7 00 

13FB	B0 7B B0 07              DB 0B0h, 07Bh, 0B0h, 007h, 007h, 0BBh, 070h, 0BBh
	. . .
13FF	07 BB 70 BB 

1403	BB B7 7B 01     lnhjl:   DB 0BBh, 0B7h, 07Bh, 001h, 0B7h, 0B7h, 0BBh, 0B0h, 0B0h, 07Bh
	. . .
140B	B0 7B 

140D	B7 BB B7 11              DB 0B7h, 0BBh, 0B7h, 011h, 07Bh, 010h, 000h, 01Bh, 071h, 07Bh
	. . .
1415	71 7B 

1417	44 B7 B0 00              DB 044h, 0B7h, 0B0h, 000h, 0BBh, 07Bh, 0B7h, 00Bh, 0BBh, 0BBh
	. . .
141F	BB BB 

1421	BB B7 7B BB              DB 0BBh, 0B7h, 07Bh, 0BBh, 0BBh, 070h, 0BBh
	. . .
1425	BB 70 BB 

1428	66 66 66 66     lkadl:   DB 066h, 066h, 066h, 066h, 03Eh, 006h, 006h, 006h, 07Eh, 066h
	. . .
1430	7E 66 

1432	66 66 66 66              DB 066h, 066h, 066h, 066h, 066h, 066h, 03Ch, 066h, 066h, 066h
	. . .
143A	66 66 

143C	66 66 66 3C              DB 066h, 066h, 066h, 03Ch, 000h, 000h, 000h, 000h, 000h, 000h
	. . .
1444	00 00 

1446	00 00 66 66              DB 000h, 000h, 066h, 066h, 066h, 000h, 000h, 000h, 000h, 000h
	. . .
144E	00 00 

1450	3C 66 06 06              DB 03Ch, 066h, 006h, 006h, 03Eh, 006h, 066h, 03Ch, 03Eh, 066h
	. . .
1458	3E 66 

145A	66 66 66 66              DB 066h, 066h, 066h, 066h, 0C6h, 0C6h, 0FEh, 060h, 060h, 060h
	. . .
1462	60 60 

1464	7C 60 60 FE              DB 07Ch, 060h, 060h, 0FEh, 063h, 066h, 06Ch, 078h, 07Ch, 066h
	. . .
146C	7C 66 

146E	63 63 FE FE              DB 063h, 063h, 0FEh, 0FEh, 030h, 030h, 030h, 030h, 030h, 030h
	. . .
1476	30 30 

1478	7E 66 66 66              DB 07Eh, 066h, 066h, 066h, 07Eh, 060h, 060h, 060h, 03Ch, 066h
	. . .
1480	3C 66 

1482	66 66 66 66              DB 066h, 066h, 066h, 066h, 066h, 03Ch, 066h, 066h, 066h, 066h
	. . .
148A	66 66 

148C	7E 66 66 66              DB 07Eh, 066h, 066h, 066h, 0C3h, 0E7h, 0FFh, 0DBh, 0C3h, 0C3h
	. . .
1494	C3 C3 

1496	C3 C3 3E 66              DB 0C3h, 0C3h, 03Eh, 066h, 066h, 066h, 07Eh, 066h, 066h, 066h
	. . .
149E	66 66 

14A0	DB DB DB DB              DB 0DBh, 0DBh, 0DBh, 0DBh, 0DBh, 0DBh, 0FFh, 0FFh, 066h, 066h
	. . .
14A8	66 66 

14AA	66 00 00 00              DB 066h, 000h, 000h, 000h, 000h, 000h, 001h, 007h, 0BBh, 0BBh
	. . .
14B2	BB BB 

14B4	1A 07 66 66              DB 01Ah, 007h, 066h, 066h, 060h, 000h, 007h, 000h, 000h, 066h
	. . .
14BC	00 66 

14BE	66 67                    DB 066h, 067h
14C0	3C 66 60 60     lkaoa:   DB 03Ch, 066h, 060h, 060h, 060h, 060h, 066h, 03Ch, 063h, 066h
	. . .
14C8	63 66 

14CA	6C 78 7C 66              DB 06Ch, 078h, 07Ch, 066h, 063h, 063h, 0FEh, 0FEh, 030h, 030h
	. . .
14D2	30 30 

14D4	30 30 30 30              DB 030h, 030h, 030h, 030h, 07Eh, 060h, 060h, 07Eh, 066h, 066h
	. . .
14DC	66 66 

14DE	66 7C 00 00              DB 066h, 07Ch, 000h, 000h, 000h, 000h, 000h, 000h, 000h, 000h
	. . .
14E6	00 00 

14E8	7E 66 64 7E              DB 07Eh, 066h, 064h, 07Eh, 066h, 066h, 066h, 07Ch, 0FEh, 0FEh
	. . .
14F0	FE FE 

14F2	30 30 30 30              DB 030h, 030h, 030h, 030h, 030h, 030h, 001h, 000h, 001h, 000h
	. . .
14FA	01 00 

14FC	01 00 01 00              DB 001h, 000h, 001h, 000h
1500	66 66 66 66     lkanz:   DB 066h, 066h, 066h, 066h, 03Eh, 006h, 006h, 006h, 0FEh, 060h
	. . .
1508	FE 60 

150A	60 60 7C 60              DB 060h, 060h, 07Ch, 060h, 060h, 0FEh, 07Eh, 066h, 066h, 066h
	. . .
1512	66 66 

1514	7E 60 60 60              DB 07Eh, 060h, 060h, 060h, 066h, 066h, 066h, 066h, 07Eh, 066h
	. . .
151C	7E 66 

151E	66 66 3C 66              DB 066h, 066h, 03Ch, 066h, 066h, 066h, 066h, 066h, 066h, 03Ch
	. . .
1526	66 3C 

1528	7E 66 64 7E              DB 07Eh, 066h, 064h, 07Eh, 066h, 066h, 066h, 07Ch, 066h, 066h
	. . .
1530	66 66 

1532	66 66 66 66              DB 066h, 066h, 066h, 066h, 07Fh, 07Fh, 063h, 063h, 063h, 073h
	. . .
153A	63 73 

153C	6B 6B 6B 73              DB 06Bh, 06Bh, 06Bh, 073h, 001h, 007h, 0BBh, 0BBh, 000h, 000h
	. . .
1544	00 00 

1546	00 00                    DB 000h, 000h
1548	0E 0E 3C 2F     lkaeh:   DB 00Eh, 00Eh, 03Ch, 02Fh, 02Ch, 00Eh, 005h, 00Ah, 001h, 007h
	. . .
1550	01 07 

1552	BB BB 00 00              DB 0BBh, 0BBh, 000h, 000h, 07Bh, 07Bh, 007h, 007h, 00Eh, 03Eh
	. . .
155A	0E 3E 

155C	0E 07 1E 06              DB 00Eh, 007h, 01Eh, 006h, 001h, 070h, 0BBh, 0BBh, 07Bh, 07Bh
	. . .
1564	7B 7B 

1566	7B 72 0E 0E              DB 07Bh, 072h, 00Eh, 00Eh, 03Ch, 02Fh, 02Ch, 00Eh, 005h, 00Ah
	. . .
156E	05 0A 

1570	01 70 BB BB              DB 001h, 070h, 0BBh, 0BBh, 07Bh, 070h, 07Bh, 0BBh, 00Eh, 00Eh
	. . .
1578	0E 0E 

157A	FC 1F 38 F6              DB 0FCh, 01Fh, 038h, 0F6h, 002h, 003h, 001h, 070h, 0BBh, 0BBh
	. . .
1582	BB BB 

1584	70 AA AA 00              DB 070h, 0AAh, 0AAh, 000h
1588	00 00 00 00     lkaec:   DB 000h, 000h, 000h, 000h, 000h, 000h, 000h, 000h, 001h, 070h
	. . .
1590	01 70 

1592	BB BB BB BB              DB 0BBh, 0BBh, 0BBh, 0BBh, 0BBh, 0BBh
	. . .
1596	BB BB 

1598	3C 66 66 66     lkabq:   DB 03Ch, 066h, 066h, 066h, 066h, 066h, 066h, 03Ch, 0FEh, 0FEh
	. . .
15A0	FE FE 

15A2	30 30 30 30              DB 030h, 030h, 030h, 030h, 030h, 030h, 03Eh, 066h, 066h, 066h
	. . .
15AA	66 66 

15AC	66 66 FF FF              DB 066h, 066h, 0FFh, 0FFh, 000h, 000h, 000h, 000h, 000h, 060h
	. . .
15B4	00 60 

15B6	60 60 00 00              DB 060h, 060h, 000h, 000h, 000h, 000h, 000h, 000h, 000h, 000h
	. . .
15BE	00 00 

15C0	06 06 06 06              DB 006h, 006h, 006h, 006h, 006h, 006h, 006h, 006h, 03Ch, 066h
	. . .
15C8	3C 66 

15CA	66 66 66 66              DB 066h, 066h, 066h, 066h, 066h, 03Ch, 03Ch, 066h, 066h, 066h
	. . .
15D2	66 66 

15D4	66 66 66 3C              DB 066h, 066h, 066h, 03Ch, 001h, 066h, 066h, 066h, 066h, 066h
	. . .
15DC	66 66 

15DE	66 67                    DB 066h, 067h
15E0	4E 4E 24 1E     lkanm:   DB 04Eh, 04Eh, 024h, 01Eh, 00Eh, 00Dh, 00Ah, 00Ah, 001h, 000h
	. . .
15E8	01 00 

15EA	00 00 00 07              DB 000h, 000h, 000h, 007h, 000h, 007h, 02Eh, 02Eh, 024h, 01Eh
	. . .
15F2	24 1E 

15F4	0E 0D 0A 0A              DB 00Eh, 00Dh, 00Ah, 00Ah, 001h, 0AAh, 07Ah, 000h, 007h, 000h
	. . .
15FC	07 00 

15FE	07 BB                    DB 007h, 0BBh
1600	66 66 66 00     lkanp:   DB 066h, 066h, 066h, 000h, 000h, 000h, 000h, 000h, 0FEh, 0FEh
	. . .
1608	FE FE 

160A	30 30 30 30              DB 030h, 030h, 030h, 030h, 030h, 030h, 0FEh, 060h, 060h, 060h
	. . .
1612	60 60 

1614	7C 60 60 FE              DB 07Ch, 060h, 060h, 0FEh, 0FEh, 0FEh, 030h, 030h, 030h, 030h
	. . .
161C	30 30 

161E	30 30 7C 66              DB 030h, 030h, 07Ch, 066h, 066h, 066h, 07Eh, 07Ch, 066h, 066h
	. . .
1626	66 66 

1628	30 30 00 30              DB 030h, 030h, 000h, 030h, 030h, 030h, 030h, 030h, 03Ch, 066h
	. . .
1630	3C 66 

1632	60 30 0C 06              DB 060h, 030h, 00Ch, 006h, 066h, 03Ch, 066h, 066h, 066h, 000h
	. . .
163A	66 00 

163C	00 00 00 00              DB 000h, 000h, 000h, 000h, 001h
	. . .
1640	01 

	                END
Labels:
end                     1641
lcjko                   8FFC	lckxn                   991C
lclor                   9004	lcncd                   8100
lcocx                   9318	lcoeb                   9618
lcoej                   9418	lcojx                   9820
lcojy                   99A0	lcoks                   99C0
lcopl                   9000	lcswp                   AF30
lcsxv                   AB20	lctzn                   BB18
lctzs                   B898	lctzv                   B918
lcuaz                   BC18	lcunb                   BF00
ldgqd                   FF01	ldlft                   C010
ldsqg                   FFF0	ldsss                   FFE0
ldstf                   FF00	lfymt                   B707
lgeam                   90FE	lghbg                   90FA
lgouq                   CAB7	lgozr                   C337
lgozx                   C037	lgpdp                   C427
lgwbe                   FFFF	lgwla                   FFF7
lgzot                   FF03	lhatc                   C0BE
lhlrv                   FF02	ljjdh                   0A3D
ljjea                   0ADD	ljjew                   0DBD
ljjiv                   021D	ljjjg                   00DD
ljjjl                   063D	ljjjy                   05FD
ljjkh                   075D	ljjkw                   03ED
ljjlp                   000D	ljjma                   06ED
ljjmo                   078D	ljjnx                   0A55
ljjoj                   0E35	ljjps                   0AE5
ljjqi                   0AC5	ljjsi                   00B5
ljjtl                   0675	ljjtw                   0695
ljjtx                   0615	ljjuf                   0415
ljjuk                   05D5	ljjvl                   0005
ljjvn                   0105	ljjwe                   04E5
ljjwr                   0405	ljkyh                   136D
ljlfn                   1335	ljlgd                   1315
ljlhy                   13A5	ljlhz                   1325
ljmgq                   0AE9	ljmht                   0E29
ljmjv                   0359	ljmlb                   0759
ljmln                   0329	ljmme                   02C9
ljmms                   07A9	ljmnu                   05C9
ljmoq                   0AD1	ljmqd                   0D11
ljmqm                   0AE1	ljmsn                   0C01
ljmsw                   03B1	ljmta                   03F1
ljmtu                   0191	ljmtw                   00D1
ljmvf                   0551	ljmvy                   0381
ljmwm                   06A1	ljmxc                   0681
ljmxo                   04C1	ljnwp                   1379
ljnyu                   12A9	ljnzb                   1369
ljnzn                   1309	ljogh                   1331
ljogk                   13F1	ljoiq                   12A1
ljois                   13A1	ljpog                   27CD
ljpxx                   2605	ljsyr                   2601
ljvgm                   0AFC	ljvgz                   0A1C
ljvhb                   0B1C	ljvhc                   0ADC
ljviy                   0AEC	ljvjn                   0B0C
ljvjo                   0ACC	ljvlj                   033C
ljvmk                   01DC	ljvmp                   073C
ljvms                   07FC	ljvmz                   047C
ljvnm                   059C	ljvot                   010C
ljvpp                   060C	ljvpv                   074C
ljvqy                   0AD4	ljvru                   0DB4
ljvsj                   0C14	ljvsu                   0AE4
ljvtk                   0AC4	ljvtm                   0BC4
ljvue                   0CA4	ljvwb                   0014
ljvxf                   0754	ljvxo                   02A4
ljvyd                   0164	ljvza                   07E4
ljvzn                   0704	ljvzx                   0444
ljwzk                   12DC	ljxbz                   134C
ljxfv                   1D14	ljxin                   1234
ljxiq                   12F4	ljxlv                   1344
ljyhw                   0AD8	ljyjs                   0AE8
ljyki                   0AC8	ljymk                   01B8
ljynd                   0058	ljynk                   06F8
ljyof                   0418	ljyoo                   03A8
ljyos                   03E8	ljyou                   00A8
ljyqc                   05A8	ljyqg                   05E8
ljyqh                   0568	ljyqu                   04C8
ljyto                   0AE0	ljyvg                   0E80
ljyvi                   0F80	ljyvw                   02B0
ljywa                   02F0	ljyws                   03D0
ljyxz                   0750	ljyya                   0490
ljyyl                   0320	ljzaf                   0600
lkabq                   1598	lkaca                   12E8
lkacm                   1288	lkadl                   1428
lkaec                   1588	lkaeh                   1548
lkajk                   12F0	lkalz                   1360
lkamj                   1200	lkaml                   1300
lkanm                   15E0	lkanp                   1600
lkanz                   1500	lkaoa                   14C0
lkxfl                   4000	lncgu                   02BF
lnchr                   035F	lncib                   063F
lncii                   04BF	lncja                   059F
lncje                   05DF	lncjh                   022F
lncjn                   036F	lncju                   01EF
lnckg                   018F	lnckv                   042F
lnclp                   044F	lncnx                   0C17
lncny                   0D97	lncof                   0A27
lncqt                   0337	lncrc                   00F7
lncrr                   0117	lncrw                   06B7
lnctc                   02A7	lnctf                   0327
lnctg                   02E7	lnctj                   0367
lncuc                   0187	lncum                   06E7
lncvj                   0507	lncvm                   05C7
lndxl                   124F	lneed                   1337
lnfcq                   0ABB	lnfdk                   0ADB
lnffg                   0AEB	lnffw                   0ACB
lnffx                   0A4B	lnfgd                   090B
lnfii                   02DB	lnfkr                   020B
lnfng                   0AD3	lnfnn                   0913
lnfpc                   0AE3	lnfps                   0AC3
lnfrd                   0C03	lnfrp                   0273
lnfrq                   03F3	lnfsd                   0313
lnftl                   0653	lnftu                   05D3
lnfvp                   0463	lngxm                   13AB
lngzj                   170B	lnhew                   13B3
lnhex                   1333	lnhfl                   1213
lnhjl                   1403	lnivp                   2007
lnjub                   3A4F	lnlnt                   240B
lnlxh                   2603	lnndh                   3E13
lnofs                   0ADE	lnoga                   08DE
lnoie                   0ACE	lnoij                   080E
lnojy                   03BE	lnokd                   037E
lnolb                   015E	lnolu                   079E
lnolw                   06DE	lnoma                   049E
lnomx                   016E	lnono                   06AE
lnonp                   062E	lnonq                   07AE
lnooh                   070E	lnooi                   06CE
lnool                   074E	lnopo                   0AD6
lnork                   0AE6	lnosa                   0AC6
lnotq                   0DC6	lnotu                   03B6
lnouw                   01D6	lnovc                   06F6
lnovi                   05B6	lnovl                   0476
lnovv                   0756	lnowq                   00E6
lnoxa                   03C6	lnoye                   06C6
lnoyf                   0646	lnoyg                   07C6
lnpxg                   12BE	lnqak                   138E
lnqjp                   1226	lnqkf                   1206
lnqki                   12C6	lnrgm                   0ADA
lnrii                   0AEA	lnriy                   0ACA
lnrlh                   021A	lnrlj                   031A
lnrlq                   019A	lnrme                   04BA
lnrms                   07DA	lnrnc                   02AA
lnrnd                   022A	lnron                   066A
lnrop                   076A	lnrpj                   050A
lnrpp                   0A32	lnrqi                   0AD2
lnrse                   0AE2	lnrsu                   0AC2
lnrwp                   0752	lnrxc                   02E2
lnryl                   0762	lnrzh                   0442
lntiq                   12D2	lntis                   13D2
lntkn                   1262	lntla                   1382
lnupu                   278E	lnuzq                   2786
lolif                   7A13	lolih                   7B13
louis                   77AE	
