	                ;*********************************************************************************************************
	                ; 
	                ; Autogenerated by DizAssembler:
	                ;   https://github.com/codenjoyme/8080-emulator/blob/master/src/main/java/spec/assembler/DizAssembler.java
	                ; From: src/main/resources/lik/apps/tetris2/tetris2.rks
	                ; In test: DizAssemblerTest.testDizAssembly()
	                ; 
	                ;*********************************************************************************************************
	                
	                         CPU  8080
	                         .ORG 00000h
	                lnqhc    EQU 012B6h
	                lnhhj    EQU 01323h
	                ljpmy    EQU 022CDh
	                lnltr    EQU 02313h
	                lnljv    EQU 0231Bh
	                lnisl    EQU 02377h
	                lcmsf    EQU 08008h
	                lcasc    EQU 08FF1h
	                lgftu    EQU 08FF2h
	                lcjuk    EQU 08FF4h
	                lcjko    EQU 08FFCh
	                lcstc    EQU 0A0A8h
	                lcsql    EQU 0A338h
	                lcsrx    EQU 0A438h
	                lcsmz    EQU 0AC38h
	                lcuqz    EQU 0B000h
	                lgozx    EQU 0C037h
	                ldlfj    EQU 0C170h
	                lgozr    EQU 0C337h
	                ldkwn    EQU 0C438h
	                ldstf    EQU 0FF00h
	                ldgqd    EQU 0FF01h
	                lhlrv    EQU 0FF02h
	                lgzot    EQU 0FF03h
0000	0E 1F                    MVI C,01Fh
0002	CD 37 C0                 CALL lgozx
0005	21 76 04                 LXI H,lnovl
0008	11 4D 03                 LXI D,ljjln
000B	0E 18                    MVI C,018h
000D	1A              ljjlp:   LDAX D
000E	77                       MOV M,A
000F	23                       INX H
0010	13                       INX D
0011	0D                       DCR C
0012	C2 0D 00                 JNZ ljjlp
0015	CD 00 05                 CALL ljzap
0018	0E 0C           ljymz:   MVI C,00Ch
001A	CD 37 C0                 CALL lgozx
001D	21 50 04                 LXI H,ljyyf
0020	CD 38 C4                 CALL ldkwn
0023	CD 80 05                 CALL ljzao
0026	E6 0F                    ANI 00Fh
0028	07                       RLC
0029	07                       RLC
002A	07                       RLC
002B	07                       RLC
002C	32 4F 04                 STA lnclp
002F	CD 99 03                 CALL ljmjq
0032	21 75 04                 LXI H,ljjtt
0035	0E 50                    MVI C,050h
0037	36 00           lncqz:   MVI M,000h
0039	23                       INX H
003A	0D                       DCR C
003B	C2 37 00                 JNZ lncqz
003E	3E FF                    MVI A,0FFh
0040	32 AE 04                 STA lnonw
0043	CD 64 03                 CALL ljvxv
0046	CD CB 03                 CALL lnfkw
0049	CD 00 06        ljmmn:   CALL ljzaf
004C	CD F0 06                 CALL ljyxg
004F	21 58 00                 LXI H,ljynd
0052	11 63 04                 LXI D,lnfvp
0055	C3 62 00                 JMP lnrxl
	                
0058	04 00 00 04     ljynd:   DB 004h, 000h, 000h, 004h, 000h, 000h, 000h, 001h, 000h, 000h
	. . .
0060	00 00 

0062	0E 0A           lnrxl:   MVI C,00Ah
0064	7E              ljvyb:   MOV A,M
0065	12                       STAX D
0066	23                       INX H
0067	13                       INX D
0068	0D                       DCR C
0069	C2 64 00                 JNZ ljvyb
006C	CD 40 01        ljvof:   CALL ljyzn
006F	CD 6D 01                 CALL ljjlf
0072	CD FC 01                 CALL ljvlu
0075	CD B4 01                 CALL ljvvm
0078	3A 6C 04                 LDA ljvpl
007B	FE 00                    CPI 000h
007D	C2 B1 00                 JNZ ljmtc
0080	3E 00                    MVI A,000h
0082	32 6A 04                 STA lnrov
0085	32 6D 04                 STA ljjmj
0088	CD D9 01                 CALL ljmkc
008B	CD 17 01                 CALL lncrr
008E	CD 00 05                 CALL ljzap
0091	3A 69 04                 LDA ljmnd
0094	FE 00                    CPI 000h
0096	CC 94 05                 CZ ljvxi
0099	3A 66 04                 LDA lnoxx
009C	32 63 04                 STA lnfvp
009F	3A 67 04                 LDA lncuv
00A2	32 64 04                 STA ljvzh
00A5	3A 68 04                 LDA ljyqf
00A8	32 65 04                 STA ljjwf
00AB	CD 1F 02                 CALL lnchl
00AE	C3 6C 00                 JMP ljvof
00B1	3A 6A 04        ljmtc:   LDA lnrov
00B4	FE 01                    CPI 001h
00B6	CA 18 00                 JZ ljymz
00B9	3A 67 04                 LDA lncuv
00BC	47                       MOV B,A
00BD	3A 64 04                 LDA ljvzh
00C0	B8                       CMP B
00C1	CA E5 00                 JZ ljjuy
00C4	3A 64 04        ljvyq:   LDA ljvzh
00C7	32 67 04                 STA lncuv
00CA	CD 40 01                 CALL ljyzn
00CD	CD 6D 01                 CALL ljjlf
00D0	CD FC 01                 CALL ljvlu
00D3	CD D9 01                 CALL ljmkc
00D6	CD 21 01                 CALL ljmvr
00D9	CD 17 01                 CALL lncrr
00DC	CD 1B 04                 CALL lnfjt
00DF	CD 2B 01                 CALL lnfkl
00E2	C3 49 00                 JMP ljmmn
00E5	3A 6D 04        ljjuy:   LDA ljjmj
00E8	FE 01                    CPI 001h
00EA	CA C4 00                 JZ ljvyq
00ED	3A 63 04                 LDA lnfvp
00F0	32 66 04                 STA lnoxx
00F3	3A 65 04                 LDA ljjwf
00F6	32 68 04                 STA ljyqf
00F9	3E 01                    MVI A,001h
00FB	32 6D 04                 STA ljjmj
00FE	3A 64 04                 LDA ljvzh
0101	3C                       INR A
0102	32 67 04                 STA lncuv
0105	C3 6C 00                 JMP ljvof
0108	3A 4F 04        ljypn:   LDA lnclp
010B	47                       MOV B,A
010C	0E FF           ljvot:   MVI C,0FFh
010E	0D              lnonj:   DCR C
010F	C2 0E 01                 JNZ lnonj
0112	05                       DCR B
0113	C2 0C 01                 JNZ ljvot
0116	C9                       RET
0117	21 76 04        lncrr:   LXI H,lnovl
011A	11 B6 04                 LXI D,lnovg
011D	CD 35 01                 CALL ljjsl
0120	C9                       RET
0121	21 96 04        ljmvr:   LXI H,lnovw
0124	11 B6 04                 LXI D,lnovg
0127	CD 35 01                 CALL ljjsl
012A	C9                       RET
012B	21 96 04        lnfkl:   LXI H,lnovw
012E	11 76 04                 LXI D,lnovl
0131	CD 35 01                 CALL ljjsl
0134	C9                       RET
0135	0E 18           ljjsl:   MVI C,018h
0137	1A              lncrb:   LDAX D
0138	77                       MOV M,A
0139	23                       INX H
013A	13                       INX D
013B	0D                       DCR C
013C	C2 37 01                 JNZ lncrb
013F	C9                       RET
0140	CD 51 01        ljyzn:   CALL ljmtz
0143	11 D6 04                 LXI D,lnowa
0146	0E 04                    MVI C,004h
0148	7E              ljypr:   MOV A,M
0149	12                       STAX D
014A	23                       INX H
014B	13                       INX D
014C	0D                       DCR C
014D	C2 48 01                 JNZ ljypr
0150	C9                       RET
0151	21 7D 02        ljmtz:   LXI H,ljjij
0154	3A 28 06                 LDA ljypt
0157	16 00                    MVI D,000h
0159	5F                       MOV E,A
015A	0E 10                    MVI C,010h
015C	19              ljvml:   DAD D
015D	0D                       DCR C
015E	C2 5C 01                 JNZ ljvml
0161	3A 68 04                 LDA ljyqf
0164	5F                       MOV E,A
0165	0E 04                    MVI C,004h
0167	19              lnctr:   DAD D
0168	0D                       DCR C
0169	C2 67 01                 JNZ lnctr
016C	C9                       RET
016D	21 6C 04        ljjlf:   LXI H,ljvpl
0170	36 00                    MVI M,000h
0172	11 D6 04                 LXI D,lnowa
0175	3A 66 04                 LDA lnoxx
0178	FE 04                    CPI 004h
017A	C8                       RZ
017B	DA 95 01                 JC ljjta
017E	D6 04                    SUI 004h
0180	47                       MOV B,A
0181	0E 04           ljmwg:   MVI C,004h
0183	D5                       PUSH D
0184	E1                       POP H
0185	7E              ljjvm:   MOV A,M
0186	0F                       RRC
0187	DA AE 01                 JC lnoms
018A	77                       MOV M,A
018B	23                       INX H
018C	0D                       DCR C
018D	C2 85 01                 JNZ ljjvm
0190	05                       DCR B
0191	C2 81 01                 JNZ ljmwg
0194	C9                       RET
0195	47              ljjta:   MOV B,A
0196	3E 04                    MVI A,004h
0198	90                       SUB B
0199	47                       MOV B,A
019A	0E 04           lnrlq:   MVI C,004h
019C	D5                       PUSH D
019D	E1                       POP H
019E	7E              lnokw:   MOV A,M
019F	07                       RLC
01A0	DA AE 01                 JC lnoms
01A3	77                       MOV M,A
01A4	23                       INX H
01A5	0D                       DCR C
01A6	C2 9E 01                 JNZ lnokw
01A9	05                       DCR B
01AA	C2 9A 01                 JNZ lnrlq
01AD	C9                       RET
01AE	21 6C 04        lnoms:   LXI H,ljvpl
01B1	36 01                    MVI M,001h
01B3	C9                       RET
01B4	3A CE 04        ljvvm:   LDA lnooq
01B7	FE 00                    CPI 000h
01B9	C2 D3 01                 JNZ lnfso
01BC	21 96 04                 LXI H,lnovw
01BF	11 B6 04                 LXI D,lnovg
01C2	0E 18                    MVI C,018h
01C4	46              ljvys:   MOV B,M
01C5	1A                       LDAX D
01C6	A8                       XRA B
01C7	A0                       ANA B
01C8	B8                       CMP B
01C9	C2 D3 01                 JNZ lnfso
01CC	23                       INX H
01CD	13                       INX D
01CE	0D                       DCR C
01CF	C2 C4 01                 JNZ ljvys
01D2	C9                       RET
01D3	3E 01           lnfso:   MVI A,001h
01D5	32 6C 04                 STA ljvpl
01D8	C9                       RET
01D9	21 96 04        ljmkc:   LXI H,lnovw
01DC	11 B6 04                 LXI D,lnovg
01DF	0E 18                    MVI C,018h
01E1	1A              ljmvu:   LDAX D
01E2	B6                       ORA M
01E3	12                       STAX D
01E4	23                       INX H
01E5	13                       INX D
01E6	0D                       DCR C
01E7	C2 E1 01                 JNZ ljmvu
01EA	C9                       RET
01EB	21 76 04 11              DB 021h, 076h, 004h, 011h, 0B6h, 004h, 00Eh, 018h, 01Ah, 077h
	. . .
01F3	1A 77 

01F5	23 13 0D C2              DB 023h, 013h, 00Dh, 0C2h, 0F3h, 001h, 0C9h
	. . .
01F9	F3 01 C9 

01FC	21 B6 04        ljvlu:   LXI H,lnovg
01FF	0E 19                    MVI C,019h
0201	E5                       PUSH H
0202	36 00           lnrxp:   MVI M,000h
0204	23                       INX H
0205	0D                       DCR C
0206	C2 02 02                 JNZ lnrxp
0209	E1                       POP H
020A	3A 67 04                 LDA lncuv
020D	5F                       MOV E,A
020E	16 00                    MVI D,000h
0210	19                       DAD D
0211	11 D6 04                 LXI D,lnowa
0214	0E 04                    MVI C,004h
0216	1A              lnouj:   LDAX D
0217	77                       MOV M,A
0218	23                       INX H
0219	13                       INX D
021A	0D                       DCR C
021B	C2 16 02                 JNZ lnouj
021E	C9                       RET
021F	C5              lnchl:   PUSH B
0220	F5                       PUSH PSW
0221	CD 34 06                 CALL ljvwj
0224	FE 08                    CPI 008h
0226	CA 42 02                 JZ lnrxt
0229	FE 18                    CPI 018h
022B	CA 4C 02                 JZ ljvon
022E	FE 19                    CPI 019h
0230	CA 56 02                 JZ lnoun
0233	FE 1A                    CPI 01Ah
0235	CA 67 02                 JZ lncth
0238	3A 64 04                 LDA ljvzh
023B	3C                       INR A
023C	32 67 04                 STA lncuv
023F	C3 76 02                 JMP lnotx
0242	3A 63 04        lnrxt:   LDA lnfvp
0245	3D                       DCR A
0246	32 66 04                 STA lnoxx
0249	C3 76 02                 JMP lnotx
024C	3A 63 04        ljvon:   LDA lnfvp
024F	3C                       INR A
0250	32 66 04                 STA lnoxx
0253	C3 76 02                 JMP lnotx
0256	3A 65 04        lnoun:   LDA ljjwf
0259	3C                       INR A
025A	FE 04                    CPI 004h
025C	C2 61 02                 JNZ ljmvl
025F	3E 00                    MVI A,000h
0261	32 68 04        ljmvl:   STA ljyqf
0264	C3 76 02                 JMP lnotx
0267	3E 01           lncth:   MVI A,001h
0269	32 69 04                 STA ljmnd
026C	3A 64 04                 LDA ljvzh
026F	3C                       INR A
0270	32 67 04                 STA lncuv
0273	C3 7A 02                 JMP lnrkv
0276	AF              lnotx:   XRA A
0277	32 69 04                 STA ljmnd
027A	F1              lnrkv:   POP PSW
027B	C1                       POP B
027C	C9                       RET
	                
027D	10 10 10 10     ljjij:   DB 010h, 010h, 010h, 010h, 000h, 078h, 000h, 000h, 010h, 010h
	. . .
0285	10 10 

0287	10 10 00 78              DB 010h, 010h, 000h, 078h, 000h, 000h, 000h, 018h, 018h, 000h
	. . .
028F	18 00 

0291	00 18 18 00              DB 000h, 018h, 018h, 000h, 000h, 018h, 018h, 000h, 000h, 018h
	. . .
0299	00 18 

029B	18 00 00 20              DB 018h, 000h, 000h, 020h, 038h, 000h, 000h, 018h, 010h, 010h
	. . .
02A3	10 10 

02A5	00 00 38 08              DB 000h, 000h, 038h, 008h, 000h, 010h, 010h, 030h, 000h, 010h
	. . .
02AD	00 10 

02AF	38 00 00 10              DB 038h, 000h, 000h, 010h, 018h, 010h, 000h, 000h, 038h, 010h
	. . .
02B7	38 10 

02B9	00 10 30 10              DB 000h, 010h, 030h, 010h, 000h, 008h, 038h, 000h, 000h, 010h
	. . .
02C1	00 10 

02C3	10 18 00 00              DB 010h, 018h, 000h, 000h, 038h, 020h, 000h, 030h, 010h, 010h
	. . .
02CB	10 10 

02CD	00 18 30 00              DB 000h, 018h, 030h, 000h, 000h, 010h, 018h, 008h, 000h, 018h
	. . .
02D5	00 18 

02D7	30 00 00 10              DB 030h, 000h, 000h, 010h, 018h, 008h, 000h, 030h, 018h, 000h
	. . .
02DF	18 00 

02E1	00 08 18 10              DB 000h, 008h, 018h, 010h, 000h, 030h, 018h, 000h, 000h, 008h
	. . .
02E9	00 08 

02EB	18 10                    DB 018h, 010h
02ED	20 80 2B 60     ljjku:   DB 020h, 080h, 02Bh, 060h, 033h, 050h, 030h, 055h, 02Bh, 060h
	. . .
02F5	2B 60 

02F7	33 50 2B 60              DB 033h, 050h, 02Bh, 060h, 030h, 055h, 02Bh, 060h, 022h, 078h
	. . .
02FF	22 78 

0301	26 6B AB 80              DB 026h, 06Bh, 0ABh, 080h, 020h, 080h, 02Bh, 060h, 033h, 050h
	. . .
0309	33 50 

030B	30 55 2B 60              DB 030h, 055h, 02Bh, 060h, 033h, 050h, 02Bh, 060h, 030h, 055h
	. . .
0313	30 55 

0315	2B 60 20 80              DB 02Bh, 060h, 020h, 080h, 01Eh, 087h, 098h, 08Fh, 01Dh, 08Fh
	. . .
031D	1D 8F 

031F	22 78 28 65              DB 022h, 078h, 028h, 065h, 0FFh, 055h, 01Dh, 08Fh, 022h, 078h
	. . .
0327	22 78 

0329	28 65 E4 60              DB 028h, 065h, 0E4h, 060h, 020h, 080h, 026h, 06Bh, 022h, 078h
	. . .
0331	22 78 

0333	22 78 20 80              DB 022h, 078h, 020h, 080h, 026h, 06Bh, 022h, 078h, 022h, 078h
	. . .
033B	22 78 

033D	20 7F 10 FF              DB 020h, 07Fh, 010h, 0FFh, 014h, 0CAh, 055h, 0BFh, 000h, 000h
	. . .
0345	00 00 

0347	00 00 00 00              DB 000h, 000h, 000h, 000h, 000h, 000h
	. . .
034B	00 00 

034D	00 70 20 2E     ljjln:   DB 000h, 070h, 020h, 02Eh, 028h, 00Ch, 0E8h, 04Eh, 040h, 04Eh
	. . .
0355	40 4E 

0357	0A 0E 0C 4A              DB 00Ah, 00Eh, 00Ch, 04Ah, 000h, 04Eh, 048h, 04Eh, 042h, 00Eh
	. . .
035F	42 0E 

0361	00 55 AA                 DB 000h, 055h, 0AAh
0364	C5              ljvxv:   PUSH B
0365	E5                       PUSH H
0366	F5                       PUSH PSW
0367	3E 33                    MVI A,033h
0369	21 38 A3                 LXI H,lcsql
036C	0E C8                    MVI C,0C8h
036E	CD 91 03                 CALL ljmtm
0371	21 38 AC                 LXI H,lcsmz
0374	0E C8                    MVI C,0C8h
0376	CD 91 03                 CALL ljmtm
0379	26 A4                    MVI H,0A4h
037B	CD 82 03                 CALL lnrxq
037E	F1                       POP PSW
037F	E1                       POP H
0380	C1                       POP B
0381	C9                       RET
0382	06 08           lnrxq:   MVI B,008h
0384	0E 08           ljvyg:   MVI C,008h
0386	2E F8                    MVI L,0F8h
0388	CD 91 03                 CALL ljmtm
038B	24                       INR H
038C	05                       DCR B
038D	C2 84 03                 JNZ ljvyg
0390	C9                       RET
0391	77              ljmtm:   MOV M,A
0392	07                       RLC
0393	2C                       INR L
0394	0D                       DCR C
0395	C2 91 03                 JNZ ljmtm
0398	C9                       RET
0399	E5              ljmjq:   PUSH H
039A	D5                       PUSH D
039B	F5                       PUSH PSW
039C	21 ED 02                 LXI H,ljjku
039F	11 F2 8F                 LXI D,lgftu
03A2	7E              lnrxa:   MOV A,M
03A3	FE 00                    CPI 000h
03A5	CA B8 03                 JZ ljymc
03A8	12                       STAX D
03A9	1B                       DCX D
03AA	23                       INX H
03AB	7E                       MOV A,M
03AC	12                       STAX D
03AD	13                       INX D
03AE	23                       INX H
03AF	CD 70 C1                 CALL ldlfj
03B2	CD BC 03                 CALL ljvli
03B5	C3 A2 03                 JMP lnrxa
03B8	F1              ljymc:   POP PSW
03B9	D1                       POP D
03BA	E1                       POP H
03BB	C9                       RET
03BC	C5              ljvli:   PUSH B
03BD	06 25                    MVI B,025h
03BF	0E FF           lncgw:   MVI C,0FFh
03C1	0D              ljmwc:   DCR C
03C2	C2 C1 03                 JNZ ljmwc
03C5	05                       DCR B
03C6	C2 BF 03                 JNZ lncgw
03C9	C1                       POP B
03CA	C9                       RET
03CB	E5              lnfkw:   PUSH H
03CC	21 00 00                 LXI H,00000h
03CF	22 01 04                 SHLD ljmxl
03D2	E1                       POP H
03D3	C9                       RET
03D4	C5              ljvvy:   PUSH B
03D5	F5                       PUSH PSW
03D6	E5                       PUSH H
03D7	2A 01 04                 LHLD ljmxl
03DA	7D                       MOV A,L
03DB	06 01                    MVI B,001h
03DD	80                       ADD B
03DE	27                       DAA
03DF	6F                       MOV L,A
03E0	D2 E9 03                 JNC ljmlq
03E3	7C                       MOV A,H
03E4	06 01                    MVI B,001h
03E6	80                       ADD B
03E7	27                       DAA
03E8	67                       MOV H,A
03E9	22 01 04        ljmlq:   SHLD ljmxl
03EC	21 08 80                 LXI H,lcmsf
03EF	22 FC 8F                 SHLD lcjko
03F2	2A 01 04                 LHLD ljmxl
03F5	7C                       MOV A,H
03F6	CD 03 04                 CALL lnfwb
03F9	7D                       MOV A,L
03FA	CD 03 04                 CALL lnfwb
03FD	E1                       POP H
03FE	F1                       POP PSW
03FF	C1                       POP B
0400	C9                       RET
	                
0401	23 00           ljmxl:   DB 023h, 000h
0403	F5              lnfwb:   PUSH PSW
0404	E6 F0                    ANI 0F0h
0406	0F                       RRC
0407	0F                       RRC
0408	0F                       RRC
0409	0F                       RRC
040A	CD 14 04                 CALL ljvxh
040D	F1                       POP PSW
040E	E6 0F                    ANI 00Fh
0410	CD 14 04                 CALL ljvxh
0413	C9                       RET
0414	F6 30           ljvxh:   ORI 030h
0416	4F                       MOV C,A
0417	CD 37 C0                 CALL lgozx
041A	C9                       RET
041B	21 8D 04        lnfjt:   LXI H,ljjmu
041E	0E 18                    MVI C,018h
0420	7E              ljyzx:   MOV A,M
0421	FE FF                    CPI 0FFh
0423	CA 2F 04                 JZ lnckv
0426	2B                       DCX H
0427	0D                       DCR C
0428	C2 20 04                 JNZ ljyzx
042B	CD 00 05                 CALL ljzap
042E	C9                       RET
042F	2B              lnckv:   DCX H
0430	7E                       MOV A,M
0431	23                       INX H
0432	77                       MOV M,A
0433	2B                       DCX H
0434	0D                       DCR C
0435	C2 2F 04                 JNZ lnckv
0438	CD 00 05                 CALL ljzap
043B	CD 41 04                 CALL ljmxp
043E	C3 1B 04                 JMP lnfjt
0441	3E 80           ljmxp:   MVI A,080h
0443	32 F1 8F                 STA lcasc
0446	3E 10                    MVI A,010h
0448	32 F2 8F                 STA lgftu
044B	CD 70 C1                 CALL ldlfj
044E	C9                       RET
	                
044F	10              lnclp:   DB 010h
0450	20 20 73 6B     ljyyf:   DB 020h, 020h, 073h, 06Bh, 06Fh, 072h, 06Fh, 073h, 074h, 078h
	. . .
0458	74 78 

045A	20 28 30 2D              DB 020h, 028h, 030h, 02Dh, 039h, 029h, 020h, 03Fh, 000h
	. . .
0462	00 

0463	04              lnfvp:   DB 004h
0464	00              ljvzh:   DB 000h
0465	00              ljjwf:   DB 000h
0466	04              lnoxx:   DB 004h
0467	00              lncuv:   DB 000h
0468	00              ljyqf:   DB 000h
0469	00              ljmnd:   DB 000h
046A	01 00           lnrov:   DB 001h, 000h
046C	01              ljvpl:   DB 001h
046D	00 D1 E1 C9     ljjmj:   DB 000h, 0D1h, 0E1h, 0C9h, 0E5h, 0C5h, 00Eh, 008h
	. . .
0471	E5 C5 0E 08 

0475	00              ljjtt:   DB 000h
0476	00 18 30 18     lnovl:   DB 000h, 018h, 030h, 018h, 030h, 020h, 038h, 010h, 010h, 010h
	. . .
047E	10 10 

0480	30 FB 33 32              DB 030h, 0FBh, 033h, 032h, 01Fh, 01Bh, 0DFh, 07Fh, 0DAh, 0D7h
	. . .
0488	DA D7 

048A	FB E6 EC                 DB 0FBh, 0E6h, 0ECh
048D	3F 00 00 00     ljjmu:   DB 03Fh, 000h, 000h, 000h, 000h, 000h, 000h, 000h, 000h
	. . .
0495	00 

0496	00 18 30 18     lnovw:   DB 000h, 018h, 030h, 018h, 030h, 020h, 038h, 010h, 010h, 010h
	. . .
049E	10 10 

04A0	30 FB 33 32              DB 030h, 0FBh, 033h, 032h, 01Fh, 01Bh, 0DFh, 07Fh, 0DAh, 0D7h
	. . .
04A8	DA D7 

04AA	FB E6 EC 3F              DB 0FBh, 0E6h, 0ECh, 03Fh
04AE	FF 00 00 00     lnonw:   DB 0FFh, 000h, 000h, 000h, 000h, 000h, 000h, 000h
	. . .
04B2	00 00 00 00 

04B6	00 18 18 00     lnovg:   DB 000h, 018h, 018h, 000h, 000h, 000h, 000h, 000h, 000h, 000h
	. . .
04BE	00 00 

04C0	00 00 00 00              DB 000h, 000h, 000h, 000h, 000h, 000h, 000h, 000h, 000h, 000h
	. . .
04C8	00 00 

04CA	00 00 00 00              DB 000h, 000h, 000h, 000h
04CE	00 00 00 72     lnooq:   DB 000h, 000h, 000h, 072h, 06Fh, 000h, 000h, 000h
	. . .
04D2	6F 00 00 00 

04D6	00 18 18 00     lnowa:   DB 000h, 018h, 018h, 000h, 000h, 000h, 000h, 000h, 000h, 000h
	. . .
04DE	00 00 

04E0	00 00 00 00              DB 000h, 000h, 000h, 000h, 000h, 000h, 000h, 000h, 000h, 000h
	. . .
04E8	00 00 

04EA	00 00 00 00              DB 000h, 000h, 000h, 000h, 000h, 000h, 000h, 000h, 000h, 000h
	. . .
04F2	00 00 

04F4	00 00 00 00              DB 000h, 000h, 000h, 000h, 000h, 000h, 000h, 000h, 000h, 000h
	. . .
04FC	00 00 

04FE	00 00                    DB 000h, 000h
0500	E5              ljzap:   PUSH H
0501	D5                       PUSH D
0502	C5                       PUSH B
0503	F5                       PUSH PSW
0504	21 38 A4                 LXI H,lcsrx
0507	11 76 04                 LXI D,lnovl
050A	0E 18                    MVI C,018h
050C	1A              ljvpz:   LDAX D
050D	CD 22 05                 CALL lnryp
0510	13                       INX D
0511	23                       INX H
0512	23                       INX H
0513	23                       INX H
0514	23                       INX H
0515	23                       INX H
0516	23                       INX H
0517	23                       INX H
0518	23                       INX H
0519	0D                       DCR C
051A	C2 0C 05                 JNZ ljvpz
051D	F1                       POP PSW
051E	C1                       POP B
051F	D1                       POP D
0520	E1                       POP H
0521	C9                       RET
0522	E5              lnryp:   PUSH H
0523	C5                       PUSH B
0524	0E 08                    MVI C,008h
0526	07              lnoxv:   RLC
0527	DA 35 05                 JC ljjtr
052A	CD 58 05                 CALL ljyol
052D	24              ljjmh:   INR H
052E	0D                       DCR C
052F	CA 3B 05                 JZ lnfjf
0532	C3 26 05                 JMP lnoxv
0535	CD 3E 05        ljjtr:   CALL lnoln
0538	C3 2D 05                 JMP ljjmh
053B	C1              lnfjf:   POP B
053C	E1                       POP H
053D	C9                       RET
053E	E5              lnoln:   PUSH H
053F	36 7F                    MVI M,07Fh
0541	23                       INX H
0542	36 6B                    MVI M,06Bh
0544	23                       INX H
0545	36 55                    MVI M,055h
0547	23                       INX H
0548	36 6B                    MVI M,06Bh
054A	23                       INX H
054B	36 55                    MVI M,055h
054D	23                       INX H
054E	36 6B                    MVI M,06Bh
0550	23                       INX H
0551	36 7F                    MVI M,07Fh
0553	23                       INX H
0554	36 00                    MVI M,000h
0556	E1                       POP H
0557	C9                       RET
0558	E5              ljyol:   PUSH H
0559	36 00                    MVI M,000h
055B	23                       INX H
055C	36 00                    MVI M,000h
055E	23                       INX H
055F	36 00                    MVI M,000h
0561	23                       INX H
0562	36 00                    MVI M,000h
0564	23                       INX H
0565	36 00                    MVI M,000h
0567	23                       INX H
0568	36 00                    MVI M,000h
056A	23                       INX H
056B	36 00                    MVI M,000h
056D	23                       INX H
056E	36 00                    MVI M,000h
0570	23                       INX H
0571	E1                       POP H
0572	C9                       RET
0573	00 00 00 00              DB 000h, 000h, 000h, 000h, 000h, 000h, 000h, 000h, 000h, 000h
	. . .
057B	00 00 

057D	00 00 00                 DB 000h, 000h, 000h
0580	CD 37 C3        ljzao:   CALL lgozr
0583	FE 30                    CPI 030h
0585	DA 80 05                 JC ljzao
0588	FE 3A                    CPI 03Ah
058A	D2 80 05                 JNC ljzao
058D	3C                       INR A
058E	0E 1F                    MVI C,01Fh
0590	CD 37 C0                 CALL lgozx
0593	C9                       RET
0594	3A 67 04        ljvxi:   LDA lncuv
0597	C6 04                    ADI 004h
0599	17                       RAL
059A	17                       RAL
059B	32 F1 8F                 STA lcasc
059E	3E 08                    MVI A,008h
05A0	32 F2 8F                 STA lgftu
05A3	CD 70 C1                 CALL ldlfj
05A6	CD 08 01                 CALL ljypn
05A9	C9                       RET
05AA	00 00 00 00              DB 000h, 000h, 000h, 000h, 000h, 000h, 036h, 032h, 034h, 030h
	. . .
05B2	34 30 

05B4	39 30 20 20              DB 039h, 030h, 020h, 020h, 020h, 020h, 073h, 077h, 065h, 072h
	. . .
05BC	65 72 

05BE	64 6C 6F 77              DB 064h, 06Ch, 06Fh, 077h, 073h, 06Bh, 061h, 071h, 009h, 06Fh
	. . .
05C6	09 6F 

05C8	62 6C 2E 67              DB 062h, 06Ch, 02Eh, 067h, 02Eh, 070h, 06Fh, 06Ch, 065h, 077h
	. . .
05D0	65 77 

05D2	73 6B 6F 6A              DB 073h, 06Bh, 06Fh, 06Ah, 020h, 032h, 02Dh, 06Ah, 020h, 06Dh
	. . .
05DA	20 6D 

05DC	2F 72 2D 6E              DB 02Fh, 072h, 02Dh, 06Eh, 020h, 032h, 02Ch, 032h, 077h, 079h
	. . .
05E4	77 79 

05E6	7E 65 67 76              DB 07Eh, 065h, 067h, 076h, 061h, 06Eh, 069h, 06Eh, 020h, 061h
	. . .
05EE	20 61 

05F0	2E 6C 2E 20              DB 02Eh, 06Ch, 02Eh, 020h, 074h, 065h, 06Ch, 020h, 032h, 020h
	. . .
05F8	32 20 

05FA	30 35 20 31              DB 030h, 035h, 020h, 031h, 033h, 000h
	. . .
05FE	33 00 

0600	CD 11 06        ljzaf:   CALL ljmur
0603	3A 26 06                 LDA lnoxl
0606	E6 07                    ANI 007h
0608	FE 07                    CPI 007h
060A	CA 00 06                 JZ ljzaf
060D	32 28 06                 STA ljypt
0610	C9                       RET
0611	2A 26 06        ljmur:   LHLD lnoxl
0614	0E 10                    MVI C,010h
0616	7C              lnovp:   MOV A,H
0617	29                       DAD H
0618	E6 60                    ANI 060h
061A	EA 1E 06                 JPE lnolt
061D	23                       INX H
061E	0D              lnolt:   DCR C
061F	C2 16 06                 JNZ lnovp
0622	22 26 06                 SHLD lnoxl
0625	C9                       RET
	                
0626	61 8B           lnoxl:   DB 061h, 08Bh
0628	01              ljypt:   DB 001h
0629	3E 82           ljmmr:   MVI A,082h
062B	32 03 FF        lnflh:   STA lgzot
062E	C9                       RET
062F	3E 91           lnckn:   MVI A,091h
0631	C3 2B 06                 JMP lnflh
0634	C5              ljvwj:   PUSH B
0635	D5                       PUSH D
0636	E5                       PUSH H
0637	21 A7 06                 LXI H,006A7h
063A	11 0C 00                 LXI D,0000Ch
063D	CD 2F 06                 CALL lnckn
0640	0E 01                    MVI C,001h
0642	3A 02 FF                 LDA lhlrv
0645	07                       RLC
0646	07                       RLC
0647	07                       RLC
0648	07                       RLC
0649	06 04                    MVI B,004h
064B	23              lnfmb:   INX H
064C	07                       RLC
064D	D2 60 06                 JNC ljyzt
0650	05                       DCR B
0651	C2 4B 06                 JNZ lnfmb
0654	3A 00 FF                 LDA ldstf
0657	06 08                    MVI B,008h
0659	0D                       DCR C
065A	CA 4B 06                 JZ lnfmb
065D	C3 72 06                 JMP lnrvx
0660	CD 29 06        ljyzt:   CALL ljmmr
0663	3A 01 FF                 LDA ldgqd
0666	07                       RLC
0667	06 05                    MVI B,005h
0669	19              ljmmv:   DAD D
066A	07                       RLC
066B	D2 7A 06                 JNC lnrmb
066E	05                       DCR B
066F	C2 69 06                 JNZ ljmmv
0672	CD 29 06        lnrvx:   CALL ljmmr
0675	3E FF                    MVI A,0FFh
0677	C3 A8 06                 JMP ljyps
067A	3A 01 FF        lnrmb:   LDA ldgqd
067D	E6 02                    ANI 002h
067F	0F                       RRC
0680	5F                       MOV E,A
0681	7E                       MOV A,M
0682	FE 21                    CPI 021h
0684	DA A8 06                 JC ljyps
0687	FE 80                    CPI 080h
0689	D2 A8 06                 JNC ljyps
068C	1D                       DCR E
068D	C2 9C 06                 JNZ ljvnc
0690	FE 40                    CPI 040h
0692	DA A8 06                 JC ljyps
0695	3A F4 8F                 LDA lcjuk
0698	86                       ADD M
0699	C3 A8 06                 JMP ljyps
069C	FE 40           ljvnc:   CPI 040h
069E	DA A6 06                 JC lnoxk
06A1	E6 1F                    ANI 01Fh
06A3	C3 A8 06                 JMP ljyps
06A6	EE 10           lnoxk:   XRI 010h
06A8	E1              ljyps:   POP H
06A9	D1                       POP D
06AA	C1                       POP B
06AB	C9                       RET
06AC	CD 34 06 3C              DB 0CDh, 034h, 006h, 03Ch, 0C8h, 03Eh, 0FFh, 0C9h, 03Bh, 031h
	. . .
06B4	3B 31 

06B6	32 33 34 35              DB 032h, 033h, 034h, 035h, 036h, 037h, 038h, 039h, 030h, 02Dh
	. . .
06BE	30 2D 

06C0	4A 43 55 4B              DB 04Ah, 043h, 055h, 04Bh, 045h, 04Eh, 047h, 05Bh, 05Dh, 05Ah
	. . .
06C8	5D 5A 

06CA	48 3A 46 59              DB 048h, 03Ah, 046h, 059h, 057h, 041h, 050h, 052h, 04Fh, 04Ch
	. . .
06D2	4F 4C 

06D4	44 56 5C 2E              DB 044h, 056h, 05Ch, 02Eh, 051h, 05Eh, 053h, 04Dh, 049h, 054h
	. . .
06DC	49 54 

06DE	58 42 40 2C              DB 058h, 042h, 040h, 02Ch, 02Fh, 05Fh, 081h, 00Ch, 019h, 01Ah
	. . .
06E6	19 1A 

06E8	8B 8C 20 08              DB 08Bh, 08Ch, 020h, 008h, 080h, 018h, 01Fh, 00Dh
	. . .
06EC	80 18 1F 0D 

06F0	21 00 B0        ljyxg:   LXI H,lcuqz
06F3	AF                       XRA A
06F4	CD 22 05                 CALL lnryp
06F7	C3 D4 03                 JMP ljvvy
06FA	E6 D0 00 00              DB 0E6h, 0D0h, 000h, 000h, 000h, 000h
	. . .
06FE	00 00 

	                END
Labels:
end                     0700
lcasc                   8FF1	lcjko                   8FFC
lcjuk                   8FF4	lcmsf                   8008
lcsmz                   AC38	lcsql                   A338
lcsrx                   A438	lcstc                   A0A8
lcuqz                   B000	ldgqd                   FF01
ldkwn                   C438	ldlfj                   C170
ldstf                   FF00	lgftu                   8FF2
lgozr                   C337	lgozx                   C037
lgzot                   FF03	lhlrv                   FF02
ljjij                   027D	ljjku                   02ED
ljjlf                   016D	ljjln                   034D
ljjlp                   000D	ljjmh                   052D
ljjmj                   046D	ljjmu                   048D
ljjsl                   0135	ljjta                   0195
ljjtr                   0535	ljjtt                   0475
ljjuy                   00E5	ljjvm                   0185
ljjwf                   0465	ljmjq                   0399
ljmkc                   01D9	ljmlq                   03E9
ljmmn                   0049	ljmmr                   0629
ljmmv                   0669	ljmnd                   0469
ljmtc                   00B1	ljmtm                   0391
ljmtz                   0151	ljmur                   0611
ljmvl                   0261	ljmvr                   0121
ljmvu                   01E1	ljmwc                   03C1
ljmwg                   0181	ljmxl                   0401
ljmxp                   0441	ljpmy                   22CD
ljvli                   03BC	ljvlu                   01FC
ljvml                   015C	ljvnc                   069C
ljvof                   006C	ljvon                   024C
ljvot                   010C	ljvpl                   046C
ljvpz                   050C	ljvvm                   01B4
ljvvy                   03D4	ljvwj                   0634
ljvxh                   0414	ljvxi                   0594
ljvxv                   0364	ljvyb                   0064
ljvyg                   0384	ljvyq                   00C4
ljvys                   01C4	ljvzh                   0464
ljymc                   03B8	ljymz                   0018
ljynd                   0058	ljyol                   0558
ljypn                   0108	ljypr                   0148
ljyps                   06A8	ljypt                   0628
ljyqf                   0468	ljyxg                   06F0
ljyyf                   0450	ljyzn                   0140
ljyzt                   0660	ljyzx                   0420
ljzaf                   0600	ljzao                   0580
ljzap                   0500	lncgw                   03BF
lnchl                   021F	lnckn                   062F
lnckv                   042F	lnclp                   044F
lncqz                   0037	lncrb                   0137
lncrr                   0117	lncth                   0267
lnctr                   0167	lncuv                   0467
lnfjf                   053B	lnfjt                   041B
lnfkl                   012B	lnfkw                   03CB
lnflh                   062B	lnfmb                   064B
lnfso                   01D3	lnfvp                   0463
lnfwb                   0403	lnhhj                   1323
lnisl                   2377	lnljv                   231B
lnltr                   2313	lnokw                   019E
lnoln                   053E	lnolt                   061E
lnoms                   01AE	lnonj                   010E
lnonw                   04AE	lnooq                   04CE
lnotx                   0276	lnouj                   0216
lnoun                   0256	lnovg                   04B6
lnovl                   0476	lnovp                   0616
lnovw                   0496	lnowa                   04D6
lnoxk                   06A6	lnoxl                   0626
lnoxv                   0526	lnoxx                   0466
lnqhc                   12B6	lnrkv                   027A
lnrlq                   019A	lnrmb                   067A
lnrov                   046A	lnrvx                   0672
lnrxa                   03A2	lnrxl                   0062
lnrxp                   0202	lnrxq                   0382
lnrxt                   0242	lnryp                   0522

