	                ;*********************************************************************************************************
	                ; 
	                ; Autogenerated by DizAssembler:
	                ;   https://github.com/codenjoyme/8080-emulator/blob/master/src/main/java/spec/assembler/DizAssembler.java
	                ; From: src/main/resources/lik/apps/reversi2/reversi2.rks
	                ; In test: DizAssemblerTest.testDizAssembly()
	                ; 
	                ;*********************************************************************************************************
	                
	                         CPU  8080
	                         .ORG 00000h
	                lkamr    EQU 01000h
	                ljkwf    EQU 0121Dh
	                lnhiv    EQU 01423h
	                lkais    EQU 01F80h
	                lkfav    EQU 02000h
	                lnlth    EQU 02033h
	                lkbwz    EQU 02034h
	                lnlwn    EQU 02043h
	                lkcaf    EQU 02044h
	                lkeob    EQU 02078h
	                lkfau    EQU 02080h
	                lnltr    EQU 02313h
	                lnisl    EQU 02377h
	                lkeqs    EQU 02388h
	                lnxws    EQU 02392h
	                lkgks    EQU 03DC0h
	                lnjsg    EQU 03FFFh
	                lkxej    EQU 04450h
	                lkwzl    EQU 04C50h
	                lofmj    EQU 05673h
	                louqc    EQU 077B6h
	                lftmp    EQU 0851Bh
	                lcauo    EQU 08FE1h
	                lcasc    EQU 08FF1h
	                lgftu    EQU 08FF2h
	                lcjko    EQU 08FFCh
	                lcopl    EQU 09000h
	                lfuyv    EQU 0905Bh
	                lfrxk    EQU 090FFh
	                lclmx    EQU 09534h
	                lclnb    EQU 09574h
	                lcopx    EQU 09660h
	                lgenv    EQU 09766h
	                lglla    EQU 0A99Ah
	                lcsxs    EQU 0AAA0h
	                lcpmp    EQU 0AF1Ch
	                lgbnw    EQU 0B4C3h
	                lgozx    EQU 0C037h
	                ldlfj    EQU 0C170h
	                lgpdp    EQU 0C427h
	                ldkwn    EQU 0C438h
	                lgouq    EQU 0CAB7h
	                ldjtr    EQU 0D514h
	                ldstf    EQU 0FF00h
	                ldgqd    EQU 0FF01h
	                lhlrv    EQU 0FF02h
	                lgzot    EQU 0FF03h
	                lgwbe    EQU 0FFFFh
0000	31 FF 3F                 LXI SP,lnjsg
0003	0E 1F                    MVI C,01Fh
0005	CD 37 C0                 CALL lgozx
0008	21 00 00                 LXI H,00000h
000B	22 E1 8F                 SHLD lcauo
000E	C3 1B 01                 JMP lnfip
0011	E5              ljmtt:   PUSH H
0012	D5                       PUSH D
0013	1E 00                    MVI E,000h
0015	79              ljjsz:   MOV A,C
0016	17                       RAL
0017	4F                       MOV C,A
0018	DA 2B 00                 JC lnfkj
001B	21 67 01                 LXI H,lnctr
001E	CD 31 00        lnokv:   CALL ljmtd
0021	1C                       INR E
0022	7B                       MOV A,E
0023	FE 08                    CPI 008h
0025	C2 15 00                 JNZ ljjsz
0028	D1                       POP D
0029	E1                       POP H
002A	C9                       RET
002B	21 6F 01        lnfkj:   LXI H,lncjv
002E	C3 1E 00                 JMP lnokv
0031	D5              ljmtd:   PUSH D
0032	7B                       MOV A,E
0033	07                       RLC
0034	07                       RLC
0035	07                       RLC
0036	C6 60                    ADI 060h
0038	5F                       MOV E,A
0039	3E 90                    MVI A,090h
003B	82                       ADD D
003C	57                       MOV D,A
003D	06 08                    MVI B,008h
003F	7E              lnchd:   MOV A,M
0040	12                       STAX D
0041	13                       INX D
0042	23                       INX H
0043	05                       DCR B
0044	C2 3F 00                 JNZ lnchd
0047	D1                       POP D
0048	C9                       RET
0049	E5              ljmmn:   PUSH H
004A	D5                       PUSH D
004B	21 77 01                 LXI H,lncrf
004E	16 00                    MVI D,000h
0050	4E              ljywz:   MOV C,M
0051	CD 11 00                 CALL ljmtt
0054	23                       INX H
0055	14                       INR D
0056	7A                       MOV A,D
0057	FE 30                    CPI 030h
0059	C2 50 00                 JNZ ljywz
005C	D1                       POP D
005D	E1                       POP H
005E	C9                       RET
005F	21 77 01        lnchx:   LXI H,lncrf
0062	11 A7 01                 LXI D,lnctm
0065	36 00           ljjuz:   MVI M,000h
0067	23                       INX H
0068	CD 27 C4                 CALL lgpdp
006B	C2 65 00                 JNZ ljjuz
006E	C9                       RET
006F	E5              lncjt:   PUSH H
0070	D5                       PUSH D
0071	21 77 01                 LXI H,lncrf
0074	11 A7 01                 LXI D,lnctm
0077	23              lncrd:   INX H
0078	7E                       MOV A,M
0079	2B                       DCX H
007A	77                       MOV M,A
007B	23                       INX H
007C	CD 27 C4                 CALL lgpdp
007F	C2 77 00                 JNZ lncrd
0082	D1                       POP D
0083	E1                       POP H
0084	C9                       RET
0085	CD 5F 00        ljjvk:   CALL lnchx
0088	21 A8 01                 LXI H,ljyow
008B	11 D8 01                 LXI D,ljyne
008E	7E              lnong:   MOV A,M
008F	32 A7 01                 STA lnctm
0092	CD 6F 00                 CALL lncjt
0095	CD 49 00                 CALL ljmmn
0098	23                       INX H
0099	CD 27 C4                 CALL lgpdp
009C	C2 8E 00                 JNZ lnong
009F	C9                       RET
00A0	0E 80           ljyyq:   MVI C,080h
00A2	69              lnrxg:   MOV L,C
00A3	CD B7 00                 CALL lncqy
00A6	79                       MOV A,C
00A7	2F                       CMA
00A8	6F                       MOV L,A
00A9	CD B7 00                 CALL lncqy
00AC	11 00 01                 LXI D,00100h
00AF	CD D0 00                 CALL ljywy
00B2	0C                       INR C
00B3	C2 A2 00                 JNZ lnrxg
00B6	C9                       RET
00B7	26 90           lncqy:   MVI H,090h
00B9	78              ljmjg:   MOV A,B
00BA	B7                       ORA A
00BB	CC C9 00                 CZ ljmmm
00BE	C4 CC 00                 CNZ ljvou
00C1	24                       INR H
00C2	7C                       MOV A,H
00C3	FE C0                    CPI 0C0h
00C5	C2 B9 00                 JNZ ljmjg
00C8	C9                       RET
00C9	AF              ljmmm:   XRA A
00CA	77                       MOV M,A
00CB	C9                       RET
00CC	7E              ljvou:   MOV A,M
00CD	2F                       CMA
00CE	77                       MOV M,A
00CF	C9                       RET
00D0	E5              ljywy:   PUSH H
00D1	21 00 00                 LXI H,00000h
00D4	23              ljvwe:   INX H
00D5	CD 27 C4                 CALL lgpdp
00D8	C2 D4 00                 JNZ ljvwe
00DB	E1                       POP H
00DC	C9                       RET
00DD	21 F0 01        ljjjg:   LXI H,ljywk
00E0	06 10                    MVI B,010h
00E2	0E 1C           lnrxk:   MVI C,01Ch
00E4	16 9A                    MVI D,09Ah
00E6	3E F8                    MVI A,0F8h
00E8	90                       SUB B
00E9	5F                       MOV E,A
00EA	7E              lnrno:   MOV A,M
00EB	12                       STAX D
00EC	23                       INX H
00ED	14                       INR D
00EE	0D                       DCR C
00EF	C2 EA 00                 JNZ lnrno
00F2	CD FA 00                 CALL lnrlc
00F5	05                       DCR B
00F6	C2 E2 00                 JNZ lnrxk
00F9	C9                       RET
00FA	C5              lnrlc:   PUSH B
00FB	06 C8                    MVI B,0C8h
00FD	16 9A           ljjiq:   MVI D,09Ah
00FF	0E 1C                    MVI C,01Ch
0101	1A              ljmwh:   LDAX D
0102	1D                       DCR E
0103	12                       STAX D
0104	1C                       INR E
0105	AF                       XRA A
0106	12                       STAX D
0107	14                       INR D
0108	D5                       PUSH D
0109	11 01 00                 LXI D,00001h
010C	CD D0 00                 CALL ljywy
010F	D1                       POP D
0110	0D                       DCR C
0111	C2 01 01                 JNZ ljmwh
0114	1D                       DCR E
0115	05                       DCR B
0116	C2 FD 00                 JNZ ljjiq
0119	C1                       POP B
011A	C9                       RET
011B	06 00           lnfip:   MVI B,000h
011D	CD A0 00                 CALL ljyyq
0120	CD DD 00                 CALL ljjjg
0123	CD 85 00                 CALL ljjvk
0126	11 FF FF                 LXI D,lgwbe
0129	CD D0 00                 CALL ljywy
012C	06 05                    MVI B,005h
012E	CD A0 00        lnomt:   CALL ljyyq
0131	11 00 90                 LXI D,lcopl
0134	CD D0 00                 CALL ljywy
0137	05                       DCR B
0138	C2 2E 01                 JNZ lnomt
013B	21 C0 3D                 LXI H,lkgks
013E	22 FC 8F                 SHLD lcjko
0141	21 D8 01                 LXI H,ljyne
0144	CD 38 C4                 CALL ldkwn
0147	11 FF FF                 LXI D,lgwbe
014A	CD 46 08        lnroh:   CALL lnosj
014D	B7                       ORA A
014E	C2 B0 03                 JNZ ljyvy
0151	D5                       PUSH D
0152	11 00 04                 LXI D,00400h
0155	CD D0 00                 CALL ljywy
0158	D1                       POP D
0159	1B                       DCX D
015A	7A                       MOV A,D
015B	BB                       CMP E
015C	C2 4A 01                 JNZ lnroh
015F	AF                       XRA A
0160	47                       MOV B,A
0161	CD A0 00                 CALL ljyyq
0164	C3 1B 01                 JMP lnfip
	                
0167	55 AA 55 AA     lnctr:   DB 055h, 0AAh, 055h, 0AAh, 055h, 0AAh, 055h, 0AAh
	. . .
016B	55 AA 55 AA 

016F	00 3C 7E 7E     lncjv:   DB 000h, 03Ch, 07Eh, 07Eh, 07Eh, 07Eh, 03Ch, 000h
	. . .
0173	7E 7E 3C 00 

0177	D3 08 3A 97     lncrf:   DB 0D3h, 008h, 03Ah, 097h, 00Bh, 0FEh, 001h, 0CAh, 089h, 005h
	. . .
017F	89 05 

0181	3A 97 0B 4F              DB 03Ah, 097h, 00Bh, 04Fh, 006h, 000h, 0AFh, 0CDh, 080h, 009h
	. . .
0189	80 09 

018B	B7 C2 61 05              DB 0B7h, 0C2h, 061h, 005h, 004h, 078h, 0E6h, 00Fh, 0FEh, 008h
	. . .
0193	FE 08 

0195	C2 37 05 3E              DB 0C2h, 037h, 005h, 03Eh, 010h, 080h, 0E6h, 0F0h, 047h, 0FEh
	. . .
019D	47 FE 

019F	80 DA 37 05              DB 080h, 0DAh, 037h, 005h, 03Ah, 097h, 00Bh, 0B9h
	. . .
01A3	3A 97 0B B9 

01A7	00              lnctm:   DB 000h
01A8	00 00 00 00     ljyow:   DB 000h, 000h, 000h, 000h, 07Ch, 050h, 050h, 020h, 000h, 000h
	. . .
01B0	00 00 

01B2	7C 54 54 54              DB 07Ch, 054h, 054h, 054h, 000h, 000h, 07Ch, 054h, 054h, 028h
	. . .
01BA	54 28 

01BC	00 00 7C 54              DB 000h, 000h, 07Ch, 054h, 054h, 054h, 000h, 000h, 07Ch, 050h
	. . .
01C4	7C 50 

01C6	50 20 00 00              DB 050h, 020h, 000h, 000h, 038h, 044h, 044h, 028h, 000h, 000h
	. . .
01CE	00 00 

01D0	7C 08 10 7C              DB 07Ch, 008h, 010h, 07Ch, 000h, 000h, 000h, 000h
	. . .
01D4	00 00 00 00 

01D8	20 20 20 6E     ljyne:   DB 020h, 020h, 020h, 06Eh, 061h, 076h, 06Dh, 069h, 074h, 065h
	. . .
01E0	74 65 

01E2	20 22 70 72              DB 020h, 022h, 070h, 072h, 06Fh, 062h, 065h, 06Ch, 022h, 021h
	. . .
01EA	22 21 

01EC	00 20 21 00              DB 000h, 020h, 021h, 000h
01F0	E0 1C FF FC     ljywk:   DB 0E0h, 01Ch, 0FFh, 0FCh, 0FFh, 0E0h, 0E0h, 01Ch, 03Fh, 0F0h
	. . .
01F8	3F F0 

01FA	FF F0 E0 70              DB 0FFh, 0F0h, 0E0h, 070h, 0E0h, 01Ch, 000h, 000h, 003h, 080h
	. . .
0202	03 80 

0204	3F F0 3F F0              DB 03Fh, 0F0h, 03Fh, 0F0h, 03Fh, 0F0h, 000h, 000h, 0E0h, 01Ch
	. . .
020C	E0 1C 

020E	FF FC FF F8              DB 0FFh, 0FCh, 0FFh, 0F8h, 0E0h, 01Ch, 07Fh, 0F8h, 0FFh, 0F8h
	. . .
0216	FF F8 

0218	E0 70 E0 1C              DB 0E0h, 070h, 0E0h, 01Ch, 000h, 000h, 007h, 080h, 07Fh, 0F8h
	. . .
0220	7F F8 

0222	7F F8 7F F8              DB 07Fh, 0F8h, 07Fh, 0F8h, 000h, 000h, 0E0h, 01Ch, 0FFh, 0FCh
	. . .
022A	FF FC 

022C	FF F8 E0 1C              DB 0FFh, 0F8h, 0E0h, 01Ch, 0FFh, 0FCh, 0FFh, 0FCh, 0E0h, 070h
	. . .
0234	E0 70 

0236	E0 1C 00 00              DB 0E0h, 01Ch, 000h, 000h, 00Fh, 080h, 0FFh, 0FCh, 0FFh, 0FCh
	. . .
023E	FF FC 

0240	FF FC 00 00              DB 0FFh, 0FCh, 000h, 000h, 0E0h, 01Ch, 0E0h, 000h, 0E0h, 03Ch
	. . .
0248	E0 3C 

024A	E0 1C F0 3C              DB 0E0h, 01Ch, 0F0h, 03Ch, 0E0h, 03Ch, 0E0h, 070h, 0E0h, 01Ch
	. . .
0252	E0 1C 

0254	00 00 1F 80              DB 000h, 000h, 01Fh, 080h, 0F0h, 03Ch, 0E0h, 01Ch, 0E0h, 01Ch
	. . .
025C	E0 1C 

025E	00 00 E0 1C              DB 000h, 000h, 0E0h, 01Ch, 0E0h, 000h, 0E0h, 01Ch, 0E0h, 01Ch
	. . .
0266	E0 1C 

0268	E0 1C E0 1C              DB 0E0h, 01Ch, 0E0h, 01Ch, 0E0h, 070h, 0E0h, 01Ch, 000h, 000h
	. . .
0270	00 00 

0272	3F 80 E0 1C              DB 03Fh, 080h, 0E0h, 01Ch, 0E0h, 01Ch, 0E0h, 01Ch, 000h, 000h
	. . .
027A	00 00 

027C	E0 1C E0 00              DB 0E0h, 01Ch, 0E0h, 000h, 0E0h, 01Ch, 0E0h, 01Ch, 0E0h, 01Ch
	. . .
0284	E0 1C 

0286	E0 1C E0 70              DB 0E0h, 01Ch, 0E0h, 070h, 0E0h, 01Ch, 000h, 000h, 07Fh, 080h
	. . .
028E	7F 80 

0290	E0 1C E0 1C              DB 0E0h, 01Ch, 0E0h, 01Ch, 0E0h, 01Ch, 000h, 000h, 0E0h, 01Ch
	. . .
0298	E0 1C 

029A	E0 00 E0 3C              DB 0E0h, 000h, 0E0h, 03Ch, 0E0h, 01Ch, 0E0h, 01Ch, 0E0h, 038h
	. . .
02A2	E0 38 

02A4	E0 70 E0 1C              DB 0E0h, 070h, 0E0h, 01Ch, 001h, 080h, 003h, 080h, 0F0h, 03Ch
	. . .
02AC	F0 3C 

02AE	70 38 70 38              DB 070h, 038h, 070h, 038h, 00Fh, 0E0h, 0FFh, 0FCh, 0FFh, 0C0h
	. . .
02B6	FF C0 

02B8	FF F8 FF FC              DB 0FFh, 0F8h, 0FFh, 0FCh, 0E0h, 01Ch, 0FFh, 0F0h, 0E0h, 070h
	. . .
02C0	E0 70 

02C2	FF 1C 03 C0              DB 0FFh, 01Ch, 003h, 0C0h, 003h, 080h, 0FFh, 0FCh, 03Fh, 0F0h
	. . .
02CA	3F F0 

02CC	3F F0 0F E0              DB 03Fh, 0F0h, 00Fh, 0E0h, 07Fh, 0FCh, 0FFh, 0C0h, 0FFh, 0F8h
	. . .
02D4	FF F8 

02D6	FF FC E0 1C              DB 0FFh, 0FCh, 0E0h, 01Ch, 0FFh, 0F8h, 0E0h, 070h, 0FFh, 09Ch
	. . .
02DE	FF 9C 

02E0	07 E0 03 80              DB 007h, 0E0h, 003h, 080h, 07Fh, 0FCh, 03Fh, 0F0h, 03Fh, 0F0h
	. . .
02E8	3F F0 

02EA	0C 00 3F FC              DB 00Ch, 000h, 03Fh, 0FCh, 0E0h, 000h, 0FFh, 0E0h, 0FFh, 0FCh
	. . .
02F2	FF FC 

02F4	E0 1C E0 3C              DB 0E0h, 01Ch, 0E0h, 03Ch, 0E0h, 070h, 0FFh, 0DCh, 007h, 0E0h
	. . .
02FC	07 E0 

02FE	03 80 3F FC              DB 003h, 080h, 03Fh, 0FCh, 070h, 038h, 070h, 038h, 00Ch, 000h
	. . .
0306	0C 00 

0308	00 1C E0 00              DB 000h, 01Ch, 0E0h, 000h, 0E0h, 000h, 0E0h, 01Ch, 0E0h, 01Ch
	. . .
0310	E0 1C 

0312	E0 1C E0 70              DB 0E0h, 01Ch, 0E0h, 070h, 0E3h, 0DCh, 003h, 0E0h, 003h, 080h
	. . .
031A	03 80 

031C	00 1C E0 1C              DB 000h, 01Ch, 0E0h, 01Ch, 0E0h, 01Ch, 00Ch, 000h, 000h, 01Ch
	. . .
0324	00 1C 

0326	E0 00 E0 00              DB 0E0h, 000h, 0E0h, 000h, 0E0h, 01Ch, 0E0h, 01Ch, 0E0h, 01Ch
	. . .
032E	E0 1C 

0330	E0 70 E1 DC              DB 0E0h, 070h, 0E1h, 0DCh, 001h, 0E0h, 003h, 080h, 000h, 01Ch
	. . .
0338	00 1C 

033A	E0 1C E0 1C              DB 0E0h, 01Ch, 0E0h, 01Ch, 00Ch, 00Eh, 000h, 01Ch, 0E0h, 000h
	. . .
0342	E0 00 

0344	E0 00 E0 1C              DB 0E0h, 000h, 0E0h, 01Ch, 0F0h, 03Ch, 0E0h, 03Ch, 0E0h, 070h
	. . .
034C	E0 70 

034E	E3 DC 00 60              DB 0E3h, 0DCh, 000h, 060h, 003h, 080h, 0E0h, 038h, 0E0h, 01Ch
	. . .
0356	E0 1C 

0358	E0 1C 0C 1F              DB 0E0h, 01Ch, 00Ch, 01Fh, 000h, 01Ch, 0FFh, 0FCh, 0E0h, 000h
	. . .
0360	E0 00 

0362	E0 1C FF FC              DB 0E0h, 01Ch, 0FFh, 0FCh, 0FFh, 0FCh, 0FFh, 0FCh, 0FFh, 0DCh
	. . .
036A	FF DC 

036C	00 C0 7F FC              DB 000h, 0C0h, 07Fh, 0FCh, 0FFh, 0F0h, 0FFh, 0FCh, 0FFh, 0FCh
	. . .
0374	FF FC 

0376	0C 1F 00 1C              DB 00Ch, 01Fh, 000h, 01Ch, 0FFh, 0FCh, 0E0h, 000h, 0E0h, 01Ch
	. . .
037E	E0 1C 

0380	7F FC FF F8              DB 07Fh, 0FCh, 0FFh, 0F8h, 0FFh, 0FCh, 0FFh, 09Ch, 001h, 080h
	. . .
0388	01 80 

038A	7F FC 7F E0              DB 07Fh, 0FCh, 07Fh, 0E0h, 07Fh, 0F8h, 07Fh, 0F8h, 00Ch, 01Fh
	. . .
0392	0C 1F 

0394	00 1C FF FC              DB 000h, 01Ch, 0FFh, 0FCh, 0E0h, 000h, 0E0h, 01Ch, 03Fh, 0F0h
	. . .
039C	3F F0 

039E	FF F0 FF FC              DB 0FFh, 0F0h, 0FFh, 0FCh, 0FFh, 01Ch, 000h, 000h, 03Fh, 0FCh
	. . .
03A6	3F FC 

03A8	3F C0 3F F0              DB 03Fh, 0C0h, 03Fh, 0F0h, 03Fh, 0F0h, 00Ch, 00Eh
	. . .
03AC	3F F0 0C 0E 

03B0	06 00           ljyvy:   MVI B,000h
03B2	CD A0 00                 CALL ljyyq
03B5	21 50 44                 LXI H,lkxej
03B8	22 FC 8F                 SHLD lcjko
03BB	21 7F 0B                 LXI H,lnccd
03BE	CD 38 C4                 CALL ldkwn
03C1	06 53                    MVI B,053h
03C3	3E 01                    MVI A,001h
03C5	CD C0 07                 CALL ljzak
03C8	CD CB 0A                 CALL lnffw
03CB	06 54                    MVI B,054h
03CD	3E 02                    MVI A,002h
03CF	CD C0 07                 CALL ljzak
03D2	CD CB 0A                 CALL lnffw
03D5	0E 01                    MVI C,001h
03D7	3E 52           lncrm:   MVI A,052h
03D9	81                       ADD C
03DA	47                       MOV B,A
03DB	AF                       XRA A
03DC	C5                       PUSH B
03DD	CD C0 07                 CALL ljzak
03E0	11 00 20                 LXI D,lkfav
03E3	CD 3B 08                 CALL lnfcz
03E6	C1                       POP B
03E7	C5                       PUSH B
03E8	79                       MOV A,C
03E9	CD C0 07                 CALL ljzak
03EC	CD CB 0A                 CALL lnffw
03EF	11 00 20                 LXI D,lkfav
03F2	CD 3B 08                 CALL lnfcz
03F5	C1                       POP B
03F6	CD 46 08                 CALL lnosj
03F9	FE 20                    CPI 020h
03FB	CA 09 04                 JZ ljmnp
03FE	B7                       ORA A
03FF	CA D7 03                 JZ lncrm
0402	3E 03                    MVI A,003h
0404	91                       SUB C
0405	4F                       MOV C,A
0406	C3 D7 03                 JMP lncrm
0409	79              ljmnp:   MOV A,C
040A	32 97 0B                 STA lncmk
040D	3E 03                    MVI A,003h
040F	91                       SUB C
0410	32 98 0B                 STA ljyhu
0413	11 00 10                 LXI D,lkamr
0416	CD 3B 08                 CALL lnfcz
0419	06 00                    MVI B,000h
041B	CD A0 00                 CALL ljyyq
041E	21 50 4C                 LXI H,lkwzl
0421	22 FC 8F                 SHLD lcjko
0424	21 8E 0B                 LXI H,lnoic
0427	CD 38 C4                 CALL ldkwn
042A	0E 03                    MVI C,003h
042C	06 53                    MVI B,053h
042E	C5              lnonx:   PUSH B
042F	3E 01                    MVI A,001h
0431	CD C0 07                 CALL ljzak
0434	CD CB 0A                 CALL lnffw
0437	C1                       POP B
0438	04                       INR B
0439	0D                       DCR C
043A	C2 2E 04                 JNZ lnonx
043D	21 73 56                 LXI H,lofmj
0440	11 20 00                 LXI D,00020h
0443	0E 31                    MVI C,031h
0445	22 FC 8F        ljjwv:   SHLD lcjko
0448	CD 37 C0                 CALL lgozx
044B	19                       DAD D
044C	0C                       INR C
044D	79                       MOV A,C
044E	FE 34                    CPI 034h
0450	C2 45 04                 JNZ ljjwv
0453	06 53           lnftt:   MVI B,053h
0455	C5              ljjuj:   PUSH B
0456	CD 12 08                 CALL lnrqn
0459	11 00 20                 LXI D,lkfav
045C	CD 3B 08                 CALL lnfcz
045F	C1                       POP B
0460	CD 46 08                 CALL lnosj
0463	B7                       ORA A
0464	CA 55 04                 JZ ljjuj
0467	FE 20                    CPI 020h
0469	CA 76 04                 JZ lnovl
046C	04                       INR B
046D	78                       MOV A,B
046E	FE 56                    CPI 056h
0470	C2 55 04                 JNZ ljjuj
0473	C3 53 04                 JMP lnftt
0476	78              lnovl:   MOV A,B
0477	D6 53                    SUI 053h
0479	32 99 0B                 STA ljmes
047C	06 00                    MVI B,000h
047E	CD A0 00                 CALL ljyyq
0481	21 00 90                 LXI H,lcopl
0484	01 00 01                 LXI B,00100h
0487	1E FF                    MVI E,0FFh
0489	E5              ljmno:   PUSH H
048A	16 20                    MVI D,020h
048C	CD B4 07                 CALL ljvwk
048F	E1                       POP H
0490	7D                       MOV A,L
0491	C6 20                    ADI 020h
0493	6F                       MOV L,A
0494	D2 89 04                 JNC ljmno
0497	21 FF 90                 LXI H,lfrxk
049A	16 20                    MVI D,020h
049C	CD B4 07                 CALL ljvwk
049F	21 00 90                 LXI H,lcopl
04A2	01 01 00                 LXI B,00001h
04A5	1E 80                    MVI E,080h
04A7	E5              lncuq:   PUSH H
04A8	16 FF                    MVI D,0FFh
04AA	CD B4 07                 CALL ljvwk
04AD	E1                       POP H
04AE	7C                       MOV A,H
04AF	C6 04                    ADI 004h
04B1	67                       MOV H,A
04B2	FE B4                    CPI 0B4h
04B4	C2 A7 04                 JNZ lncuq
04B7	3A 98 0B                 LDA ljyhu
04BA	06 91                    MVI B,091h
04BC	CD C0 07                 CALL ljzak
04BF	CD CB 0A                 CALL lnffw
04C2	06 93                    MVI B,093h
04C4	3A 97 0B                 LDA lncmk
04C7	CD C0 07                 CALL ljzak
04CA	CD CB 0A                 CALL lnffw
04CD	21 1B 85                 LXI H,lftmp
04D0	22 FC 8F                 SHLD lcjko
04D3	21 6C 0B                 LXI H,ljvjb
04D6	CD 38 C4                 CALL ldkwn
04D9	21 5B 90                 LXI H,lfuyv
04DC	22 FC 8F                 SHLD lcjko
04DF	21 79 0B                 LXI H,ljmeh
04E2	CD 38 C4                 CALL ldkwn
04E5	21 00 20                 LXI H,lkfav
04E8	11 80 20                 LXI D,lkfau
04EB	36 00           lnfls:   MVI M,000h
04ED	23                       INX H
04EE	CD 27 C4                 CALL lgpdp
04F1	C2 EB 04                 JNZ lnfls
04F4	3E 01                    MVI A,001h
04F6	32 43 20                 STA lnlwn
04F9	32 34 20                 STA lkbwz
04FC	3C                       INR A
04FD	32 33 20                 STA lnlth
0500	32 44 20                 STA lkcaf
0503	CD 5D 09                 CALL ljjel
0506	21 34 95                 LXI H,lclmx
0509	22 FC 8F                 SHLD lcjko
050C	21 B1 07                 LXI H,ljmuc
050F	CD 38 C4                 CALL ldkwn
0512	21 74 95                 LXI H,lclnb
0515	22 FC 8F                 SHLD lcjko
0518	21 B1 07                 LXI H,ljmuc
051B	3E 02                    MVI A,002h
051D	32 6A 0B                 STA lnril
0520	32 6B 0B                 STA lnffj
0523	CD 38 C4                 CALL ldkwn
0526	CD D3 08                 CALL lnfno
0529	3A 97 0B                 LDA lncmk
052C	FE 01                    CPI 001h
052E	CA 89 05                 JZ ljmnq
0531	3A 97 0B        ljmul:   LDA lncmk
0534	4F                       MOV C,A
0535	06 00           ljjtr:   MVI B,000h
0537	AF              lncsh:   XRA A
0538	CD 80 09                 CALL ljyuk
053B	B7                       ORA A
053C	C2 61 05                 JNZ ljmxb
053F	04                       INR B
0540	78                       MOV A,B
0541	E6 0F                    ANI 00Fh
0543	FE 08                    CPI 008h
0545	C2 37 05                 JNZ lncsh
0548	3E 10                    MVI A,010h
054A	80                       ADD B
054B	E6 F0                    ANI 0F0h
054D	47                       MOV B,A
054E	FE 80                    CPI 080h
0550	DA 37 05                 JC lncsh
0553	3A 97 0B                 LDA lncmk
0556	B9                       CMP C
0557	C2 67 0A                 JNZ lncoj
055A	3A 98 0B                 LDA ljyhu
055D	4F                       MOV C,A
055E	C3 35 05                 JMP ljjtr
0561	3A 98 0B        ljmxb:   LDA ljyhu
0564	B9                       CMP C
0565	CA 89 05                 JZ ljmnq
0568	CD 62 08                 CALL lnrsn
056B	3A 97 0B                 LDA lncmk
056E	4F                       MOV C,A
056F	AF                       XRA A
0570	CD 80 09                 CALL ljyuk
0573	B7                       ORA A
0574	CA 86 08                 JZ lnose
0577	CD 80 09                 CALL ljyuk
057A	CD 07 0A                 CALL lncov
057D	CD 0F 0A                 CALL lncez
0580	CD 5D 09                 CALL ljjel
0583	CD D3 08                 CALL lnfno
0586	C3 89 05                 JMP ljmnq
0589	3A 98 0B        ljmnq:   LDA ljyhu
058C	4F                       MOV C,A
058D	3E 05                    MVI A,005h
058F	32 7F 07                 STA lncih
0592	AF                       XRA A
0593	32 7C 07                 STA ljvmt
0596	21 89 07                 LXI H,ljmni
0599	3E 04           ljmle:   MVI A,004h
059B	32 80 07                 STA ljzag
059E	AF                       XRA A
059F	32 81 07                 STA ljmxe
05A2	32 82 07                 STA lnryw
05A5	7E              ljjwc:   MOV A,M
05A6	32 83 07                 STA lnfvu
05A9	32 84 07                 STA ljvzm
05AC	23                       INX H
05AD	7E                       MOV A,M
05AE	32 85 07                 STA ljjwk
05B1	23                       INX H
05B2	CD 4E 06                 CALL lnooj
05B5	3A 83 07                 LDA lnfvu
05B8	47              ljynq:   MOV B,A
05B9	AF                       XRA A
05BA	E5                       PUSH H
05BB	CD 80 09                 CALL ljyuk
05BE	E1                       POP H
05BF	B7                       ORA A
05C0	C2 FF 05                 JNZ lncio
05C3	3A 85 07        lnfwg:   LDA ljjwk
05C6	5F                       MOV E,A
05C7	3A 83 07                 LDA lnfvu
05CA	BB                       CMP E
05CB	CA D9 05                 JZ ljmli
05CE	5F                       MOV E,A
05CF	3A 86 07                 LDA lnoyc
05D2	83                       ADD E
05D3	32 83 07                 STA lnfvu
05D6	C3 B8 05                 JMP ljynq
05D9	3A 80 07        ljmli:   LDA ljzag
05DC	3D                       DCR A
05DD	32 80 07                 STA ljzag
05E0	C2 A5 05                 JNZ ljjwc
05E3	3A 81 07                 LDA ljmxe
05E6	B7                       ORA A
05E7	C2 36 06                 JNZ lnouz
05EA	3A 7F 07                 LDA lncih
05ED	3D                       DCR A
05EE	32 7F 07                 STA lncih
05F1	C2 99 05                 JNZ ljmle
05F4	3A 7C 07                 LDA ljvmt
05F7	B7                       ORA A
05F8	CA 31 05                 JZ ljmul
05FB	47                       MOV B,A
05FC	C3 3A 06                 JMP lnrlx
05FF	5F              lncio:   MOV E,A
0600	3A 99 0B                 LDA ljmes
0603	B7                       ORA A
0604	CA 3A 06                 JZ lnrlx
0607	3A 81 07                 LDA ljmxe
060A	BB                       CMP E
060B	D2 C3 05                 JNC lnfwg
060E	3A 99 0B                 LDA ljmes
0611	3D                       DCR A
0612	C2 20 06                 JNZ ljyzp
0615	7B              ljjtx:   MOV A,E
0616	32 81 07                 STA ljmxe
0619	78                       MOV A,B
061A	32 82 07                 STA lnryw
061D	C3 C3 05                 JMP lnfwg
0620	3A 7F 07        ljyzp:   LDA lncih
0623	FE 04                    CPI 004h
0625	C2 15 06                 JNZ ljjtx
0628	78                       MOV A,B
0629	32 7C 07                 STA ljvmt
062C	CD 66 06                 CALL lnoxp
062F	B7                       ORA A
0630	CA C3 05                 JZ lnfwg
0633	C3 15 06                 JMP ljjtx
0636	3A 82 07        lnouz:   LDA lnryw
0639	47                       MOV B,A
063A	3E 01           lnrlx:   MVI A,001h
063C	CD 80 09                 CALL ljyuk
063F	CD 07 0A                 CALL lncov
0642	CD 0F 0A                 CALL lncez
0645	CD 5D 09                 CALL ljjel
0648	CD D3 08                 CALL lnfno
064B	C3 31 05                 JMP ljmul
064E	3A 83 07        lnooj:   LDA lnfvu
0651	5F                       MOV E,A
0652	3A 85 07                 LDA ljjwk
0655	93                       SUB E
0656	FE 10                    CPI 010h
0658	DA 61 06                 JC ljmwr
065B	3E 10                    MVI A,010h
065D	32 86 07        ljjkf:   STA lnoyc
0660	C9                       RET
0661	3E 01           ljmwr:   MVI A,001h
0663	C3 5D 06                 JMP ljjkf
0666	E5              lnoxp:   PUSH H
0667	CD 9D 06                 CALL ljjka
066A	3E 01                    MVI A,001h
066C	CD 80 09                 CALL ljyuk
066F	CD 07 0A                 CALL lncov
0672	CD C8 06                 CALL ljyqm
0675	7A                       MOV A,D
0676	32 88 07                 STA ljyqk
0679	7B                       MOV A,E
067A	32 87 07                 STA lncva
067D	CD 08 07                 CALL ljyql
0680	CD C8 06                 CALL ljyqm
0683	CD C0 06                 CALL ljzai
0686	E1                       POP H
0687	3A 88 07                 LDA ljyqk
068A	BA                       CMP D
068B	CA 91 06                 JZ ljmuq
068E	D2 9B 06                 JNC lnfjk
0691	3A 87 07        ljmuq:   LDA lncva
0694	BB                       CMP E
0695	C2 9B 06                 JNZ lnfjk
0698	3E 01                    MVI A,001h
069A	C9                       RET
069B	AF              lnfjk:   XRA A
069C	C9                       RET
069D	E5              ljjka:   PUSH H
069E	D5                       PUSH D
069F	C5                       PUSH B
06A0	0E 01                    MVI C,001h
06A2	21 00 20        lnrye:   LXI H,lkfav
06A5	11 80 1F                 LXI D,lkais
06A8	79              ljyps:   MOV A,C
06A9	B7                       ORA A
06AA	CA B2 06                 JZ lnrvs
06AD	7E                       MOV A,M
06AE	12                       STAX D
06AF	C3 B4 06                 JMP ljvwi
06B2	1A              lnrvs:   LDAX D
06B3	77                       MOV M,A
06B4	23              ljvwi:   INX H
06B5	13                       INX D
06B6	7D                       MOV A,L
06B7	FE 80                    CPI 080h
06B9	DA A8 06                 JC ljyps
06BC	C1                       POP B
06BD	D1                       POP D
06BE	E1                       POP H
06BF	C9                       RET
06C0	E5              ljzai:   PUSH H
06C1	D5                       PUSH D
06C2	C5                       PUSH B
06C3	0E 00                    MVI C,000h
06C5	C3 A2 06                 JMP lnrye
06C8	E5              ljyqm:   PUSH H
06C9	C5                       PUSH B
06CA	AF                       XRA A
06CB	57                       MOV D,A
06CC	5F                       MOV E,A
06CD	21 00 20                 LXI H,lkfav
06D0	3A 84 07                 LDA ljvzm
06D3	6F                       MOV L,A
06D4	3A 85 07                 LDA ljjwk
06D7	4F                       MOV C,A
06D8	3A 98 0B        ljyoa:   LDA ljyhu
06DB	BE                       CMP M
06DC	CC EC 06                 CZ ljvpc
06DF	7D                       MOV A,L
06E0	B9                       CMP C
06E1	CA EE 06                 JZ lnons
06E4	3A 86 07                 LDA lnoyc
06E7	85                       ADD L
06E8	6F                       MOV L,A
06E9	C3 D8 06                 JMP ljyoa
06EC	14              ljvpc:   INR D
06ED	C9                       RET
06EE	3A 86 07        lnons:   LDA lnoyc
06F1	4F                       MOV C,A
06F2	3A 84 07                 LDA ljvzm
06F5	91                       SUB C
06F6	CD 03 07                 CALL lnfvv
06F9	3A 85 07                 LDA ljjwk
06FC	81                       ADD C
06FD	CD 03 07                 CALL lnfvv
0700	C1                       POP B
0701	E1                       POP H
0702	C9                       RET
0703	6F              lnfvv:   MOV L,A
0704	7E                       MOV A,M
0705	C8                       RZ
0706	1C                       INR E
0707	C9                       RET
0708	E5              ljyql:   PUSH H
0709	D5                       PUSH D
070A	C5                       PUSH B
070B	3A 86 07                 LDA lnoyc
070E	57                       MOV D,A
070F	3A 97 0B                 LDA lncmk
0712	4F                       MOV C,A
0713	3A 84 07                 LDA ljvzm
0716	92                       SUB D
0717	CD 4D 07                 CALL ljjmt
071A	3A 85 07                 LDA ljjwk
071D	82                       ADD D
071E	CD 4D 07                 CALL ljjmt
0721	AF                       XRA A
0722	32 7E 07                 STA lnolj
0725	32 7D 07                 STA ljjjr
0728	3A 84 07                 LDA ljvzm
072B	5F                       MOV E,A
072C	CD 68 07        ljvpb:   CALL ljypz
072F	3A 85 07                 LDA ljjwk
0732	BB                       CMP E
0733	CA 3C 07                 JZ ljvmp
0736	7A                       MOV A,D
0737	83                       ADD E
0738	5F                       MOV E,A
0739	C3 2C 07                 JMP ljvpb
073C	3A 7D 07        ljvmp:   LDA ljjjr
073F	B7                       ORA A
0740	C2 47 07                 JNZ lncvf
0743	C1              lnfvz:   POP B
0744	D1                       POP D
0745	E1                       POP H
0746	C9                       RET
0747	3A 7E 07        lncvf:   LDA lnolj
074A	CD 4D 07                 CALL ljjmt
074D	D5              ljjmt:   PUSH D
074E	CD 60 07                 CALL ljyzv
0751	D1                       POP D
0752	B7                       ORA A
0753	C8                       RZ
0754	3E 01                    MVI A,001h
0756	CD 80 09                 CALL ljyuk
0759	CD 07 0A                 CALL lncov
075C	E1                       POP H
075D	C3 43 07                 JMP lnfvz
0760	47              ljyzv:   MOV B,A
0761	AF                       XRA A
0762	D5                       PUSH D
0763	CD 80 09                 CALL ljyuk
0766	D1                       POP D
0767	C9                       RET
0768	CD 60 07        ljypz:   CALL ljyzv
076B	B7                       ORA A
076C	C8                       RZ
076D	67                       MOV H,A
076E	3A 7D 07                 LDA ljjjr
0771	BC                       CMP H
0772	D0                       RNC
0773	7C                       MOV A,H
0774	32 7D 07                 STA ljjjr
0777	78                       MOV A,B
0778	32 7E 07                 STA lnolj
077B	C9                       RET
	                
077C	82              ljvmt:   DB 082h
077D	82              ljjjr:   DB 082h
077E	82              lnolj:   DB 082h
077F	82              lncih:   DB 082h
0780	82              ljzag:   DB 082h
0781	82              ljmxe:   DB 082h
0782	82              lnryw:   DB 082h
0783	82              lnfvu:   DB 082h
0784	82              ljvzm:   DB 082h
0785	82              ljjwk:   DB 082h
0786	82              lnoyc:   DB 082h
0787	82              lncva:   DB 082h
0788	82              ljyqk:   DB 082h
0789	00 00 07 07     ljmni:   DB 000h, 000h, 007h, 007h, 077h, 077h, 070h, 070h, 001h, 006h
	. . .
0791	01 06 

0793	10 60 71 76              DB 010h, 060h, 071h, 076h, 017h, 067h, 022h, 025h, 035h, 045h
	. . .
079B	35 45 

079D	52 55 32 42              DB 052h, 055h, 032h, 042h, 012h, 015h, 026h, 056h, 021h, 051h
	. . .
07A5	21 51 

07A7	62 65 11 11              DB 062h, 065h, 011h, 011h, 016h, 016h, 066h, 066h, 061h, 061h
	. . .
07AF	61 61 

07B1	30 32 00        ljmuc:   DB 030h, 032h, 000h
07B4	7E              ljvwk:   MOV A,M
07B5	B3                       ORA E
07B6	77                       MOV M,A
07B7	09                       DAD B
07B8	15                       DCR D
07B9	C2 B4 07                 JNZ ljvwk
07BC	C9                       RET
07BD	0E A6           ljjjm:   MVI C,0A6h
07BF	C9                       RET
07C0	C5              ljzak:   PUSH B
07C1	E5                       PUSH H
07C2	CD ED 07                 CALL ljjmc
07C5	23                       INX H
07C6	0E 00                    MVI C,000h
07C8	B7                       ORA A
07C9	CC BD 07                 CZ ljjjm
07CC	79                       MOV A,C
07CD	32 D8 07                 STA ljyoc
07D0	7C                       MOV A,H
07D1	C6 03                    ADI 003h
07D3	4F                       MOV C,A
07D4	E5              ljvxe:   PUSH H
07D5	06 1E                    MVI B,01Eh
07D7	1A              lncss:   LDAX D
07D8	B6              ljyoc:   ORA M
07D9	77                       MOV M,A
07DA	2C                       INR L
07DB	13                       INX D
07DC	05                       DCR B
07DD	C2 D7 07                 JNZ lncss
07E0	E1                       POP H
07E1	7C                       MOV A,H
07E2	B9                       CMP C
07E3	CA EA 07                 JZ lnroo
07E6	24                       INR H
07E7	C3 D4 07                 JMP ljvxe
07EA	E1              lnroo:   POP H
07EB	C1                       POP B
07EC	C9                       RET
07ED	F5              ljjmc:   PUSH PSW
07EE	11 12 0C                 LXI D,lnrrt
07F1	3D                       DCR A
07F2	CC 0A 08                 CZ lnrjd
07F5	3D                       DCR A
07F6	CC 0E 08                 CZ lnoij
07F9	78                       MOV A,B
07FA	E6 0F                    ANI 00Fh
07FC	0F                       RRC
07FD	0F                       RRC
07FE	0F                       RRC
07FF	6F                       MOV L,A
0800	78                       MOV A,B
0801	E6 F0                    ANI 0F0h
0803	0F                       RRC
0804	0F                       RRC
0805	C6 90                    ADI 090h
0807	67                       MOV H,A
0808	F1                       POP PSW
0809	C9                       RET
080A	11 9A 0B        lnrjd:   LXI D,lnrgk
080D	C9                       RET
080E	11 8A 0C        lnoij:   LXI D,lnrki
0811	C9                       RET
0812	CD ED 07        lnrqn:   CALL ljjmc
0815	E5                       PUSH H
0816	CD 24 08                 CALL ljvsz
0819	11 00 10                 LXI D,lkamr
081C	CD 3B 08                 CALL lnfcz
081F	E1                       POP H
0820	CD 24 08                 CALL ljvsz
0823	C9                       RET
0824	3E 03           ljvsz:   MVI A,003h
0826	84                       ADD H
0827	57                       MOV D,A
0828	0E 20           ljyjx:   MVI C,020h
082A	E5                       PUSH H
082B	7E              lnffl:   MOV A,M
082C	2F                       CMA
082D	77                       MOV M,A
082E	2C                       INR L
082F	0D                       DCR C
0830	C2 2B 08                 JNZ lnffl
0833	E1                       POP H
0834	7C                       MOV A,H
0835	BA                       CMP D
0836	C8                       RZ
0837	24                       INR H
0838	C3 28 08                 JMP ljyjx
083B	21 00 00        lnfcz:   LXI H,00000h
083E	23              lnofh:   INX H
083F	CD 27 C4                 CALL lgpdp
0842	C2 3E 08                 JNZ lnofh
0845	C9                       RET
0846	C5              lnosj:   PUSH B
0847	3E 91                    MVI A,091h
0849	32 03 FF                 STA lgzot
084C	3E FB                    MVI A,0FBh
084E	32 01 FF                 STA ldgqd
0851	3A 00 FF                 LDA ldstf
0854	E6 3F                    ANI 03Fh
0856	47                       MOV B,A
0857	3A 02 FF                 LDA lhlrv
085A	E6 03                    ANI 003h
085C	0F                       RRC
085D	0F                       RRC
085E	B0                       ORA B
085F	2F                       CMA
0860	C1                       POP B
0861	C9                       RET
0862	06 00           lnrsn:   MVI B,000h
0864	CD 46 08        ljvtd:   CALL lnosj
0867	FE 04                    CPI 004h
0869	CA AE 08                 JZ lnohs
086C	FE 01                    CPI 001h
086E	CA B0 03                 JZ ljyvy
0871	FE 10                    CPI 010h
0873	CA A1 08                 JZ ljmqq
0876	FE 40                    CPI 040h
0878	CA BD 08                 JZ ljjdo
087B	FE 80                    CPI 080h
087D	CA C9 08                 JZ ljmho
0880	FE 20                    CPI 020h
0882	C8                       RZ
0883	C3 93 08                 JMP lnfnk
0886	CD 8C 08        lnose:   CALL ljvjs
0889	C3 61 05                 JMP ljmxb
088C	E5              ljvjs:   PUSH H
088D	21 4C 0B                 LXI H,ljvjr
0890	C3 30 0A                 JMP ljyqz
0893	C5              lnfnk:   PUSH B
0894	CD 12 08                 CALL lnrqn
0897	11 00 10                 LXI D,lkamr
089A	CD 3B 08                 CALL lnfcz
089D	C1                       POP B
089E	C3 64 08                 JMP ljvtd
08A1	78              ljmqq:   MOV A,B
08A2	E6 F0                    ANI 0F0h
08A4	CA 93 08                 JZ lnfnk
08A7	78                       MOV A,B
08A8	D6 10                    SUI 010h
08AA	47                       MOV B,A
08AB	C3 93 08                 JMP lnfnk
08AE	78              lnohs:   MOV A,B
08AF	E6 F0                    ANI 0F0h
08B1	FE 70                    CPI 070h
08B3	CA 93 08                 JZ lnfnk
08B6	78                       MOV A,B
08B7	C6 10                    ADI 010h
08B9	47                       MOV B,A
08BA	C3 93 08                 JMP lnfnk
08BD	78              ljjdo:   MOV A,B
08BE	E6 0F                    ANI 00Fh
08C0	FE 07                    CPI 007h
08C2	CA 93 08                 JZ lnfnk
08C5	04                       INR B
08C6	C3 93 08                 JMP lnfnk
08C9	78              ljmho:   MOV A,B
08CA	E6 0F                    ANI 00Fh
08CC	CA 93 08                 JZ lnfnk
08CF	05                       DCR B
08D0	C3 93 08                 JMP lnfnk
08D3	3A 6A 0B        lnfno:   LDA lnril
08D6	21 34 95                 LXI H,lclmx
08D9	22 FC 8F                 SHLD lcjko
08DC	CD 35 09                 CALL ljjnn
08DF	3A 6B 0B                 LDA lnffj
08E2	21 74 95                 LXI H,lclnb
08E5	22 FC 8F                 SHLD lcjko
08E8	CD 35 09                 CALL ljjnn
08EB	21 6A 0B                 LXI H,lnril
08EE	AF                       XRA A
08EF	77                       MOV M,A
08F0	23                       INX H
08F1	77                       MOV M,A
08F2	21 00 20                 LXI H,lkfav
08F5	11 80 20                 LXI D,lkfau
08F8	7E              ljyho:   MOV A,M
08F9	E5                       PUSH H
08FA	B7                       ORA A
08FB	CA 09 09                 JZ ljmhn
08FE	67                       MOV H,A
08FF	3A 97 0B                 LDA lncmk
0902	BC                       CMP H
0903	CA 2F 09                 JZ lncet
0906	C3 29 09                 JMP ljmgx
0909	E1              ljmhn:   POP H
090A	23                       INX H
090B	CD 27 C4                 CALL lgpdp
090E	C2 F8 08                 JNZ ljyho
0911	3A 6A 0B                 LDA lnril
0914	21 34 95                 LXI H,lclmx
0917	22 FC 8F                 SHLD lcjko
091A	CD 35 09                 CALL ljjnn
091D	3A 6B 0B                 LDA lnffj
0920	21 74 95                 LXI H,lclnb
0923	22 FC 8F                 SHLD lcjko
0926	C3 35 09                 JMP ljjnn
0929	21 6A 0B        ljmgx:   LXI H,lnril
092C	C3 48 09                 JMP ljykt
092F	21 6B 0B        lncet:   LXI H,lnffj
0932	C3 48 09                 JMP ljykt
0935	F5              ljjnn:   PUSH PSW
0936	E6 F0                    ANI 0F0h
0938	0F                       RRC
0939	0F                       RRC
093A	0F                       RRC
093B	0F                       RRC
093C	CD 42 09                 CALL lnrtf
093F	F1                       POP PSW
0940	E6 0F                    ANI 00Fh
0942	C6 30           lnrtf:   ADI 030h
0944	4F                       MOV C,A
0945	C3 37 C0                 JMP lgozx
0948	CD 4E 09        ljykt:   CALL lnoip
094B	C3 09 09                 JMP ljmhn
094E	7E              lnoip:   MOV A,M
094F	3C                       INR A
0950	77                       MOV M,A
0951	E6 0F                    ANI 00Fh
0953	FE 0A                    CPI 00Ah
0955	D8                       RC
0956	7E                       MOV A,M
0957	C6 10                    ADI 010h
0959	E6 F0                    ANI 0F0h
095B	77                       MOV M,A
095C	C9                       RET
095D	21 00 20        ljjel:   LXI H,lkfav
0960	7E              ljytz:   MOV A,M
0961	B7                       ORA A
0962	CA 6B 09                 JZ lnffr
0965	45                       MOV B,L
0966	E5                       PUSH H
0967	CD C0 07                 CALL ljzak
096A	E1                       POP H
096B	2C              lnffr:   INR L
096C	7D                       MOV A,L
096D	E6 0F                    ANI 00Fh
096F	FE 08                    CPI 008h
0971	DA 60 09                 JC ljytz
0974	7D                       MOV A,L
0975	E6 F0                    ANI 0F0h
0977	C6 10                    ADI 010h
0979	6F                       MOV L,A
097A	FE 80                    CPI 080h
097C	DA 60 09                 JC ljytz
097F	C9                       RET
0980	32 03 0A        ljyuk:   STA lnfpp
0983	AF                       XRA A
0984	32 04 0A                 STA ljvth
0987	21 00 20                 LXI H,lkfav
098A	7D                       MOV A,L
098B	80                       ADD B
098C	6F                       MOV L,A
098D	7E                       MOV A,M
098E	B7                       ORA A
098F	C2 F6 09                 JNZ lnopi
0992	11 FA 09                 LXI D,lnrgg
0995	1A              ljjoc:   LDAX D
0996	B7                       ORA A
0997	CA F6 09                 JZ lnopi
099A	32 05 0A                 STA ljjqf
099D	E5                       PUSH H
099E	AF                       XRA A
099F	32 06 0A                 STA lnorx
09A2	3A 05 0A        lnrsk:   LDA ljjqf
09A5	85                       ADD L
09A6	6F                       MOV L,A
09A7	CD D9 09                 CALL ljmfe
09AA	D2 D4 09                 JNC ljvri
09AD	7E                       MOV A,M
09AE	B7                       ORA A
09AF	CA D4 09                 JZ ljvri
09B2	B9                       CMP C
09B3	CA C0 09                 JZ ljyuo
09B6	3A 06 0A                 LDA lnorx
09B9	3C                       INR A
09BA	32 06 0A                 STA lnorx
09BD	C3 A2 09                 JMP lnrsk
09C0	21 04 0A        ljyuo:   LXI H,ljvth
09C3	3A 06 0A                 LDA lnorx
09C6	86                       ADD M
09C7	77                       MOV M,A
09C8	E1                       POP H
09C9	3A 03 0A                 LDA lnfpp
09CC	B7                       ORA A
09CD	C4 E1 09                 CNZ ljmqw
09D0	13                       INX D
09D1	C3 95 09                 JMP ljjoc
09D4	E1              ljvri:   POP H
09D5	13                       INX D
09D6	C3 95 09                 JMP ljjoc
09D9	FE 80           ljmfe:   CPI 080h
09DB	D0                       RNC
09DC	E6 0F                    ANI 00Fh
09DE	FE 08                    CPI 008h
09E0	C9                       RET
09E1	3A 06 0A        ljmqw:   LDA lnorx
09E4	B7                       ORA A
09E5	C8                       RZ
09E6	E5                       PUSH H
09E7	D5                       PUSH D
09E8	57                       MOV D,A
09E9	3A 05 0A        ljmha:   LDA ljjqf
09EC	85                       ADD L
09ED	6F                       MOV L,A
09EE	71                       MOV M,C
09EF	15                       DCR D
09F0	C2 E9 09                 JNZ ljmha
09F3	D1                       POP D
09F4	E1                       POP H
09F5	C9                       RET
09F6	3A 04 0A        lnopi:   LDA ljvth
09F9	C9                       RET
	                
09FA	01 FF 10 F0     lnrgg:   DB 001h, 0FFh, 010h, 0F0h, 00Fh, 011h, 0F1h, 0EFh, 000h
	. . .
0A02	00 

0A03	82              lnfpp:   DB 082h
0A04	82              ljvth:   DB 082h
0A05	82              ljjqf:   DB 082h
0A06	82              lnorx:   DB 082h
0A07	21 00 20        lncov:   LXI H,lkfav
0A0A	78                       MOV A,B
0A0B	85                       ADD L
0A0C	6F                       MOV L,A
0A0D	71                       MOV M,C
0A0E	C9                       RET
0A0F	C5              lncez:   PUSH B
0A10	79                       MOV A,C
0A11	CD C0 07                 CALL ljzak
0A14	C1                       POP B
0A15	CD 1F 0A                 CALL lnccn
0A18	11 00 20                 LXI D,lkfav
0A1B	CD 3B 08                 CALL lnfcz
0A1E	C9                       RET
0A1F	E5              lnccn:   PUSH H
0A20	21 3E 0B                 LXI H,lnofb
0A23	3A 97 0B                 LDA lncmk
0A26	B9                       CMP C
0A27	CA 30 0A                 JZ ljyqz
0A2A	21 45 0B                 LXI H,ljjql
0A2D	C3 30 0A                 JMP ljyqz
0A30	7E              ljyqz:   MOV A,M
0A31	B7                       ORA A
0A32	CA 47 0A                 JZ lncoz
0A35	32 F2 8F                 STA lgftu
0A38	23              ljyhd:   INX H
0A39	7E                       MOV A,M
0A3A	B7                       ORA A
0A3B	CA 47 0A                 JZ lncoz
0A3E	32 F1 8F                 STA lcasc
0A41	CD 70 C1                 CALL ldlfj
0A44	C3 38 0A                 JMP ljyhd
0A47	E1              lncoz:   POP H
0A48	C9                       RET
0A49	E5              ljmhh:   PUSH H
0A4A	21 55 0B                 LXI H,ljjnz
0A4D	C3 30 0A                 JMP ljyqz
0A50	E5 21 55 0B              DB 0E5h, 021h, 055h, 00Bh, 0C3h, 030h, 00Ah
	. . .
0A54	C3 30 0A 

0A57	45              lncmn:   MOV B,L
0A58	71              ljyhx:   MOV M,C
0A59	2C                       INR L
0A5A	7D                       MOV A,L
0A5B	BB                       CMP E
0A5C	C2 58 0A                 JNZ ljyhx
0A5F	24                       INR H
0A60	68                       MOV L,B
0A61	7C                       MOV A,H
0A62	BA                       CMP D
0A63	C2 58 0A                 JNZ ljyhx
0A66	C9                       RET
0A67	CD 49 0A        lncoj:   CALL ljmhh
0A6A	21 60 96                 LXI H,lcopx
0A6D	11 A0 AA                 LXI D,lcsxs
0A70	0E FF                    MVI C,0FFh
0A72	CD 57 0A                 CALL lncmn
0A75	21 66 97                 LXI H,lgenv
0A78	11 9A A9                 LXI D,lglla
0A7B	0E 00                    MVI C,000h
0A7D	CD 57 0A                 CALL lncmn
0A80	21 78 20                 LXI H,lkeob
0A83	22 FC 8F                 SHLD lcjko
0A86	3A 6A 0B                 LDA lnril
0A89	4F                       MOV C,A
0A8A	3A 6B 0B                 LDA lnffj
0A8D	91                       SUB C
0A8E	21 EC 0A                 LXI H,ljviy
0A91	CA 9D 0A                 JZ ljjdw
0A94	DA A3 0A                 JC lnfoy
0A97	CD 38 C4        lncmi:   CALL ldkwn
0A9A	C3 A9 0A                 JMP ljmgm
0A9D	21 DF 0A        ljjdw:   LXI H,lnccq
0AA0	C3 97 0A                 JMP lncmi
0AA3	21 03 0B        lnfoy:   LXI H,lnfpr
0AA6	C3 97 0A                 JMP lncmi
0AA9	21 88 23        ljmgm:   LXI H,lkeqs
0AAC	22 FC 8F                 SHLD lcjko
0AAF	21 16 0B                 LXI H,lnopn
0AB2	CD 38 C4                 CALL ldkwn
0AB5	21 92 23                 LXI H,lnxws
0AB8	22 FC 8F                 SHLD lcjko
0ABB	21 2B 0B                 LXI H,lnfff
0ABE	CD 38 C4                 CALL ldkwn
0AC1	CD 46 08        ljmrc:   CALL lnosj
0AC4	B7                       ORA A
0AC5	CA C1 0A                 JZ ljmrc
0AC8	C3 1B 01                 JMP lnfip
0ACB	C5              lnffw:   PUSH B
0ACC	E5                       PUSH H
0ACD	CD ED 07                 CALL ljjmc
0AD0	23                       INX H
0AD1	0E 1E                    MVI C,01Eh
0AD3	3E 7F           lnfng:   MVI A,07Fh
0AD5	A6                       ANA M
0AD6	77                       MOV M,A
0AD7	23                       INX H
0AD8	0D                       DCR C
0AD9	C2 D3 0A                 JNZ lnfng
0ADC	E1                       POP H
0ADD	C1                       POP B
0ADE	C9                       RET
	                
0ADF	20 20 20 20     lnccq:   DB 020h, 020h, 020h, 020h, 020h, 06Eh, 069h, 07Eh, 078h, 071h
	. . .
0AE7	78 71 

0AE9	20 21 00                 DB 020h, 021h, 000h
0AEC	70 6F 7A 64     ljviy:   DB 070h, 06Fh, 07Ah, 064h, 072h, 061h, 077h, 06Ch, 071h, 060h
	. . .
0AF4	71 60 

0AF6	20 73 20 70              DB 020h, 073h, 020h, 070h, 06Fh, 062h, 065h, 064h, 06Fh, 06Ah
	. . .
0AFE	6F 6A 

0B00	20 21 00                 DB 020h, 021h, 000h
0B03	20 20 20 20     lnfpr:   DB 020h, 020h, 020h, 020h, 077h, 079h, 020h, 070h, 072h, 06Fh
	. . .
0B0B	72 6F 

0B0D	69 67 72 61              DB 069h, 067h, 072h, 061h, 06Ch, 069h, 020h, 021h, 000h
	. . .
0B15	00 

0B16	64 6C 71 20     lnopn:   DB 064h, 06Ch, 071h, 020h, 070h, 072h, 06Fh, 064h, 06Fh, 06Ch
	. . .
0B1E	6F 6C 

0B20	76 65 6E 69              DB 076h, 065h, 06Eh, 069h, 071h, 020h, 069h, 067h, 072h, 079h
	. . .
0B28	72 79 

0B2A	00                       DB 000h
0B2B	20 20 6E 61     lnfff:   DB 020h, 020h, 06Eh, 061h, 076h, 06Dh, 069h, 074h, 065h, 020h
	. . .
0B33	65 20 

0B35	22 70 72 6F              DB 022h, 070h, 072h, 06Fh, 062h, 065h, 06Ch, 022h, 000h
	. . .
0B3D	00 

0B3E	28 83 75 67     lnofb:   DB 028h, 083h, 075h, 067h, 061h, 056h, 000h
	. . .
0B42	61 56 00 

0B45	28 56 61 67     ljjql:   DB 028h, 056h, 061h, 067h, 075h, 083h, 000h
	. . .
0B49	75 83 00 

0B4C	3C 75 83 94     ljvjr:   DB 03Ch, 075h, 083h, 094h, 09Dh, 0B0h, 0C8h, 0DFh, 000h
	. . .
0B54	00 

0B55	50 FB C8 A6     ljjnz:   DB 050h, 0FBh, 0C8h, 0A6h, 07Ch, 061h, 051h, 03Ch, 03Ch, 03Ch
	. . .
0B5D	3C 3C 

0B5F	3C 61 51 3C              DB 03Ch, 061h, 051h, 03Ch, 051h, 061h, 051h, 0A6h, 0A6h, 0A6h
	. . .
0B67	A6 A6 

0B69	00                       DB 000h
0B6A	82              lnril:   DB 082h
0B6B	82              lnffj:   DB 082h
0B6C	20 6B 6F 6D     ljvjb:   DB 020h, 06Bh, 06Fh, 06Dh, 070h, 078h, 060h, 074h, 065h, 072h
	. . .
0B74	65 72 

0B76	20 20 00                 DB 020h, 020h, 000h
0B79	69 67 72 6F     ljmeh:   DB 069h, 067h, 072h, 06Fh, 06Bh, 000h
	. . .
0B7D	6B 00 

0B7F	77 79 62 65     lnccd:   DB 077h, 079h, 062h, 065h, 072h, 069h, 074h, 065h, 020h, 063h
	. . .
0B87	20 63 

0B89	77 65 74 3A              DB 077h, 065h, 074h, 03Ah, 000h
	. . .
0B8D	00 

0B8E	75 72 6F 77     lnoic:   DB 075h, 072h, 06Fh, 077h, 065h, 06Eh, 078h, 03Ah, 000h
	. . .
0B96	00 

0B97	82              lncmk:   DB 082h
0B98	82              ljyhu:   DB 082h
0B99	82              ljmes:   DB 082h
0B9A	80 80 80 80     lnrgk:   DB 080h, 080h, 080h, 080h, 081h, 083h, 086h, 08Eh, 08Ch, 098h
	. . .
0BA2	8C 98 

0BA4	98 B0 B0 B0              DB 098h, 0B0h, 0B0h, 0B0h, 0B0h, 0B0h, 0B0h, 0B0h, 0B0h, 098h
	. . .
0BAC	B0 98 

0BAE	98 8C 8E 86              DB 098h, 08Ch, 08Eh, 086h, 083h, 081h, 080h, 080h, 080h, 080h
	. . .
0BB6	80 80 

0BB8	00 07 3F F8              DB 000h, 007h, 03Fh, 0F8h, 0C0h, 080h, 000h, 000h, 000h, 000h
	. . .
0BC0	00 00 

0BC2	00 00 00 00              DB 000h, 000h, 000h, 000h, 000h, 000h, 000h, 000h, 000h, 000h
	. . .
0BCA	00 00 

0BCC	00 00 00 00              DB 000h, 000h, 000h, 000h, 080h, 0C0h, 0F8h, 03Fh, 007h, 000h
	. . .
0BD4	07 00 

0BD6	00 E0 FC 1F              DB 000h, 0E0h, 0FCh, 01Fh, 003h, 001h, 000h, 000h, 000h, 000h
	. . .
0BDE	00 00 

0BE0	00 00 00 00              DB 000h, 000h, 000h, 000h, 000h, 000h, 000h, 000h, 000h, 000h
	. . .
0BE8	00 00 

0BEA	00 00 00 00              DB 000h, 000h, 000h, 000h, 001h, 003h, 01Fh, 0FCh, 0E0h, 000h
	. . .
0BF2	E0 00 

0BF4	00 00 00 00              DB 000h, 000h, 000h, 000h, 080h, 0C0h, 060h, 070h, 030h, 018h
	. . .
0BFC	30 18 

0BFE	18 0C 0C 0C              DB 018h, 00Ch, 00Ch, 00Ch, 00Ch, 00Ch, 00Ch, 00Ch, 00Ch, 018h
	. . .
0C06	0C 18 

0C08	18 30 70 60              DB 018h, 030h, 070h, 060h, 0C0h, 080h, 000h, 000h, 000h, 000h
	. . .
0C10	00 00 

0C12	80 80 80 80     lnrrt:   DB 080h, 080h, 080h, 080h, 080h, 080h, 080h, 080h, 080h, 080h
	. . .
0C1A	80 80 

0C1C	80 80 80 80              DB 080h, 080h, 080h, 080h, 080h, 080h, 080h, 080h, 080h, 080h
	. . .
0C24	80 80 

0C26	80 80 80 80              DB 080h, 080h, 080h, 080h, 080h, 080h, 080h, 080h, 080h, 080h
	. . .
0C2E	80 80 

0C30	00 00 00 00              DB 000h, 000h, 000h, 000h, 000h, 000h, 000h, 000h, 000h, 000h
	. . .
0C38	00 00 

0C3A	00 00 00 00              DB 000h, 000h, 000h, 000h, 000h, 000h, 000h, 000h, 000h, 000h
	. . .
0C42	00 00 

0C44	00 00 00 00              DB 000h, 000h, 000h, 000h, 000h, 000h, 000h, 000h, 000h, 000h
	. . .
0C4C	00 00 

0C4E	00 00 00 00              DB 000h, 000h, 000h, 000h, 000h, 000h, 000h, 000h, 000h, 000h
	. . .
0C56	00 00 

0C58	00 00 00 00              DB 000h, 000h, 000h, 000h, 000h, 000h, 000h, 000h, 000h, 000h
	. . .
0C60	00 00 

0C62	00 00 00 00              DB 000h, 000h, 000h, 000h, 000h, 000h, 000h, 000h, 000h, 000h
	. . .
0C6A	00 00 

0C6C	00 00 00 00              DB 000h, 000h, 000h, 000h, 000h, 000h, 000h, 000h, 000h, 000h
	. . .
0C74	00 00 

0C76	00 00 00 00              DB 000h, 000h, 000h, 000h, 000h, 000h, 000h, 000h, 000h, 000h
	. . .
0C7E	00 00 

0C80	00 00 00 00              DB 000h, 000h, 000h, 000h, 000h, 000h, 000h, 000h, 000h, 000h
	. . .
0C88	00 00 

0C8A	80 80 80 80     lnrki:   DB 080h, 080h, 080h, 080h, 081h, 083h, 087h, 08Fh, 08Fh, 09Fh
	. . .
0C92	8F 9F 

0C94	9F BF BF BF              DB 09Fh, 0BFh, 0BFh, 0BFh, 0BFh, 0BFh, 0BFh, 0BFh, 0BFh, 09Fh
	. . .
0C9C	BF 9F 

0C9E	9F 8F 8F 87              DB 09Fh, 08Fh, 08Fh, 087h, 083h, 081h, 080h, 080h, 080h, 080h
	. . .
0CA6	80 80 

0CA8	00 07 3F FF              DB 000h, 007h, 03Fh, 0FFh, 0FFh, 0FFh, 0FFh, 0FFh, 0FFh, 0FFh
	. . .
0CB0	FF FF 

0CB2	FF FF FF FF              DB 0FFh, 0FFh, 0FFh, 0FFh, 0FFh, 0FFh, 0FFh, 0FFh, 0FFh, 0FFh
	. . .
0CBA	FF FF 

0CBC	FF FF FF FF              DB 0FFh, 0FFh, 0FFh, 0FFh, 0FFh, 0FFh, 0FFh, 03Fh, 007h, 000h
	. . .
0CC4	07 00 

0CC6	00 E0 FC FF              DB 000h, 0E0h, 0FCh, 0FFh, 0FFh, 0FFh, 0FFh, 0FFh, 0FFh, 0FFh
	. . .
0CCE	FF FF 

0CD0	FF FF FF FF              DB 0FFh, 0FFh, 0FFh, 0FFh, 0FFh, 0FFh, 0FFh, 0FFh, 0FFh, 0FFh
	. . .
0CD8	FF FF 

0CDA	FF FF FF FF              DB 0FFh, 0FFh, 0FFh, 0FFh, 0FFh, 0FFh, 0FFh, 0FCh, 0E0h, 000h
	. . .
0CE2	E0 00 

0CE4	00 00 00 00              DB 000h, 000h, 000h, 000h, 080h, 0C0h, 0E0h, 0F0h, 0F0h, 0F8h
	. . .
0CEC	F0 F8 

0CEE	F8 FC FC FC              DB 0F8h, 0FCh, 0FCh, 0FCh, 0FCh, 0FCh, 0FCh, 0FCh, 0FCh, 0F8h
	. . .
0CF6	FC F8 

0CF8	F8 F0 F0 E0              DB 0F8h, 0F0h, 0F0h, 0E0h, 0C0h, 080h, 000h, 000h, 000h, 000h
	. . .
0D00	00 00 

	                END
Labels:
end                     0D02
lcasc                   8FF1	lcauo                   8FE1
lcjko                   8FFC	lclmx                   9534
lclnb                   9574	lcopl                   9000
lcopx                   9660	lcpmp                   AF1C
lcsxs                   AAA0	ldgqd                   FF01
ldjtr                   D514	ldkwn                   C438
ldlfj                   C170	ldstf                   FF00
lfrxk                   90FF	lftmp                   851B
lfuyv                   905B	lgbnw                   B4C3
lgenv                   9766	lgftu                   8FF2
lglla                   A99A	lgouq                   CAB7
lgozx                   C037	lgpdp                   C427
lgwbe                   FFFF	lgzot                   FF03
lhlrv                   FF02	ljjdo                   08BD
ljjdw                   0A9D	ljjel                   095D
ljjiq                   00FD	ljjjg                   00DD
ljjjm                   07BD	ljjjr                   077D
ljjka                   069D	ljjkf                   065D
ljjmc                   07ED	ljjmt                   074D
ljjnn                   0935	ljjnz                   0B55
ljjoc                   0995	ljjqf                   0A05
ljjql                   0B45	ljjsz                   0015
ljjtr                   0535	ljjtx                   0615
ljjuj                   0455	ljjuz                   0065
ljjvk                   0085	ljjwc                   05A5
ljjwk                   0785	ljjwv                   0445
ljkwf                   121D	ljmeh                   0B79
ljmes                   0B99	ljmfe                   09D9
ljmgm                   0AA9	ljmgx                   0929
ljmha                   09E9	ljmhh                   0A49
ljmhn                   0909	ljmho                   08C9
ljmjg                   00B9	ljmle                   0599
ljmli                   05D9	ljmmm                   00C9
ljmmn                   0049	ljmni                   0789
ljmno                   0489	ljmnp                   0409
ljmnq                   0589	ljmqq                   08A1
ljmqw                   09E1	ljmrc                   0AC1
ljmtd                   0031	ljmtt                   0011
ljmuc                   07B1	ljmul                   0531
ljmuq                   0691	ljmwh                   0101
ljmwr                   0661	ljmxb                   0561
ljmxe                   0781	ljviy                   0AEC
ljvjb                   0B6C	ljvjr                   0B4C
ljvjs                   088C	ljvmp                   073C
ljvmt                   077C	ljvou                   00CC
ljvpb                   072C	ljvpc                   06EC
ljvri                   09D4	ljvsz                   0824
ljvtd                   0864	ljvth                   0A04
ljvwe                   00D4	ljvwi                   06B4
ljvwk                   07B4	ljvxe                   07D4
ljvzm                   0784	ljyhd                   0A38
ljyho                   08F8	ljyhu                   0B98
ljyhx                   0A58	ljyjx                   0828
ljykt                   0948	ljyne                   01D8
ljynq                   05B8	ljyoa                   06D8
ljyoc                   07D8	ljyow                   01A8
ljyps                   06A8	ljypz                   0768
ljyqk                   0788	ljyql                   0708
ljyqm                   06C8	ljyqz                   0A30
ljytz                   0960	ljyuk                   0980
ljyuo                   09C0	ljyvy                   03B0
ljywk                   01F0	ljywy                   00D0
ljywz                   0050	ljyyq                   00A0
ljyzp                   0620	ljyzv                   0760
ljzag                   0780	ljzai                   06C0
ljzak                   07C0	lkais                   1F80
lkamr                   1000	lkbwz                   2034
lkcaf                   2044	lkeob                   2078
lkeqs                   2388	lkfau                   2080
lkfav                   2000	lkgks                   3DC0
lkwzl                   4C50	lkxej                   4450
lnccd                   0B7F	lnccn                   0A1F
lnccq                   0ADF	lncet                   092F
lncez                   0A0F	lnchd                   003F
lnchx                   005F	lncih                   077F
lncio                   05FF	lncjt                   006F
lncjv                   016F	lncmi                   0A97
lncmk                   0B97	lncmn                   0A57
lncoj                   0A67	lncov                   0A07
lncoz                   0A47	lncqy                   00B7
lncrd                   0077	lncrf                   0177
lncrm                   03D7	lncsh                   0537
lncss                   07D7	lnctm                   01A7
lnctr                   0167	lncuq                   04A7
lncva                   0787	lncvf                   0747
lnfcz                   083B	lnfff                   0B2B
lnffj                   0B6B	lnffl                   082B
lnffr                   096B	lnffw                   0ACB
lnfip                   011B	lnfjk                   069B
lnfkj                   002B	lnfls                   04EB
lnfng                   0AD3	lnfnk                   0893
lnfno                   08D3	lnfoy                   0AA3
lnfpp                   0A03	lnfpr                   0B03
lnftt                   0453	lnfvu                   0783
lnfvv                   0703	lnfvz                   0743
lnfwg                   05C3	lnhiv                   1423
lnisl                   2377	lnjsg                   3FFF
lnlth                   2033	lnltr                   2313
lnlwn                   2043	lnofb                   0B3E
lnofh                   083E	lnohs                   08AE
lnoic                   0B8E	lnoij                   080E
lnoip                   094E	lnokv                   001E
lnolj                   077E	lnomt                   012E
lnong                   008E	lnons                   06EE
lnonx                   042E	lnooj                   064E
lnopi                   09F6	lnopn                   0B16
lnorx                   0A06	lnose                   0886
lnosj                   0846	lnouz                   0636
lnovl                   0476	lnoxp                   0666
lnoyc                   0786	lnrgg                   09FA
lnrgk                   0B9A	lnril                   0B6A
lnrjd                   080A	lnrki                   0C8A
lnrlc                   00FA	lnrlx                   063A
lnrno                   00EA	lnroh                   014A
lnroo                   07EA	lnrqn                   0812
lnrrt                   0C12	lnrsk                   09A2
lnrsn                   0862	lnrtf                   0942
lnrvs                   06B2	lnrxg                   00A2
lnrxk                   00E2	lnrye                   06A2
lnryw                   0782	lnxws                   2392
lofmj                   5673	louqc                   77B6

